ARM GAS  C:\Users\katre\AppData\Local\Temp\cctdntp1.s 			page 1


   1              		.cpu cortex-m4
   2              		.arch armv7e-m
   3              		.fpu fpv4-sp-d16
   4              		.eabi_attribute 27, 1
   5              		.eabi_attribute 28, 1
   6              		.eabi_attribute 20, 1
   7              		.eabi_attribute 21, 1
   8              		.eabi_attribute 23, 3
   9              		.eabi_attribute 24, 1
  10              		.eabi_attribute 25, 1
  11              		.eabi_attribute 26, 1
  12              		.eabi_attribute 30, 1
  13              		.eabi_attribute 34, 1
  14              		.eabi_attribute 18, 4
  15              		.file	"main.cpp"
  16              		.text
  17              	.Ltext0:
  18              		.cfi_sections	.debug_frame
  19              		.section	.text._ZL18SystemClock_Configv,"ax",%progbits
  20              		.align	1
  21              		.syntax unified
  22              		.thumb
  23              		.thumb_func
  25              	_ZL18SystemClock_Configv:
  26              	.LFB131:
  27              		.file 1 "App/Src/main.cpp"
   1:App/Src/main.cpp **** #include "main.h"
   2:App/Src/main.cpp **** #include "pal_clock.hpp"
   3:App/Src/main.cpp **** #include "pal_gpio.hpp"
   4:App/Src/main.cpp **** #include "pal_board.hpp"
   5:App/Src/main.cpp **** 
   6:App/Src/main.cpp **** 
   7:App/Src/main.cpp **** using namespace pal;
   8:App/Src/main.cpp **** static void SystemClock_Config(void);
   9:App/Src/main.cpp **** // pal_gpio_t LED = { .port = 0, .pin = 5 }; // GPIOA pin 5
  10:App/Src/main.cpp ****  Gpio led(0, 5); // Port A, Pin 5
  11:App/Src/main.cpp **** 
  12:App/Src/main.cpp **** /**
  13:App/Src/main.cpp ****   * @brief  The application entry point.
  14:App/Src/main.cpp ****   * @retval int
  15:App/Src/main.cpp ****   */
  16:App/Src/main.cpp **** int main(void)
  17:App/Src/main.cpp **** {
  18:App/Src/main.cpp **** 
  19:App/Src/main.cpp ****   /*Board init*/
  20:App/Src/main.cpp ****    pal::Board::init();
  21:App/Src/main.cpp **** 
  22:App/Src/main.cpp ****   /* Configure the system clock */
  23:App/Src/main.cpp ****   SystemClock_Config();
  24:App/Src/main.cpp **** 
  25:App/Src/main.cpp ****   // pal_gpio_config(LED, PAL_GPIO_OUTPUT, PAL_GPIO_NOPULL, PAL_GPIO_SPEED_VERY_HIGH, 0);
  26:App/Src/main.cpp ****  
  27:App/Src/main.cpp ****   led.config(Gpio::Mode::Output, Gpio::Pull::NoPull, Gpio::Speed::High);
  28:App/Src/main.cpp **** 
  29:App/Src/main.cpp ****   while (1)
  30:App/Src/main.cpp ****   {
  31:App/Src/main.cpp **** 
ARM GAS  C:\Users\katre\AppData\Local\Temp\cctdntp1.s 			page 2


  32:App/Src/main.cpp ****         led.write(true);
  33:App/Src/main.cpp ****         pal::Board::delay(100);
  34:App/Src/main.cpp ****         led.write(false);
  35:App/Src/main.cpp ****         pal::Board::delay(100);
  36:App/Src/main.cpp **** 
  37:App/Src/main.cpp ****   }
  38:App/Src/main.cpp **** 
  39:App/Src/main.cpp **** }
  40:App/Src/main.cpp **** 
  41:App/Src/main.cpp **** /**
  42:App/Src/main.cpp ****   * @brief System Clock Configuration
  43:App/Src/main.cpp ****   * @retval None
  44:App/Src/main.cpp ****   */
  45:App/Src/main.cpp **** static void SystemClock_Config(void)
  46:App/Src/main.cpp **** {
  28              		.loc 1 46 1 view -0
  29              		.cfi_startproc
  30              		@ args = 0, pretend = 0, frame = 80
  31              		@ frame_needed = 0, uses_anonymous_args = 0
  32 0000 10B5     		push	{r4, lr}
  33              	.LCFI0:
  34              		.cfi_def_cfa_offset 8
  35              		.cfi_offset 4, -8
  36              		.cfi_offset 14, -4
  37 0002 94B0     		sub	sp, sp, #80
  38              	.LCFI1:
  39              		.cfi_def_cfa_offset 88
  47:App/Src/main.cpp ****     ClockConfig cfg;
  40              		.loc 1 47 5 view .LVU1
  41              		.loc 1 47 17 is_stmt 0 view .LVU2
  42 0004 0DF1280C 		add	ip, sp, #40
  43 0008 0C4C     		ldr	r4, .L5
  44 000a 0FCC     		ldmia	r4!, {r0, r1, r2, r3}
  45 000c ACE80F00 		stmia	ip!, {r0, r1, r2, r3}
  46 0010 0FCC     		ldmia	r4!, {r0, r1, r2, r3}
  47 0012 ACE80F00 		stmia	ip!, {r0, r1, r2, r3}
  48 0016 94E80300 		ldm	r4, {r0, r1}
  49 001a 8CE80300 		stm	ip, {r0, r1}
  48:App/Src/main.cpp ****     cfg.source = ClockSource::HSE;
  50              		.loc 1 48 5 is_stmt 1 view .LVU3
  51              		.loc 1 48 16 is_stmt 0 view .LVU4
  52 001e 0123     		movs	r3, #1
  53 0020 8DF82830 		strb	r3, [sp, #40]
  49:App/Src/main.cpp ****     cfg.ahb_div = AhbDiv::DIV_1;
  54              		.loc 1 49 5 is_stmt 1 view .LVU5
  50:App/Src/main.cpp ****     cfg.apb1_div = ApbDiv::DIV_1;
  55              		.loc 1 50 5 view .LVU6
  51:App/Src/main.cpp ****     cfg.apb2_div = ApbDiv::DIV_1;
  56              		.loc 1 51 5 view .LVU7
  52:App/Src/main.cpp ****     cfg.flash_latency = 0;
  57              		.loc 1 52 5 view .LVU8
  53:App/Src/main.cpp **** 
  54:App/Src/main.cpp ****     PalClock clock(cfg);
  58              		.loc 1 54 5 view .LVU9
  59              		.loc 1 54 23 is_stmt 0 view .LVU10
  60 0024 0AA9     		add	r1, sp, #40
  61 0026 6846     		mov	r0, sp
ARM GAS  C:\Users\katre\AppData\Local\Temp\cctdntp1.s 			page 3


  62 0028 FFF7FEFF 		bl	_ZN8PalClockC1ERK11ClockConfig
  63              	.LVL0:
  55:App/Src/main.cpp ****     if (!clock.init()) {
  64              		.loc 1 55 5 is_stmt 1 view .LVU11
  65              		.loc 1 55 20 is_stmt 0 view .LVU12
  66 002c 6846     		mov	r0, sp
  67 002e FFF7FEFF 		bl	_ZN8PalClock4initEv
  68              	.LVL1:
  69              		.loc 1 55 5 view .LVU13
  70 0032 00B9     		cbnz	r0, .L1
  71              	.L3:
  56:App/Src/main.cpp ****         // handle error
  57:App/Src/main.cpp ****         while (1);
  72              		.loc 1 57 9 is_stmt 1 discriminator 1 view .LVU14
  73              		.loc 1 57 9 discriminator 1 view .LVU15
  74 0034 FEE7     		b	.L3
  75              	.L1:
  58:App/Src/main.cpp ****     }
  59:App/Src/main.cpp **** }
  76              		.loc 1 59 1 is_stmt 0 view .LVU16
  77 0036 14B0     		add	sp, sp, #80
  78              	.LCFI2:
  79              		.cfi_def_cfa_offset 8
  80              		@ sp needed
  81 0038 10BD     		pop	{r4, pc}
  82              	.L6:
  83 003a 00BF     		.align	2
  84              	.L5:
  85 003c 00000000 		.word	.LANCHOR0
  86              		.cfi_endproc
  87              	.LFE131:
  89              		.section	.text._Z41__static_initialization_and_destruction_0ii,"ax",%progbits
  90              		.align	1
  91              		.syntax unified
  92              		.thumb
  93              		.thumb_func
  95              	_Z41__static_initialization_and_destruction_0ii:
  96              	.LVL2:
  97              	.LFB135:
  98              		.loc 1 59 1 is_stmt 1 view -0
  99              		.cfi_startproc
 100              		@ args = 0, pretend = 0, frame = 0
 101              		@ frame_needed = 0, uses_anonymous_args = 0
 102              		.loc 1 59 1 is_stmt 0 view .LVU18
 103 0000 0128     		cmp	r0, #1
 104 0002 00D0     		beq	.L13
 105 0004 7047     		bx	lr
 106              	.L13:
 107              		.loc 1 59 1 discriminator 1 view .LVU19
 108 0006 08B5     		push	{r3, lr}
 109              	.LCFI3:
 110              		.cfi_def_cfa_offset 8
 111              		.cfi_offset 3, -8
 112              		.cfi_offset 14, -4
 113              		.loc 1 59 1 discriminator 1 view .LVU20
 114 0008 4FF6FF73 		movw	r3, #65535
 115 000c 9942     		cmp	r1, r3
ARM GAS  C:\Users\katre\AppData\Local\Temp\cctdntp1.s 			page 4


 116 000e 00D0     		beq	.L14
 117              	.LVL3:
 118              	.L7:
 119              		.loc 1 59 1 view .LVU21
 120 0010 08BD     		pop	{r3, pc}
 121              	.LVL4:
 122              	.L14:
  10:App/Src/main.cpp **** 
 123              		.loc 1 10 15 view .LVU22
 124 0012 0522     		movs	r2, #5
 125 0014 0021     		movs	r1, #0
 126              	.LVL5:
  10:App/Src/main.cpp **** 
 127              		.loc 1 10 15 view .LVU23
 128 0016 0248     		ldr	r0, .L15
 129              	.LVL6:
  10:App/Src/main.cpp **** 
 130              		.loc 1 10 15 view .LVU24
 131 0018 FFF7FEFF 		bl	_ZN3pal4GpioC1Ehh
 132              	.LVL7:
 133              		.loc 1 59 1 view .LVU25
 134 001c F8E7     		b	.L7
 135              	.L16:
 136 001e 00BF     		.align	2
 137              	.L15:
 138 0020 00000000 		.word	.LANCHOR1
 139              		.cfi_endproc
 140              	.LFE135:
 142              		.section	.text.main,"ax",%progbits
 143              		.align	1
 144              		.global	main
 145              		.syntax unified
 146              		.thumb
 147              		.thumb_func
 149              	main:
 150              	.LFB130:
  17:App/Src/main.cpp **** 
 151              		.loc 1 17 1 is_stmt 1 view -0
 152              		.cfi_startproc
 153              		@ Volatile: function does not return.
 154              		@ args = 0, pretend = 0, frame = 0
 155              		@ frame_needed = 0, uses_anonymous_args = 0
 156 0000 00B5     		push	{lr}
 157              	.LCFI4:
 158              		.cfi_def_cfa_offset 4
 159              		.cfi_offset 14, -4
 160 0002 83B0     		sub	sp, sp, #12
 161              	.LCFI5:
 162              		.cfi_def_cfa_offset 16
  20:App/Src/main.cpp **** 
 163              		.loc 1 20 4 view .LVU27
  20:App/Src/main.cpp **** 
 164              		.loc 1 20 20 is_stmt 0 view .LVU28
 165 0004 FFF7FEFF 		bl	_ZN3pal5Board4initEv
 166              	.LVL8:
  23:App/Src/main.cpp **** 
 167              		.loc 1 23 3 is_stmt 1 view .LVU29
ARM GAS  C:\Users\katre\AppData\Local\Temp\cctdntp1.s 			page 5


  23:App/Src/main.cpp **** 
 168              		.loc 1 23 21 is_stmt 0 view .LVU30
 169 0008 FFF7FEFF 		bl	_ZL18SystemClock_Configv
 170              	.LVL9:
  27:App/Src/main.cpp **** 
 171              		.loc 1 27 3 is_stmt 1 view .LVU31
  27:App/Src/main.cpp **** 
 172              		.loc 1 27 13 is_stmt 0 view .LVU32
 173 000c 0022     		movs	r2, #0
 174 000e 0092     		str	r2, [sp]
 175 0010 0223     		movs	r3, #2
 176 0012 0121     		movs	r1, #1
 177 0014 0948     		ldr	r0, .L20
 178 0016 FFF7FEFF 		bl	_ZN3pal4Gpio6configENS0_4ModeENS0_4PullENS0_5SpeedEh
 179              	.LVL10:
 180              	.L18:
  29:App/Src/main.cpp ****   {
 181              		.loc 1 29 3 is_stmt 1 discriminator 1 view .LVU33
  32:App/Src/main.cpp ****         pal::Board::delay(100);
 182              		.loc 1 32 9 discriminator 1 view .LVU34
  32:App/Src/main.cpp ****         pal::Board::delay(100);
 183              		.loc 1 32 18 is_stmt 0 discriminator 1 view .LVU35
 184 001a 084C     		ldr	r4, .L20
 185 001c 0121     		movs	r1, #1
 186 001e 2046     		mov	r0, r4
 187 0020 FFF7FEFF 		bl	_ZN3pal4Gpio5writeEb
 188              	.LVL11:
  33:App/Src/main.cpp ****         led.write(false);
 189              		.loc 1 33 9 is_stmt 1 discriminator 1 view .LVU36
  33:App/Src/main.cpp ****         led.write(false);
 190              		.loc 1 33 26 is_stmt 0 discriminator 1 view .LVU37
 191 0024 6420     		movs	r0, #100
 192 0026 FFF7FEFF 		bl	_ZN3pal5Board5delayEm
 193              	.LVL12:
  34:App/Src/main.cpp ****         pal::Board::delay(100);
 194              		.loc 1 34 9 is_stmt 1 discriminator 1 view .LVU38
  34:App/Src/main.cpp ****         pal::Board::delay(100);
 195              		.loc 1 34 18 is_stmt 0 discriminator 1 view .LVU39
 196 002a 0021     		movs	r1, #0
 197 002c 2046     		mov	r0, r4
 198 002e FFF7FEFF 		bl	_ZN3pal4Gpio5writeEb
 199              	.LVL13:
  35:App/Src/main.cpp **** 
 200              		.loc 1 35 9 is_stmt 1 discriminator 1 view .LVU40
  35:App/Src/main.cpp **** 
 201              		.loc 1 35 26 is_stmt 0 discriminator 1 view .LVU41
 202 0032 6420     		movs	r0, #100
 203 0034 FFF7FEFF 		bl	_ZN3pal5Board5delayEm
 204              	.LVL14:
  29:App/Src/main.cpp ****   {
 205              		.loc 1 29 3 is_stmt 1 discriminator 1 view .LVU42
 206 0038 EFE7     		b	.L18
 207              	.L21:
 208 003a 00BF     		.align	2
 209              	.L20:
 210 003c 00000000 		.word	.LANCHOR1
 211              		.cfi_endproc
ARM GAS  C:\Users\katre\AppData\Local\Temp\cctdntp1.s 			page 6


 212              	.LFE130:
 214              		.section	.text._GLOBAL__sub_I_led,"ax",%progbits
 215              		.align	1
 216              		.syntax unified
 217              		.thumb
 218              		.thumb_func
 220              	_GLOBAL__sub_I_led:
 221              	.LFB136:
 222              		.loc 1 59 1 view -0
 223              		.cfi_startproc
 224              		@ args = 0, pretend = 0, frame = 0
 225              		@ frame_needed = 0, uses_anonymous_args = 0
 226 0000 08B5     		push	{r3, lr}
 227              	.LCFI6:
 228              		.cfi_def_cfa_offset 8
 229              		.cfi_offset 3, -8
 230              		.cfi_offset 14, -4
 231              		.loc 1 59 1 is_stmt 0 view .LVU44
 232 0002 4FF6FF71 		movw	r1, #65535
 233 0006 0120     		movs	r0, #1
 234 0008 FFF7FEFF 		bl	_Z41__static_initialization_and_destruction_0ii
 235              	.LVL15:
 236 000c 08BD     		pop	{r3, pc}
 237              		.cfi_endproc
 238              	.LFE136:
 240              		.section	.init_array,"aw",%init_array
 241              		.align	2
 242 0000 00000000 		.word	_GLOBAL__sub_I_led(target1)
 243              		.global	led
 244              		.section	.rodata
 245              		.align	2
 246              		.set	.LANCHOR0,. + 0
 247              	.LC0:
 248 0000 00       		.byte	0
 249 0001 000000   		.space	3
 250 0004 00       		.byte	0
 251 0005 000000   		.space	3
 252 0008 00000000 		.word	0
 253 000c 00000000 		.word	0
 254 0010 00000000 		.word	0
 255 0014 00000000 		.word	0
 256 0018 00000000 		.word	0
 257 001c 00000000 		.word	0
 258 0020 0100     		.short	1
 259 0022 01       		.byte	1
 260 0023 01       		.byte	1
 261 0024 00000000 		.word	0
 262              		.section	.bss.led,"aw",%nobits
 263              		.align	2
 264              		.set	.LANCHOR1,. + 0
 267              	led:
 268 0000 0000     		.space	2
 269              		.text
 270              	.Letext0:
 271              		.file 2 "c:\\program files (x86)\\gnu arm embedded toolchain\\10 2021.10\\arm-none-eabi\\include\\
 272              		.file 3 "c:\\program files (x86)\\gnu arm embedded toolchain\\10 2021.10\\arm-none-eabi\\include\\
 273              		.file 4 "c:\\program files (x86)\\gnu arm embedded toolchain\\10 2021.10\\arm-none-eabi\\include\\
ARM GAS  C:\Users\katre\AppData\Local\Temp\cctdntp1.s 			page 7


 274              		.file 5 "c:\\program files (x86)\\gnu arm embedded toolchain\\10 2021.10\\arm-none-eabi\\include\\
 275              		.file 6 "c:\\program files (x86)\\gnu arm embedded toolchain\\10 2021.10\\arm-none-eabi\\include\\
 276              		.file 7 "CMSIS/Vendor_Device/ST/STM32F4xx/Include/stm32f4xx.h"
 277              		.file 8 "Vendor_HAL/ST/STM32F4xx_HAL_Driver/Inc/stm32f4xx_hal.h"
 278              		.file 9 "PAL/Vendor/common/Inc/pal_clock.hpp"
 279              		.file 10 "PAL/Vendor/common/Inc/pal_gpio.hpp"
 280              		.file 11 "PAL/Vendor/common/Inc/pal_board.hpp"
 281              		.file 12 "<built-in>"
ARM GAS  C:\Users\katre\AppData\Local\Temp\cctdntp1.s 			page 8


DEFINED SYMBOLS
                            *ABS*:00000000 main.cpp
C:\Users\katre\AppData\Local\Temp\cctdntp1.s:20     .text._ZL18SystemClock_Configv:00000000 $t
C:\Users\katre\AppData\Local\Temp\cctdntp1.s:25     .text._ZL18SystemClock_Configv:00000000 _ZL18SystemClock_Configv
C:\Users\katre\AppData\Local\Temp\cctdntp1.s:85     .text._ZL18SystemClock_Configv:0000003c $d
C:\Users\katre\AppData\Local\Temp\cctdntp1.s:90     .text._Z41__static_initialization_and_destruction_0ii:00000000 $t
C:\Users\katre\AppData\Local\Temp\cctdntp1.s:95     .text._Z41__static_initialization_and_destruction_0ii:00000000 _Z41__static_initialization_and_destruction_0ii
C:\Users\katre\AppData\Local\Temp\cctdntp1.s:138    .text._Z41__static_initialization_and_destruction_0ii:00000020 $d
C:\Users\katre\AppData\Local\Temp\cctdntp1.s:143    .text.main:00000000 $t
C:\Users\katre\AppData\Local\Temp\cctdntp1.s:149    .text.main:00000000 main
C:\Users\katre\AppData\Local\Temp\cctdntp1.s:210    .text.main:0000003c $d
C:\Users\katre\AppData\Local\Temp\cctdntp1.s:215    .text._GLOBAL__sub_I_led:00000000 $t
C:\Users\katre\AppData\Local\Temp\cctdntp1.s:220    .text._GLOBAL__sub_I_led:00000000 _GLOBAL__sub_I_led
C:\Users\katre\AppData\Local\Temp\cctdntp1.s:241    .init_array:00000000 $d
C:\Users\katre\AppData\Local\Temp\cctdntp1.s:267    .bss.led:00000000 led
C:\Users\katre\AppData\Local\Temp\cctdntp1.s:245    .rodata:00000000 $d
C:\Users\katre\AppData\Local\Temp\cctdntp1.s:263    .bss.led:00000000 $d

UNDEFINED SYMBOLS
_ZN8PalClockC1ERK11ClockConfig
_ZN8PalClock4initEv
_ZN3pal4GpioC1Ehh
_ZN3pal5Board4initEv
_ZN3pal4Gpio6configENS0_4ModeENS0_4PullENS0_5SpeedEh
_ZN3pal4Gpio5writeEb
_ZN3pal5Board5delayEm
