ARM GAS  C:\Users\katre\AppData\Local\Temp\ccTwTHcD.s 			page 1


   1              		.cpu cortex-m4
   2              		.arch armv7e-m
   3              		.fpu fpv4-sp-d16
   4              		.eabi_attribute 27, 1
   5              		.eabi_attribute 28, 1
   6              		.eabi_attribute 20, 1
   7              		.eabi_attribute 21, 1
   8              		.eabi_attribute 23, 3
   9              		.eabi_attribute 24, 1
  10              		.eabi_attribute 25, 1
  11              		.eabi_attribute 26, 1
  12              		.eabi_attribute 30, 1
  13              		.eabi_attribute 34, 1
  14              		.eabi_attribute 18, 4
  15              		.file	"pal_gpio.c"
  16              		.text
  17              	.Ltext0:
  18              		.cfi_sections	.debug_frame
  19              		.section	.text.gpio_clock_enable,"ax",%progbits
  20              		.align	1
  21              		.syntax unified
  22              		.thumb
  23              		.thumb_func
  25              	gpio_clock_enable:
  26              	.LVL0:
  27              	.LFB130:
  28              		.file 1 "PAL/Vendor/ST/Src/pal_gpio.c"
   1:PAL/Vendor/ST/Src/pal_gpio.c **** #include "pal_gpio.h"
   2:PAL/Vendor/ST/Src/pal_gpio.c **** #include "stm32f4xx_hal.h"  // This will be aliased by CubeIDE to the correct family header
   3:PAL/Vendor/ST/Src/pal_gpio.c **** 
   4:PAL/Vendor/ST/Src/pal_gpio.c **** /* Port mapping — works for any STM32 family */
   5:PAL/Vendor/ST/Src/pal_gpio.c **** static GPIO_TypeDef* port_table[] = {
   6:PAL/Vendor/ST/Src/pal_gpio.c ****     GPIOA, GPIOB, GPIOC, GPIOD,
   7:PAL/Vendor/ST/Src/pal_gpio.c **** #if defined(GPIOE)
   8:PAL/Vendor/ST/Src/pal_gpio.c ****     GPIOE,
   9:PAL/Vendor/ST/Src/pal_gpio.c **** #endif
  10:PAL/Vendor/ST/Src/pal_gpio.c **** #if defined(GPIOF)
  11:PAL/Vendor/ST/Src/pal_gpio.c ****     GPIOF,
  12:PAL/Vendor/ST/Src/pal_gpio.c **** #endif
  13:PAL/Vendor/ST/Src/pal_gpio.c **** #if defined(GPIOG)
  14:PAL/Vendor/ST/Src/pal_gpio.c ****     GPIOG,
  15:PAL/Vendor/ST/Src/pal_gpio.c **** #endif
  16:PAL/Vendor/ST/Src/pal_gpio.c **** #if defined(GPIOH)
  17:PAL/Vendor/ST/Src/pal_gpio.c ****     GPIOH,
  18:PAL/Vendor/ST/Src/pal_gpio.c **** #endif
  19:PAL/Vendor/ST/Src/pal_gpio.c **** #if defined(GPIOI)
  20:PAL/Vendor/ST/Src/pal_gpio.c ****     GPIOI,
  21:PAL/Vendor/ST/Src/pal_gpio.c **** #endif
  22:PAL/Vendor/ST/Src/pal_gpio.c **** #if defined(GPIOJ)
  23:PAL/Vendor/ST/Src/pal_gpio.c ****     GPIOJ,
  24:PAL/Vendor/ST/Src/pal_gpio.c **** #endif
  25:PAL/Vendor/ST/Src/pal_gpio.c **** #if defined(GPIOK)
  26:PAL/Vendor/ST/Src/pal_gpio.c ****     GPIOK,
  27:PAL/Vendor/ST/Src/pal_gpio.c **** #endif
  28:PAL/Vendor/ST/Src/pal_gpio.c **** };
  29:PAL/Vendor/ST/Src/pal_gpio.c **** 
  30:PAL/Vendor/ST/Src/pal_gpio.c **** /* Enable GPIO clock dynamically based on port index */
ARM GAS  C:\Users\katre\AppData\Local\Temp\ccTwTHcD.s 			page 2


  31:PAL/Vendor/ST/Src/pal_gpio.c **** static void gpio_clock_enable(uint8_t port_index)
  32:PAL/Vendor/ST/Src/pal_gpio.c **** {
  29              		.loc 1 32 1 view -0
  30              		.cfi_startproc
  31              		@ args = 0, pretend = 0, frame = 32
  32              		@ frame_needed = 0, uses_anonymous_args = 0
  33              		@ link register save eliminated.
  34              		.loc 1 32 1 is_stmt 0 view .LVU1
  35 0000 88B0     		sub	sp, sp, #32
  36              	.LCFI0:
  37              		.cfi_def_cfa_offset 32
  33:PAL/Vendor/ST/Src/pal_gpio.c ****     switch (port_index) {
  38              		.loc 1 33 5 is_stmt 1 view .LVU2
  39 0002 0728     		cmp	r0, #7
  40 0004 11D8     		bhi	.L1
  41 0006 DFE800F0 		tbb	[pc, r0]
  42              	.L4:
  43 000a 04       		.byte	(.L11-.L4)/2
  44 000b 12       		.byte	(.L10-.L4)/2
  45 000c 1F       		.byte	(.L9-.L4)/2
  46 000d 2C       		.byte	(.L8-.L4)/2
  47 000e 39       		.byte	(.L7-.L4)/2
  48 000f 46       		.byte	(.L6-.L4)/2
  49 0010 53       		.byte	(.L5-.L4)/2
  50 0011 60       		.byte	(.L3-.L4)/2
  51              		.p2align 1
  52              	.L11:
  34:PAL/Vendor/ST/Src/pal_gpio.c ****         case 0: __HAL_RCC_GPIOA_CLK_ENABLE(); break;
  53              		.loc 1 34 17 view .LVU3
  54              	.LBB2:
  55              		.loc 1 34 17 view .LVU4
  56 0012 0023     		movs	r3, #0
  57 0014 0093     		str	r3, [sp]
  58              		.loc 1 34 17 view .LVU5
  59 0016 334B     		ldr	r3, .L13
  60 0018 1A6B     		ldr	r2, [r3, #48]
  61 001a 42F00102 		orr	r2, r2, #1
  62 001e 1A63     		str	r2, [r3, #48]
  63              		.loc 1 34 17 view .LVU6
  64 0020 1B6B     		ldr	r3, [r3, #48]
  65 0022 03F00103 		and	r3, r3, #1
  66 0026 0093     		str	r3, [sp]
  67              		.loc 1 34 17 view .LVU7
  68 0028 009B     		ldr	r3, [sp]
  69              	.LBE2:
  70              		.loc 1 34 17 view .LVU8
  71              		.loc 1 34 47 view .LVU9
  72              	.L1:
  35:PAL/Vendor/ST/Src/pal_gpio.c ****         case 1: __HAL_RCC_GPIOB_CLK_ENABLE(); break;
  36:PAL/Vendor/ST/Src/pal_gpio.c ****         case 2: __HAL_RCC_GPIOC_CLK_ENABLE(); break;
  37:PAL/Vendor/ST/Src/pal_gpio.c ****         case 3: __HAL_RCC_GPIOD_CLK_ENABLE(); break;
  38:PAL/Vendor/ST/Src/pal_gpio.c **** #if defined(GPIOE)
  39:PAL/Vendor/ST/Src/pal_gpio.c ****         case 4: __HAL_RCC_GPIOE_CLK_ENABLE(); break;
  40:PAL/Vendor/ST/Src/pal_gpio.c **** #endif
  41:PAL/Vendor/ST/Src/pal_gpio.c **** #if defined(GPIOF)
  42:PAL/Vendor/ST/Src/pal_gpio.c ****         case 5: __HAL_RCC_GPIOF_CLK_ENABLE(); break;
  43:PAL/Vendor/ST/Src/pal_gpio.c **** #endif
ARM GAS  C:\Users\katre\AppData\Local\Temp\ccTwTHcD.s 			page 3


  44:PAL/Vendor/ST/Src/pal_gpio.c **** #if defined(GPIOG)
  45:PAL/Vendor/ST/Src/pal_gpio.c ****         case 6: __HAL_RCC_GPIOG_CLK_ENABLE(); break;
  46:PAL/Vendor/ST/Src/pal_gpio.c **** #endif
  47:PAL/Vendor/ST/Src/pal_gpio.c **** #if defined(GPIOH)
  48:PAL/Vendor/ST/Src/pal_gpio.c ****         case 7: __HAL_RCC_GPIOH_CLK_ENABLE(); break;
  49:PAL/Vendor/ST/Src/pal_gpio.c **** #endif
  50:PAL/Vendor/ST/Src/pal_gpio.c **** #if defined(GPIOI)
  51:PAL/Vendor/ST/Src/pal_gpio.c ****         case 8: __HAL_RCC_GPIOI_CLK_ENABLE(); break;
  52:PAL/Vendor/ST/Src/pal_gpio.c **** #endif
  53:PAL/Vendor/ST/Src/pal_gpio.c **** #if defined(GPIOJ)
  54:PAL/Vendor/ST/Src/pal_gpio.c ****         case 9: __HAL_RCC_GPIOJ_CLK_ENABLE(); break;
  55:PAL/Vendor/ST/Src/pal_gpio.c **** #endif
  56:PAL/Vendor/ST/Src/pal_gpio.c **** #if defined(GPIOK)
  57:PAL/Vendor/ST/Src/pal_gpio.c ****         case 10: __HAL_RCC_GPIOK_CLK_ENABLE(); break;
  58:PAL/Vendor/ST/Src/pal_gpio.c **** #endif
  59:PAL/Vendor/ST/Src/pal_gpio.c ****         default: break;
  60:PAL/Vendor/ST/Src/pal_gpio.c ****     }
  61:PAL/Vendor/ST/Src/pal_gpio.c **** }
  73              		.loc 1 61 1 is_stmt 0 view .LVU10
  74 002a 08B0     		add	sp, sp, #32
  75              	.LCFI1:
  76              		.cfi_remember_state
  77              		.cfi_def_cfa_offset 0
  78              		@ sp needed
  79 002c 7047     		bx	lr
  80              	.L10:
  81              	.LCFI2:
  82              		.cfi_restore_state
  35:PAL/Vendor/ST/Src/pal_gpio.c ****         case 1: __HAL_RCC_GPIOB_CLK_ENABLE(); break;
  83              		.loc 1 35 17 is_stmt 1 view .LVU11
  84              	.LBB3:
  35:PAL/Vendor/ST/Src/pal_gpio.c ****         case 1: __HAL_RCC_GPIOB_CLK_ENABLE(); break;
  85              		.loc 1 35 17 view .LVU12
  86 002e 0023     		movs	r3, #0
  87 0030 0193     		str	r3, [sp, #4]
  35:PAL/Vendor/ST/Src/pal_gpio.c ****         case 1: __HAL_RCC_GPIOB_CLK_ENABLE(); break;
  88              		.loc 1 35 17 view .LVU13
  89 0032 2C4B     		ldr	r3, .L13
  90 0034 1A6B     		ldr	r2, [r3, #48]
  91 0036 42F00202 		orr	r2, r2, #2
  92 003a 1A63     		str	r2, [r3, #48]
  35:PAL/Vendor/ST/Src/pal_gpio.c ****         case 1: __HAL_RCC_GPIOB_CLK_ENABLE(); break;
  93              		.loc 1 35 17 view .LVU14
  94 003c 1B6B     		ldr	r3, [r3, #48]
  95 003e 03F00203 		and	r3, r3, #2
  96 0042 0193     		str	r3, [sp, #4]
  35:PAL/Vendor/ST/Src/pal_gpio.c ****         case 1: __HAL_RCC_GPIOB_CLK_ENABLE(); break;
  97              		.loc 1 35 17 view .LVU15
  98 0044 019B     		ldr	r3, [sp, #4]
  99              	.LBE3:
  35:PAL/Vendor/ST/Src/pal_gpio.c ****         case 1: __HAL_RCC_GPIOB_CLK_ENABLE(); break;
 100              		.loc 1 35 17 view .LVU16
  35:PAL/Vendor/ST/Src/pal_gpio.c ****         case 1: __HAL_RCC_GPIOB_CLK_ENABLE(); break;
 101              		.loc 1 35 47 view .LVU17
  35:PAL/Vendor/ST/Src/pal_gpio.c ****         case 1: __HAL_RCC_GPIOB_CLK_ENABLE(); break;
 102              		.loc 1 35 9 is_stmt 0 view .LVU18
 103 0046 F0E7     		b	.L1
ARM GAS  C:\Users\katre\AppData\Local\Temp\ccTwTHcD.s 			page 4


 104              	.L9:
  36:PAL/Vendor/ST/Src/pal_gpio.c ****         case 3: __HAL_RCC_GPIOD_CLK_ENABLE(); break;
 105              		.loc 1 36 17 is_stmt 1 view .LVU19
 106              	.LBB4:
  36:PAL/Vendor/ST/Src/pal_gpio.c ****         case 3: __HAL_RCC_GPIOD_CLK_ENABLE(); break;
 107              		.loc 1 36 17 view .LVU20
 108 0048 0023     		movs	r3, #0
 109 004a 0293     		str	r3, [sp, #8]
  36:PAL/Vendor/ST/Src/pal_gpio.c ****         case 3: __HAL_RCC_GPIOD_CLK_ENABLE(); break;
 110              		.loc 1 36 17 view .LVU21
 111 004c 254B     		ldr	r3, .L13
 112 004e 1A6B     		ldr	r2, [r3, #48]
 113 0050 42F00402 		orr	r2, r2, #4
 114 0054 1A63     		str	r2, [r3, #48]
  36:PAL/Vendor/ST/Src/pal_gpio.c ****         case 3: __HAL_RCC_GPIOD_CLK_ENABLE(); break;
 115              		.loc 1 36 17 view .LVU22
 116 0056 1B6B     		ldr	r3, [r3, #48]
 117 0058 03F00403 		and	r3, r3, #4
 118 005c 0293     		str	r3, [sp, #8]
  36:PAL/Vendor/ST/Src/pal_gpio.c ****         case 3: __HAL_RCC_GPIOD_CLK_ENABLE(); break;
 119              		.loc 1 36 17 view .LVU23
 120 005e 029B     		ldr	r3, [sp, #8]
 121              	.LBE4:
  36:PAL/Vendor/ST/Src/pal_gpio.c ****         case 3: __HAL_RCC_GPIOD_CLK_ENABLE(); break;
 122              		.loc 1 36 17 view .LVU24
  36:PAL/Vendor/ST/Src/pal_gpio.c ****         case 3: __HAL_RCC_GPIOD_CLK_ENABLE(); break;
 123              		.loc 1 36 47 view .LVU25
  36:PAL/Vendor/ST/Src/pal_gpio.c ****         case 3: __HAL_RCC_GPIOD_CLK_ENABLE(); break;
 124              		.loc 1 36 9 is_stmt 0 view .LVU26
 125 0060 E3E7     		b	.L1
 126              	.L8:
  37:PAL/Vendor/ST/Src/pal_gpio.c **** #if defined(GPIOE)
 127              		.loc 1 37 17 is_stmt 1 view .LVU27
 128              	.LBB5:
  37:PAL/Vendor/ST/Src/pal_gpio.c **** #if defined(GPIOE)
 129              		.loc 1 37 17 view .LVU28
 130 0062 0023     		movs	r3, #0
 131 0064 0393     		str	r3, [sp, #12]
  37:PAL/Vendor/ST/Src/pal_gpio.c **** #if defined(GPIOE)
 132              		.loc 1 37 17 view .LVU29
 133 0066 1F4B     		ldr	r3, .L13
 134 0068 1A6B     		ldr	r2, [r3, #48]
 135 006a 42F00802 		orr	r2, r2, #8
 136 006e 1A63     		str	r2, [r3, #48]
  37:PAL/Vendor/ST/Src/pal_gpio.c **** #if defined(GPIOE)
 137              		.loc 1 37 17 view .LVU30
 138 0070 1B6B     		ldr	r3, [r3, #48]
 139 0072 03F00803 		and	r3, r3, #8
 140 0076 0393     		str	r3, [sp, #12]
  37:PAL/Vendor/ST/Src/pal_gpio.c **** #if defined(GPIOE)
 141              		.loc 1 37 17 view .LVU31
 142 0078 039B     		ldr	r3, [sp, #12]
 143              	.LBE5:
  37:PAL/Vendor/ST/Src/pal_gpio.c **** #if defined(GPIOE)
 144              		.loc 1 37 17 view .LVU32
  37:PAL/Vendor/ST/Src/pal_gpio.c **** #if defined(GPIOE)
 145              		.loc 1 37 47 view .LVU33
ARM GAS  C:\Users\katre\AppData\Local\Temp\ccTwTHcD.s 			page 5


  37:PAL/Vendor/ST/Src/pal_gpio.c **** #if defined(GPIOE)
 146              		.loc 1 37 9 is_stmt 0 view .LVU34
 147 007a D6E7     		b	.L1
 148              	.L7:
  39:PAL/Vendor/ST/Src/pal_gpio.c **** #endif
 149              		.loc 1 39 17 is_stmt 1 view .LVU35
 150              	.LBB6:
  39:PAL/Vendor/ST/Src/pal_gpio.c **** #endif
 151              		.loc 1 39 17 view .LVU36
 152 007c 0023     		movs	r3, #0
 153 007e 0493     		str	r3, [sp, #16]
  39:PAL/Vendor/ST/Src/pal_gpio.c **** #endif
 154              		.loc 1 39 17 view .LVU37
 155 0080 184B     		ldr	r3, .L13
 156 0082 1A6B     		ldr	r2, [r3, #48]
 157 0084 42F01002 		orr	r2, r2, #16
 158 0088 1A63     		str	r2, [r3, #48]
  39:PAL/Vendor/ST/Src/pal_gpio.c **** #endif
 159              		.loc 1 39 17 view .LVU38
 160 008a 1B6B     		ldr	r3, [r3, #48]
 161 008c 03F01003 		and	r3, r3, #16
 162 0090 0493     		str	r3, [sp, #16]
  39:PAL/Vendor/ST/Src/pal_gpio.c **** #endif
 163              		.loc 1 39 17 view .LVU39
 164 0092 049B     		ldr	r3, [sp, #16]
 165              	.LBE6:
  39:PAL/Vendor/ST/Src/pal_gpio.c **** #endif
 166              		.loc 1 39 17 view .LVU40
  39:PAL/Vendor/ST/Src/pal_gpio.c **** #endif
 167              		.loc 1 39 47 view .LVU41
  39:PAL/Vendor/ST/Src/pal_gpio.c **** #endif
 168              		.loc 1 39 9 is_stmt 0 view .LVU42
 169 0094 C9E7     		b	.L1
 170              	.L6:
  42:PAL/Vendor/ST/Src/pal_gpio.c **** #endif
 171              		.loc 1 42 17 is_stmt 1 view .LVU43
 172              	.LBB7:
  42:PAL/Vendor/ST/Src/pal_gpio.c **** #endif
 173              		.loc 1 42 17 view .LVU44
 174 0096 0023     		movs	r3, #0
 175 0098 0593     		str	r3, [sp, #20]
  42:PAL/Vendor/ST/Src/pal_gpio.c **** #endif
 176              		.loc 1 42 17 view .LVU45
 177 009a 124B     		ldr	r3, .L13
 178 009c 1A6B     		ldr	r2, [r3, #48]
 179 009e 42F02002 		orr	r2, r2, #32
 180 00a2 1A63     		str	r2, [r3, #48]
  42:PAL/Vendor/ST/Src/pal_gpio.c **** #endif
 181              		.loc 1 42 17 view .LVU46
 182 00a4 1B6B     		ldr	r3, [r3, #48]
 183 00a6 03F02003 		and	r3, r3, #32
 184 00aa 0593     		str	r3, [sp, #20]
  42:PAL/Vendor/ST/Src/pal_gpio.c **** #endif
 185              		.loc 1 42 17 view .LVU47
 186 00ac 059B     		ldr	r3, [sp, #20]
 187              	.LBE7:
  42:PAL/Vendor/ST/Src/pal_gpio.c **** #endif
ARM GAS  C:\Users\katre\AppData\Local\Temp\ccTwTHcD.s 			page 6


 188              		.loc 1 42 17 view .LVU48
  42:PAL/Vendor/ST/Src/pal_gpio.c **** #endif
 189              		.loc 1 42 47 view .LVU49
  42:PAL/Vendor/ST/Src/pal_gpio.c **** #endif
 190              		.loc 1 42 9 is_stmt 0 view .LVU50
 191 00ae BCE7     		b	.L1
 192              	.L5:
  45:PAL/Vendor/ST/Src/pal_gpio.c **** #endif
 193              		.loc 1 45 17 is_stmt 1 view .LVU51
 194              	.LBB8:
  45:PAL/Vendor/ST/Src/pal_gpio.c **** #endif
 195              		.loc 1 45 17 view .LVU52
 196 00b0 0023     		movs	r3, #0
 197 00b2 0693     		str	r3, [sp, #24]
  45:PAL/Vendor/ST/Src/pal_gpio.c **** #endif
 198              		.loc 1 45 17 view .LVU53
 199 00b4 0B4B     		ldr	r3, .L13
 200 00b6 1A6B     		ldr	r2, [r3, #48]
 201 00b8 42F04002 		orr	r2, r2, #64
 202 00bc 1A63     		str	r2, [r3, #48]
  45:PAL/Vendor/ST/Src/pal_gpio.c **** #endif
 203              		.loc 1 45 17 view .LVU54
 204 00be 1B6B     		ldr	r3, [r3, #48]
 205 00c0 03F04003 		and	r3, r3, #64
 206 00c4 0693     		str	r3, [sp, #24]
  45:PAL/Vendor/ST/Src/pal_gpio.c **** #endif
 207              		.loc 1 45 17 view .LVU55
 208 00c6 069B     		ldr	r3, [sp, #24]
 209              	.LBE8:
  45:PAL/Vendor/ST/Src/pal_gpio.c **** #endif
 210              		.loc 1 45 17 view .LVU56
  45:PAL/Vendor/ST/Src/pal_gpio.c **** #endif
 211              		.loc 1 45 47 view .LVU57
  45:PAL/Vendor/ST/Src/pal_gpio.c **** #endif
 212              		.loc 1 45 9 is_stmt 0 view .LVU58
 213 00c8 AFE7     		b	.L1
 214              	.L3:
  48:PAL/Vendor/ST/Src/pal_gpio.c **** #endif
 215              		.loc 1 48 17 is_stmt 1 view .LVU59
 216              	.LBB9:
  48:PAL/Vendor/ST/Src/pal_gpio.c **** #endif
 217              		.loc 1 48 17 view .LVU60
 218 00ca 0023     		movs	r3, #0
 219 00cc 0793     		str	r3, [sp, #28]
  48:PAL/Vendor/ST/Src/pal_gpio.c **** #endif
 220              		.loc 1 48 17 view .LVU61
 221 00ce 054B     		ldr	r3, .L13
 222 00d0 1A6B     		ldr	r2, [r3, #48]
 223 00d2 42F08002 		orr	r2, r2, #128
 224 00d6 1A63     		str	r2, [r3, #48]
  48:PAL/Vendor/ST/Src/pal_gpio.c **** #endif
 225              		.loc 1 48 17 view .LVU62
 226 00d8 1B6B     		ldr	r3, [r3, #48]
 227 00da 03F08003 		and	r3, r3, #128
 228 00de 0793     		str	r3, [sp, #28]
  48:PAL/Vendor/ST/Src/pal_gpio.c **** #endif
 229              		.loc 1 48 17 view .LVU63
ARM GAS  C:\Users\katre\AppData\Local\Temp\ccTwTHcD.s 			page 7


 230 00e0 079B     		ldr	r3, [sp, #28]
 231              	.LBE9:
  48:PAL/Vendor/ST/Src/pal_gpio.c **** #endif
 232              		.loc 1 48 17 view .LVU64
  48:PAL/Vendor/ST/Src/pal_gpio.c **** #endif
 233              		.loc 1 48 47 view .LVU65
 234              		.loc 1 61 1 is_stmt 0 view .LVU66
 235 00e2 A2E7     		b	.L1
 236              	.L14:
 237              		.align	2
 238              	.L13:
 239 00e4 00380240 		.word	1073887232
 240              		.cfi_endproc
 241              	.LFE130:
 243              		.section	.text.pal_gpio_config,"ax",%progbits
 244              		.align	1
 245              		.global	pal_gpio_config
 246              		.syntax unified
 247              		.thumb
 248              		.thumb_func
 250              	pal_gpio_config:
 251              	.LVL1:
 252              	.LFB131:
  62:PAL/Vendor/ST/Src/pal_gpio.c **** 
  63:PAL/Vendor/ST/Src/pal_gpio.c **** int pal_gpio_config(pal_gpio_t io,
  64:PAL/Vendor/ST/Src/pal_gpio.c ****                     pal_gpio_mode_t mode,
  65:PAL/Vendor/ST/Src/pal_gpio.c ****                     pal_gpio_pull_t pull,
  66:PAL/Vendor/ST/Src/pal_gpio.c ****                     pal_gpio_speed_t speed,
  67:PAL/Vendor/ST/Src/pal_gpio.c ****                     uint8_t af)
  68:PAL/Vendor/ST/Src/pal_gpio.c **** {
 253              		.loc 1 68 1 is_stmt 1 view -0
 254              		.cfi_startproc
 255              		@ args = 4, pretend = 0, frame = 32
 256              		@ frame_needed = 0, uses_anonymous_args = 0
 257              		.loc 1 68 1 is_stmt 0 view .LVU68
 258 0000 F0B5     		push	{r4, r5, r6, r7, lr}
 259              	.LCFI3:
 260              		.cfi_def_cfa_offset 20
 261              		.cfi_offset 4, -20
 262              		.cfi_offset 5, -16
 263              		.cfi_offset 6, -12
 264              		.cfi_offset 7, -8
 265              		.cfi_offset 14, -4
 266 0002 89B0     		sub	sp, sp, #36
 267              	.LCFI4:
 268              		.cfi_def_cfa_offset 56
 269 0004 ADF80400 		strh	r0, [sp, #4]	@ movhi
  69:PAL/Vendor/ST/Src/pal_gpio.c ****     if (io.port >= (sizeof(port_table) / sizeof(port_table[0]))) {
 270              		.loc 1 69 5 is_stmt 1 view .LVU69
 271              		.loc 1 69 11 is_stmt 0 view .LVU70
 272 0008 9DF80470 		ldrb	r7, [sp, #4]	@ zero_extendqisi2
 273              		.loc 1 69 8 view .LVU71
 274 000c 072F     		cmp	r7, #7
 275 000e 35D8     		bhi	.L25
 276 0010 0C46     		mov	r4, r1
 277 0012 1546     		mov	r5, r2
 278 0014 1E46     		mov	r6, r3
ARM GAS  C:\Users\katre\AppData\Local\Temp\ccTwTHcD.s 			page 8


  70:PAL/Vendor/ST/Src/pal_gpio.c ****         return -1; // Invalid port
  71:PAL/Vendor/ST/Src/pal_gpio.c ****     }
  72:PAL/Vendor/ST/Src/pal_gpio.c **** 
  73:PAL/Vendor/ST/Src/pal_gpio.c ****     gpio_clock_enable(io.port);
 279              		.loc 1 73 5 is_stmt 1 view .LVU72
 280 0016 3846     		mov	r0, r7
 281 0018 FFF7FEFF 		bl	gpio_clock_enable
 282              	.LVL2:
  74:PAL/Vendor/ST/Src/pal_gpio.c **** 
  75:PAL/Vendor/ST/Src/pal_gpio.c ****     GPIO_InitTypeDef cfg = {0};
 283              		.loc 1 75 5 view .LVU73
 284              		.loc 1 75 22 is_stmt 0 view .LVU74
 285 001c 0020     		movs	r0, #0
 286 001e 0390     		str	r0, [sp, #12]
 287 0020 0490     		str	r0, [sp, #16]
 288 0022 0590     		str	r0, [sp, #20]
 289 0024 0690     		str	r0, [sp, #24]
 290 0026 0790     		str	r0, [sp, #28]
  76:PAL/Vendor/ST/Src/pal_gpio.c ****     cfg.Pin = (1u << io.pin);
 291              		.loc 1 76 5 is_stmt 1 view .LVU75
 292              		.loc 1 76 24 is_stmt 0 view .LVU76
 293 0028 9DF80530 		ldrb	r3, [sp, #5]	@ zero_extendqisi2
 294              		.loc 1 76 19 view .LVU77
 295 002c 0122     		movs	r2, #1
 296 002e 9A40     		lsls	r2, r2, r3
 297              		.loc 1 76 13 view .LVU78
 298 0030 0392     		str	r2, [sp, #12]
  77:PAL/Vendor/ST/Src/pal_gpio.c **** 
  78:PAL/Vendor/ST/Src/pal_gpio.c ****     // Mode mapping
  79:PAL/Vendor/ST/Src/pal_gpio.c ****     switch (mode) {
 299              		.loc 1 79 5 is_stmt 1 view .LVU79
 300 0032 032C     		cmp	r4, #3
 301 0034 25D8     		bhi	.L26
 302 0036 DFE804F0 		tbb	[pc, r4]
 303              	.L18:
 304 003a 04       		.byte	(.L21-.L18)/2
 305 003b 02       		.byte	(.L20-.L18)/2
 306 003c 15       		.byte	(.L19-.L18)/2
 307 003d 18       		.byte	(.L17-.L18)/2
 308              		.p2align 1
 309              	.L20:
  80:PAL/Vendor/ST/Src/pal_gpio.c ****         case PAL_GPIO_OUTPUT: cfg.Mode = GPIO_MODE_OUTPUT_PP; break;
 310              		.loc 1 80 31 view .LVU80
 311              		.loc 1 80 40 is_stmt 0 view .LVU81
 312 003e 0123     		movs	r3, #1
 313 0040 0493     		str	r3, [sp, #16]
 314              		.loc 1 80 63 is_stmt 1 view .LVU82
 315              	.L21:
  81:PAL/Vendor/ST/Src/pal_gpio.c ****         case PAL_GPIO_INPUT:  cfg.Mode = GPIO_MODE_INPUT; break;
  82:PAL/Vendor/ST/Src/pal_gpio.c ****         case PAL_GPIO_AF:     cfg.Mode = GPIO_MODE_AF_PP; break;
  83:PAL/Vendor/ST/Src/pal_gpio.c ****         case PAL_GPIO_ANALOG: cfg.Mode = GPIO_MODE_ANALOG; break;
  84:PAL/Vendor/ST/Src/pal_gpio.c ****         default: return -1;
  85:PAL/Vendor/ST/Src/pal_gpio.c ****     }
  86:PAL/Vendor/ST/Src/pal_gpio.c **** 
  87:PAL/Vendor/ST/Src/pal_gpio.c ****     // Pull mapping
  88:PAL/Vendor/ST/Src/pal_gpio.c ****     switch (pull) {
 316              		.loc 1 88 5 view .LVU83
ARM GAS  C:\Users\katre\AppData\Local\Temp\ccTwTHcD.s 			page 9


 317 0042 012D     		cmp	r5, #1
 318 0044 14D0     		beq	.L22
 319 0046 022D     		cmp	r5, #2
 320 0048 15D0     		beq	.L23
 321              	.L24:
  89:PAL/Vendor/ST/Src/pal_gpio.c ****         case PAL_GPIO_NOPULL:  cfg.Pull = GPIO_NOPULL; break;
  90:PAL/Vendor/ST/Src/pal_gpio.c ****         case PAL_GPIO_PULLUP:  cfg.Pull = GPIO_PULLUP; break;
  91:PAL/Vendor/ST/Src/pal_gpio.c ****         case PAL_GPIO_PULLDOWN:cfg.Pull = GPIO_PULLDOWN; break;
  92:PAL/Vendor/ST/Src/pal_gpio.c ****         default: cfg.Pull = GPIO_NOPULL; break;
  93:PAL/Vendor/ST/Src/pal_gpio.c ****     }
  94:PAL/Vendor/ST/Src/pal_gpio.c **** 
  95:PAL/Vendor/ST/Src/pal_gpio.c ****     // Speed mapping — directly maps to HAL macros
  96:PAL/Vendor/ST/Src/pal_gpio.c ****     cfg.Speed = (uint32_t)speed;
 322              		.loc 1 96 5 view .LVU84
 323              		.loc 1 96 15 is_stmt 0 view .LVU85
 324 004a 0696     		str	r6, [sp, #24]
  97:PAL/Vendor/ST/Src/pal_gpio.c **** 
  98:PAL/Vendor/ST/Src/pal_gpio.c ****     // Alternate function number
  99:PAL/Vendor/ST/Src/pal_gpio.c ****     cfg.Alternate = af;
 325              		.loc 1 99 5 is_stmt 1 view .LVU86
 326              		.loc 1 99 19 is_stmt 0 view .LVU87
 327 004c 9DF83830 		ldrb	r3, [sp, #56]	@ zero_extendqisi2
 328 0050 0793     		str	r3, [sp, #28]
 100:PAL/Vendor/ST/Src/pal_gpio.c **** 
 101:PAL/Vendor/ST/Src/pal_gpio.c ****     HAL_GPIO_Init(port_table[io.port], &cfg);
 329              		.loc 1 101 5 is_stmt 1 view .LVU88
 330 0052 03A9     		add	r1, sp, #12
 331 0054 0C4B     		ldr	r3, .L28
 332 0056 53F82700 		ldr	r0, [r3, r7, lsl #2]
 333 005a FFF7FEFF 		bl	HAL_GPIO_Init
 334              	.LVL3:
 102:PAL/Vendor/ST/Src/pal_gpio.c ****     return 0;
 335              		.loc 1 102 5 view .LVU89
 336              		.loc 1 102 12 is_stmt 0 view .LVU90
 337 005e 0020     		movs	r0, #0
 338              	.L15:
 103:PAL/Vendor/ST/Src/pal_gpio.c **** }
 339              		.loc 1 103 1 view .LVU91
 340 0060 09B0     		add	sp, sp, #36
 341              	.LCFI5:
 342              		.cfi_remember_state
 343              		.cfi_def_cfa_offset 20
 344              		@ sp needed
 345 0062 F0BD     		pop	{r4, r5, r6, r7, pc}
 346              	.LVL4:
 347              	.L19:
 348              	.LCFI6:
 349              		.cfi_restore_state
  82:PAL/Vendor/ST/Src/pal_gpio.c ****         case PAL_GPIO_ANALOG: cfg.Mode = GPIO_MODE_ANALOG; break;
 350              		.loc 1 82 31 is_stmt 1 view .LVU92
  82:PAL/Vendor/ST/Src/pal_gpio.c ****         case PAL_GPIO_ANALOG: cfg.Mode = GPIO_MODE_ANALOG; break;
 351              		.loc 1 82 40 is_stmt 0 view .LVU93
 352 0064 0223     		movs	r3, #2
 353 0066 0493     		str	r3, [sp, #16]
  82:PAL/Vendor/ST/Src/pal_gpio.c ****         case PAL_GPIO_ANALOG: cfg.Mode = GPIO_MODE_ANALOG; break;
 354              		.loc 1 82 59 is_stmt 1 view .LVU94
  82:PAL/Vendor/ST/Src/pal_gpio.c ****         case PAL_GPIO_ANALOG: cfg.Mode = GPIO_MODE_ANALOG; break;
ARM GAS  C:\Users\katre\AppData\Local\Temp\ccTwTHcD.s 			page 10


 355              		.loc 1 82 9 is_stmt 0 view .LVU95
 356 0068 EBE7     		b	.L21
 357              	.L17:
  83:PAL/Vendor/ST/Src/pal_gpio.c ****         default: return -1;
 358              		.loc 1 83 31 is_stmt 1 view .LVU96
  83:PAL/Vendor/ST/Src/pal_gpio.c ****         default: return -1;
 359              		.loc 1 83 40 is_stmt 0 view .LVU97
 360 006a 0323     		movs	r3, #3
 361 006c 0493     		str	r3, [sp, #16]
  83:PAL/Vendor/ST/Src/pal_gpio.c ****         default: return -1;
 362              		.loc 1 83 60 is_stmt 1 view .LVU98
  83:PAL/Vendor/ST/Src/pal_gpio.c ****         default: return -1;
 363              		.loc 1 83 9 is_stmt 0 view .LVU99
 364 006e E8E7     		b	.L21
 365              	.L22:
  90:PAL/Vendor/ST/Src/pal_gpio.c ****         case PAL_GPIO_PULLDOWN:cfg.Pull = GPIO_PULLDOWN; break;
 366              		.loc 1 90 32 is_stmt 1 view .LVU100
  90:PAL/Vendor/ST/Src/pal_gpio.c ****         case PAL_GPIO_PULLDOWN:cfg.Pull = GPIO_PULLDOWN; break;
 367              		.loc 1 90 41 is_stmt 0 view .LVU101
 368 0070 0123     		movs	r3, #1
 369 0072 0593     		str	r3, [sp, #20]
  90:PAL/Vendor/ST/Src/pal_gpio.c ****         case PAL_GPIO_PULLDOWN:cfg.Pull = GPIO_PULLDOWN; break;
 370              		.loc 1 90 56 is_stmt 1 view .LVU102
  90:PAL/Vendor/ST/Src/pal_gpio.c ****         case PAL_GPIO_PULLDOWN:cfg.Pull = GPIO_PULLDOWN; break;
 371              		.loc 1 90 9 is_stmt 0 view .LVU103
 372 0074 E9E7     		b	.L24
 373              	.L23:
  91:PAL/Vendor/ST/Src/pal_gpio.c ****         default: cfg.Pull = GPIO_NOPULL; break;
 374              		.loc 1 91 32 is_stmt 1 view .LVU104
  91:PAL/Vendor/ST/Src/pal_gpio.c ****         default: cfg.Pull = GPIO_NOPULL; break;
 375              		.loc 1 91 41 is_stmt 0 view .LVU105
 376 0076 0223     		movs	r3, #2
 377 0078 0593     		str	r3, [sp, #20]
  91:PAL/Vendor/ST/Src/pal_gpio.c ****         default: cfg.Pull = GPIO_NOPULL; break;
 378              		.loc 1 91 58 is_stmt 1 view .LVU106
  91:PAL/Vendor/ST/Src/pal_gpio.c ****         default: cfg.Pull = GPIO_NOPULL; break;
 379              		.loc 1 91 9 is_stmt 0 view .LVU107
 380 007a E6E7     		b	.L24
 381              	.LVL5:
 382              	.L25:
  70:PAL/Vendor/ST/Src/pal_gpio.c ****     }
 383              		.loc 1 70 16 view .LVU108
 384 007c 4FF0FF30 		mov	r0, #-1
 385 0080 EEE7     		b	.L15
 386              	.LVL6:
 387              	.L26:
  79:PAL/Vendor/ST/Src/pal_gpio.c ****         case PAL_GPIO_OUTPUT: cfg.Mode = GPIO_MODE_OUTPUT_PP; break;
 388              		.loc 1 79 5 view .LVU109
 389 0082 4FF0FF30 		mov	r0, #-1
 390 0086 EBE7     		b	.L15
 391              	.L29:
 392              		.align	2
 393              	.L28:
 394 0088 00000000 		.word	.LANCHOR0
 395              		.cfi_endproc
 396              	.LFE131:
 398              		.section	.text.pal_gpio_write,"ax",%progbits
ARM GAS  C:\Users\katre\AppData\Local\Temp\ccTwTHcD.s 			page 11


 399              		.align	1
 400              		.global	pal_gpio_write
 401              		.syntax unified
 402              		.thumb
 403              		.thumb_func
 405              	pal_gpio_write:
 406              	.LVL7:
 407              	.LFB132:
 104:PAL/Vendor/ST/Src/pal_gpio.c **** 
 105:PAL/Vendor/ST/Src/pal_gpio.c **** int pal_gpio_write(pal_gpio_t io, int value)
 106:PAL/Vendor/ST/Src/pal_gpio.c **** {
 408              		.loc 1 106 1 is_stmt 1 view -0
 409              		.cfi_startproc
 410              		@ args = 0, pretend = 0, frame = 8
 411              		@ frame_needed = 0, uses_anonymous_args = 0
 412              		.loc 1 106 1 is_stmt 0 view .LVU111
 413 0000 00B5     		push	{lr}
 414              	.LCFI7:
 415              		.cfi_def_cfa_offset 4
 416              		.cfi_offset 14, -4
 417 0002 83B0     		sub	sp, sp, #12
 418              	.LCFI8:
 419              		.cfi_def_cfa_offset 16
 420 0004 ADF80400 		strh	r0, [sp, #4]	@ movhi
 107:PAL/Vendor/ST/Src/pal_gpio.c ****     if (io.port >= (sizeof(port_table) / sizeof(port_table[0]))) {
 421              		.loc 1 107 5 is_stmt 1 view .LVU112
 422              		.loc 1 107 11 is_stmt 0 view .LVU113
 423 0008 9DF80400 		ldrb	r0, [sp, #4]	@ zero_extendqisi2
 424              		.loc 1 107 8 view .LVU114
 425 000c 0728     		cmp	r0, #7
 426 000e 10D8     		bhi	.L32
 108:PAL/Vendor/ST/Src/pal_gpio.c ****         return -1;
 109:PAL/Vendor/ST/Src/pal_gpio.c ****     }
 110:PAL/Vendor/ST/Src/pal_gpio.c ****     HAL_GPIO_WritePin(port_table[io.port], (1u << io.pin),
 427              		.loc 1 110 5 is_stmt 1 view .LVU115
 428              		.loc 1 110 53 is_stmt 0 view .LVU116
 429 0010 9DF80520 		ldrb	r2, [sp, #5]	@ zero_extendqisi2
 430              		.loc 1 110 48 view .LVU117
 431 0014 0123     		movs	r3, #1
 432 0016 9340     		lsls	r3, r3, r2
 433              		.loc 1 110 5 view .LVU118
 434 0018 0A1E     		subs	r2, r1, #0
 435 001a 18BF     		it	ne
 436 001c 0122     		movne	r2, #1
 437 001e 99B2     		uxth	r1, r3
 438              	.LVL8:
 439              		.loc 1 110 5 view .LVU119
 440 0020 054B     		ldr	r3, .L34
 441 0022 53F82000 		ldr	r0, [r3, r0, lsl #2]
 442 0026 FFF7FEFF 		bl	HAL_GPIO_WritePin
 443              	.LVL9:
 111:PAL/Vendor/ST/Src/pal_gpio.c ****                       value ? GPIO_PIN_SET : GPIO_PIN_RESET);
 112:PAL/Vendor/ST/Src/pal_gpio.c ****     return 0;
 444              		.loc 1 112 5 is_stmt 1 view .LVU120
 445              		.loc 1 112 12 is_stmt 0 view .LVU121
 446 002a 0020     		movs	r0, #0
 447              	.L30:
ARM GAS  C:\Users\katre\AppData\Local\Temp\ccTwTHcD.s 			page 12


 113:PAL/Vendor/ST/Src/pal_gpio.c **** }
 448              		.loc 1 113 1 view .LVU122
 449 002c 03B0     		add	sp, sp, #12
 450              	.LCFI9:
 451              		.cfi_remember_state
 452              		.cfi_def_cfa_offset 4
 453              		@ sp needed
 454 002e 5DF804FB 		ldr	pc, [sp], #4
 455              	.LVL10:
 456              	.L32:
 457              	.LCFI10:
 458              		.cfi_restore_state
 108:PAL/Vendor/ST/Src/pal_gpio.c ****         return -1;
 459              		.loc 1 108 16 view .LVU123
 460 0032 4FF0FF30 		mov	r0, #-1
 461 0036 F9E7     		b	.L30
 462              	.L35:
 463              		.align	2
 464              	.L34:
 465 0038 00000000 		.word	.LANCHOR0
 466              		.cfi_endproc
 467              	.LFE132:
 469              		.section	.text.pal_gpio_read,"ax",%progbits
 470              		.align	1
 471              		.global	pal_gpio_read
 472              		.syntax unified
 473              		.thumb
 474              		.thumb_func
 476              	pal_gpio_read:
 477              	.LFB133:
 114:PAL/Vendor/ST/Src/pal_gpio.c **** 
 115:PAL/Vendor/ST/Src/pal_gpio.c **** int pal_gpio_read(pal_gpio_t io)
 116:PAL/Vendor/ST/Src/pal_gpio.c **** {
 478              		.loc 1 116 1 is_stmt 1 view -0
 479              		.cfi_startproc
 480              		@ args = 0, pretend = 0, frame = 8
 481              		@ frame_needed = 0, uses_anonymous_args = 0
 482 0000 00B5     		push	{lr}
 483              	.LCFI11:
 484              		.cfi_def_cfa_offset 4
 485              		.cfi_offset 14, -4
 486 0002 83B0     		sub	sp, sp, #12
 487              	.LCFI12:
 488              		.cfi_def_cfa_offset 16
 489 0004 ADF80400 		strh	r0, [sp, #4]	@ movhi
 117:PAL/Vendor/ST/Src/pal_gpio.c ****     if (io.port >= (sizeof(port_table) / sizeof(port_table[0]))) {
 490              		.loc 1 117 5 view .LVU125
 491              		.loc 1 117 11 is_stmt 0 view .LVU126
 492 0008 9DF80430 		ldrb	r3, [sp, #4]	@ zero_extendqisi2
 493              		.loc 1 117 8 view .LVU127
 494 000c 072B     		cmp	r3, #7
 495 000e 04D9     		bls	.L40
 118:PAL/Vendor/ST/Src/pal_gpio.c ****         return -1;
 496              		.loc 1 118 16 view .LVU128
 497 0010 4FF0FF30 		mov	r0, #-1
 498              	.L36:
 119:PAL/Vendor/ST/Src/pal_gpio.c ****     }
ARM GAS  C:\Users\katre\AppData\Local\Temp\ccTwTHcD.s 			page 13


 120:PAL/Vendor/ST/Src/pal_gpio.c ****     return (HAL_GPIO_ReadPin(port_table[io.port], (1u << io.pin)) == GPIO_PIN_SET) ? 1 : 0;
 121:PAL/Vendor/ST/Src/pal_gpio.c **** }
 499              		.loc 1 121 1 view .LVU129
 500 0014 03B0     		add	sp, sp, #12
 501              	.LCFI13:
 502              		.cfi_remember_state
 503              		.cfi_def_cfa_offset 4
 504              		@ sp needed
 505 0016 5DF804FB 		ldr	pc, [sp], #4
 506              	.L40:
 507              	.LCFI14:
 508              		.cfi_restore_state
 120:PAL/Vendor/ST/Src/pal_gpio.c **** }
 509              		.loc 1 120 5 is_stmt 1 view .LVU130
 120:PAL/Vendor/ST/Src/pal_gpio.c **** }
 510              		.loc 1 120 60 is_stmt 0 view .LVU131
 511 001a 9DF80520 		ldrb	r2, [sp, #5]	@ zero_extendqisi2
 120:PAL/Vendor/ST/Src/pal_gpio.c **** }
 512              		.loc 1 120 55 view .LVU132
 513 001e 0121     		movs	r1, #1
 514 0020 9140     		lsls	r1, r1, r2
 120:PAL/Vendor/ST/Src/pal_gpio.c **** }
 515              		.loc 1 120 13 view .LVU133
 516 0022 89B2     		uxth	r1, r1
 517 0024 044A     		ldr	r2, .L41
 518 0026 52F82300 		ldr	r0, [r2, r3, lsl #2]
 519 002a FFF7FEFF 		bl	HAL_GPIO_ReadPin
 520              	.LVL11:
 120:PAL/Vendor/ST/Src/pal_gpio.c **** }
 521              		.loc 1 120 88 view .LVU134
 522 002e 0128     		cmp	r0, #1
 523 0030 14BF     		ite	ne
 524 0032 0020     		movne	r0, #0
 525 0034 0120     		moveq	r0, #1
 526 0036 EDE7     		b	.L36
 527              	.L42:
 528              		.align	2
 529              	.L41:
 530 0038 00000000 		.word	.LANCHOR0
 531              		.cfi_endproc
 532              	.LFE133:
 534              		.section	.rodata.port_table,"a"
 535              		.align	2
 536              		.set	.LANCHOR0,. + 0
 539              	port_table:
 540 0000 00000240 		.word	1073872896
 541 0004 00040240 		.word	1073873920
 542 0008 00080240 		.word	1073874944
 543 000c 000C0240 		.word	1073875968
 544 0010 00100240 		.word	1073876992
 545 0014 00140240 		.word	1073878016
 546 0018 00180240 		.word	1073879040
 547 001c 001C0240 		.word	1073880064
 548              		.text
 549              	.Letext0:
 550              		.file 2 "c:\\program files (x86)\\gnu arm embedded toolchain\\10 2021.10\\arm-none-eabi\\include\\
 551              		.file 3 "c:\\program files (x86)\\gnu arm embedded toolchain\\10 2021.10\\arm-none-eabi\\include\\
ARM GAS  C:\Users\katre\AppData\Local\Temp\ccTwTHcD.s 			page 14


 552              		.file 4 "PAL/Vendor/common/Inc/pal_gpio.h"
 553              		.file 5 "CMSIS/Vendor_Device/ST/STM32F4xx/Include/stm32f446xx.h"
 554              		.file 6 "Vendor_HAL/ST/STM32F4xx_HAL_Driver/Inc/stm32f4xx_hal_gpio.h"
ARM GAS  C:\Users\katre\AppData\Local\Temp\ccTwTHcD.s 			page 15


DEFINED SYMBOLS
                            *ABS*:00000000 pal_gpio.c
C:\Users\katre\AppData\Local\Temp\ccTwTHcD.s:20     .text.gpio_clock_enable:00000000 $t
C:\Users\katre\AppData\Local\Temp\ccTwTHcD.s:25     .text.gpio_clock_enable:00000000 gpio_clock_enable
C:\Users\katre\AppData\Local\Temp\ccTwTHcD.s:43     .text.gpio_clock_enable:0000000a $d
C:\Users\katre\AppData\Local\Temp\ccTwTHcD.s:51     .text.gpio_clock_enable:00000012 $t
C:\Users\katre\AppData\Local\Temp\ccTwTHcD.s:239    .text.gpio_clock_enable:000000e4 $d
C:\Users\katre\AppData\Local\Temp\ccTwTHcD.s:244    .text.pal_gpio_config:00000000 $t
C:\Users\katre\AppData\Local\Temp\ccTwTHcD.s:250    .text.pal_gpio_config:00000000 pal_gpio_config
C:\Users\katre\AppData\Local\Temp\ccTwTHcD.s:304    .text.pal_gpio_config:0000003a $d
C:\Users\katre\AppData\Local\Temp\ccTwTHcD.s:308    .text.pal_gpio_config:0000003e $t
C:\Users\katre\AppData\Local\Temp\ccTwTHcD.s:394    .text.pal_gpio_config:00000088 $d
C:\Users\katre\AppData\Local\Temp\ccTwTHcD.s:399    .text.pal_gpio_write:00000000 $t
C:\Users\katre\AppData\Local\Temp\ccTwTHcD.s:405    .text.pal_gpio_write:00000000 pal_gpio_write
C:\Users\katre\AppData\Local\Temp\ccTwTHcD.s:465    .text.pal_gpio_write:00000038 $d
C:\Users\katre\AppData\Local\Temp\ccTwTHcD.s:470    .text.pal_gpio_read:00000000 $t
C:\Users\katre\AppData\Local\Temp\ccTwTHcD.s:476    .text.pal_gpio_read:00000000 pal_gpio_read
C:\Users\katre\AppData\Local\Temp\ccTwTHcD.s:530    .text.pal_gpio_read:00000038 $d
C:\Users\katre\AppData\Local\Temp\ccTwTHcD.s:535    .rodata.port_table:00000000 $d
C:\Users\katre\AppData\Local\Temp\ccTwTHcD.s:539    .rodata.port_table:00000000 port_table

UNDEFINED SYMBOLS
HAL_GPIO_Init
HAL_GPIO_WritePin
HAL_GPIO_ReadPin
