ARM GAS  C:\Users\katre\AppData\Local\Temp\cc7URf2n.s 			page 1


   1              		.cpu cortex-m4
   2              		.arch armv7e-m
   3              		.fpu fpv4-sp-d16
   4              		.eabi_attribute 27, 1
   5              		.eabi_attribute 28, 1
   6              		.eabi_attribute 20, 1
   7              		.eabi_attribute 21, 1
   8              		.eabi_attribute 23, 3
   9              		.eabi_attribute 24, 1
  10              		.eabi_attribute 25, 1
  11              		.eabi_attribute 26, 1
  12              		.eabi_attribute 30, 1
  13              		.eabi_attribute 34, 1
  14              		.eabi_attribute 18, 4
  15              		.file	"pal_board.cpp"
  16              		.text
  17              	.Ltext0:
  18              		.cfi_sections	.debug_frame
  19              		.section	.text._ZN3pal5Board4initEv,"ax",%progbits
  20              		.align	1
  21              		.global	_ZN3pal5Board4initEv
  22              		.syntax unified
  23              		.thumb
  24              		.thumb_func
  26              	_ZN3pal5Board4initEv:
  27              	.LFB130:
  28              		.file 1 "PAL/Vendor/ST/Src/pal_board.cpp"
   1:PAL/Vendor/ST/Src/pal_board.cpp **** #include "pal_board.hpp"
   2:PAL/Vendor/ST/Src/pal_board.cpp **** 
   3:PAL/Vendor/ST/Src/pal_board.cpp **** namespace pal {
   4:PAL/Vendor/ST/Src/pal_board.cpp **** 
   5:PAL/Vendor/ST/Src/pal_board.cpp **** void Board::init() {
  29              		.loc 1 5 20 view -0
  30              		.cfi_startproc
  31              		@ args = 0, pretend = 0, frame = 0
  32              		@ frame_needed = 0, uses_anonymous_args = 0
  33 0000 08B5     		push	{r3, lr}
  34              	.LCFI0:
  35              		.cfi_def_cfa_offset 8
  36              		.cfi_offset 3, -8
  37              		.cfi_offset 14, -4
   6:PAL/Vendor/ST/Src/pal_board.cpp ****     // Reset all peripherals, init Flash interface & SysTick
   7:PAL/Vendor/ST/Src/pal_board.cpp ****     HAL_Init();
  38              		.loc 1 7 5 view .LVU1
  39              		.loc 1 7 13 is_stmt 0 view .LVU2
  40 0002 FFF7FEFF 		bl	HAL_Init
  41              	.LVL0:
   8:PAL/Vendor/ST/Src/pal_board.cpp **** }
  42              		.loc 1 8 1 view .LVU3
  43 0006 08BD     		pop	{r3, pc}
  44              		.cfi_endproc
  45              	.LFE130:
  47              		.section	.text._ZN3pal5Board7mspInitEv,"ax",%progbits
  48              		.align	1
  49              		.global	_ZN3pal5Board7mspInitEv
  50              		.syntax unified
  51              		.thumb
ARM GAS  C:\Users\katre\AppData\Local\Temp\cc7URf2n.s 			page 2


  52              		.thumb_func
  54              	_ZN3pal5Board7mspInitEv:
  55              	.LFB131:
   9:PAL/Vendor/ST/Src/pal_board.cpp **** 
  10:PAL/Vendor/ST/Src/pal_board.cpp **** void Board::mspInit() {
  56              		.loc 1 10 23 is_stmt 1 view -0
  57              		.cfi_startproc
  58              		@ args = 0, pretend = 0, frame = 0
  59              		@ frame_needed = 0, uses_anonymous_args = 0
  60 0000 08B5     		push	{r3, lr}
  61              	.LCFI1:
  62              		.cfi_def_cfa_offset 8
  63              		.cfi_offset 3, -8
  64              		.cfi_offset 14, -4
  11:PAL/Vendor/ST/Src/pal_board.cpp ****     HAL_MspInit();
  65              		.loc 1 11 5 view .LVU5
  66              		.loc 1 11 16 is_stmt 0 view .LVU6
  67 0002 FFF7FEFF 		bl	HAL_MspInit
  68              	.LVL1:
  12:PAL/Vendor/ST/Src/pal_board.cpp **** }
  69              		.loc 1 12 1 view .LVU7
  70 0006 08BD     		pop	{r3, pc}
  71              		.cfi_endproc
  72              	.LFE131:
  74              		.section	.text._ZN3pal5Board5delayEm,"ax",%progbits
  75              		.align	1
  76              		.global	_ZN3pal5Board5delayEm
  77              		.syntax unified
  78              		.thumb
  79              		.thumb_func
  81              	_ZN3pal5Board5delayEm:
  82              	.LVL2:
  83              	.LFB132:
  13:PAL/Vendor/ST/Src/pal_board.cpp **** 
  14:PAL/Vendor/ST/Src/pal_board.cpp **** void Board::delay(uint32_t delayMs) {
  84              		.loc 1 14 37 is_stmt 1 view -0
  85              		.cfi_startproc
  86              		@ args = 0, pretend = 0, frame = 0
  87              		@ frame_needed = 0, uses_anonymous_args = 0
  88              		.loc 1 14 37 is_stmt 0 view .LVU9
  89 0000 08B5     		push	{r3, lr}
  90              	.LCFI2:
  91              		.cfi_def_cfa_offset 8
  92              		.cfi_offset 3, -8
  93              		.cfi_offset 14, -4
  15:PAL/Vendor/ST/Src/pal_board.cpp ****     HAL_Delay(delayMs);
  94              		.loc 1 15 5 is_stmt 1 view .LVU10
  95              		.loc 1 15 14 is_stmt 0 view .LVU11
  96 0002 FFF7FEFF 		bl	HAL_Delay
  97              	.LVL3:
  16:PAL/Vendor/ST/Src/pal_board.cpp **** }
  98              		.loc 1 16 1 view .LVU12
  99 0006 08BD     		pop	{r3, pc}
 100              		.cfi_endproc
 101              	.LFE132:
 103              		.section	.text._ZN3pal5Board12errorHandlerEv,"ax",%progbits
 104              		.align	1
ARM GAS  C:\Users\katre\AppData\Local\Temp\cc7URf2n.s 			page 3


 105              		.global	_ZN3pal5Board12errorHandlerEv
 106              		.syntax unified
 107              		.thumb
 108              		.thumb_func
 110              	_ZN3pal5Board12errorHandlerEv:
 111              	.LFB133:
  17:PAL/Vendor/ST/Src/pal_board.cpp **** 
  18:PAL/Vendor/ST/Src/pal_board.cpp **** void Board::errorHandler() {
 112              		.loc 1 18 28 is_stmt 1 view -0
 113              		.cfi_startproc
 114              		@ Volatile: function does not return.
 115              		@ args = 0, pretend = 0, frame = 0
 116              		@ frame_needed = 0, uses_anonymous_args = 0
 117              		@ link register save eliminated.
  19:PAL/Vendor/ST/Src/pal_board.cpp ****     __disable_irq();
 118              		.loc 1 19 5 view .LVU14
 119              	.LBB4:
 120              	.LBI4:
 121              		.file 2 "CMSIS/Core/Include/cmsis_gcc.h"
   1:CMSIS/Core/Include/cmsis_gcc.h **** /**************************************************************************//**
   2:CMSIS/Core/Include/cmsis_gcc.h ****  * @file     cmsis_gcc.h
   3:CMSIS/Core/Include/cmsis_gcc.h ****  * @brief    CMSIS compiler GCC header file
   4:CMSIS/Core/Include/cmsis_gcc.h ****  * @version  V5.0.4
   5:CMSIS/Core/Include/cmsis_gcc.h ****  * @date     09. April 2018
   6:CMSIS/Core/Include/cmsis_gcc.h ****  ******************************************************************************/
   7:CMSIS/Core/Include/cmsis_gcc.h **** /*
   8:CMSIS/Core/Include/cmsis_gcc.h ****  * Copyright (c) 2009-2018 Arm Limited. All rights reserved.
   9:CMSIS/Core/Include/cmsis_gcc.h ****  *
  10:CMSIS/Core/Include/cmsis_gcc.h ****  * SPDX-License-Identifier: Apache-2.0
  11:CMSIS/Core/Include/cmsis_gcc.h ****  *
  12:CMSIS/Core/Include/cmsis_gcc.h ****  * Licensed under the Apache License, Version 2.0 (the License); you may
  13:CMSIS/Core/Include/cmsis_gcc.h ****  * not use this file except in compliance with the License.
  14:CMSIS/Core/Include/cmsis_gcc.h ****  * You may obtain a copy of the License at
  15:CMSIS/Core/Include/cmsis_gcc.h ****  *
  16:CMSIS/Core/Include/cmsis_gcc.h ****  * www.apache.org/licenses/LICENSE-2.0
  17:CMSIS/Core/Include/cmsis_gcc.h ****  *
  18:CMSIS/Core/Include/cmsis_gcc.h ****  * Unless required by applicable law or agreed to in writing, software
  19:CMSIS/Core/Include/cmsis_gcc.h ****  * distributed under the License is distributed on an AS IS BASIS, WITHOUT
  20:CMSIS/Core/Include/cmsis_gcc.h ****  * WARRANTIES OR CONDITIONS OF ANY KIND, either express or implied.
  21:CMSIS/Core/Include/cmsis_gcc.h ****  * See the License for the specific language governing permissions and
  22:CMSIS/Core/Include/cmsis_gcc.h ****  * limitations under the License.
  23:CMSIS/Core/Include/cmsis_gcc.h ****  */
  24:CMSIS/Core/Include/cmsis_gcc.h **** 
  25:CMSIS/Core/Include/cmsis_gcc.h **** #ifndef __CMSIS_GCC_H
  26:CMSIS/Core/Include/cmsis_gcc.h **** #define __CMSIS_GCC_H
  27:CMSIS/Core/Include/cmsis_gcc.h **** 
  28:CMSIS/Core/Include/cmsis_gcc.h **** /* ignore some GCC warnings */
  29:CMSIS/Core/Include/cmsis_gcc.h **** #pragma GCC diagnostic push
  30:CMSIS/Core/Include/cmsis_gcc.h **** #pragma GCC diagnostic ignored "-Wsign-conversion"
  31:CMSIS/Core/Include/cmsis_gcc.h **** #pragma GCC diagnostic ignored "-Wconversion"
  32:CMSIS/Core/Include/cmsis_gcc.h **** #pragma GCC diagnostic ignored "-Wunused-parameter"
  33:CMSIS/Core/Include/cmsis_gcc.h **** 
  34:CMSIS/Core/Include/cmsis_gcc.h **** /* Fallback for __has_builtin */
  35:CMSIS/Core/Include/cmsis_gcc.h **** #ifndef __has_builtin
  36:CMSIS/Core/Include/cmsis_gcc.h ****   #define __has_builtin(x) (0)
  37:CMSIS/Core/Include/cmsis_gcc.h **** #endif
  38:CMSIS/Core/Include/cmsis_gcc.h **** 
ARM GAS  C:\Users\katre\AppData\Local\Temp\cc7URf2n.s 			page 4


  39:CMSIS/Core/Include/cmsis_gcc.h **** /* CMSIS compiler specific defines */
  40:CMSIS/Core/Include/cmsis_gcc.h **** #ifndef   __ASM
  41:CMSIS/Core/Include/cmsis_gcc.h ****   #define __ASM                                  __asm
  42:CMSIS/Core/Include/cmsis_gcc.h **** #endif
  43:CMSIS/Core/Include/cmsis_gcc.h **** #ifndef   __INLINE
  44:CMSIS/Core/Include/cmsis_gcc.h ****   #define __INLINE                               inline
  45:CMSIS/Core/Include/cmsis_gcc.h **** #endif
  46:CMSIS/Core/Include/cmsis_gcc.h **** #ifndef   __STATIC_INLINE
  47:CMSIS/Core/Include/cmsis_gcc.h ****   #define __STATIC_INLINE                        static inline
  48:CMSIS/Core/Include/cmsis_gcc.h **** #endif
  49:CMSIS/Core/Include/cmsis_gcc.h **** #ifndef   __STATIC_FORCEINLINE                 
  50:CMSIS/Core/Include/cmsis_gcc.h ****   #define __STATIC_FORCEINLINE                   __attribute__((always_inline)) static inline
  51:CMSIS/Core/Include/cmsis_gcc.h **** #endif                                           
  52:CMSIS/Core/Include/cmsis_gcc.h **** #ifndef   __NO_RETURN
  53:CMSIS/Core/Include/cmsis_gcc.h ****   #define __NO_RETURN                            __attribute__((__noreturn__))
  54:CMSIS/Core/Include/cmsis_gcc.h **** #endif
  55:CMSIS/Core/Include/cmsis_gcc.h **** #ifndef   __USED
  56:CMSIS/Core/Include/cmsis_gcc.h ****   #define __USED                                 __attribute__((used))
  57:CMSIS/Core/Include/cmsis_gcc.h **** #endif
  58:CMSIS/Core/Include/cmsis_gcc.h **** #ifndef   __WEAK
  59:CMSIS/Core/Include/cmsis_gcc.h ****   #define __WEAK                                 __attribute__((weak))
  60:CMSIS/Core/Include/cmsis_gcc.h **** #endif
  61:CMSIS/Core/Include/cmsis_gcc.h **** #ifndef   __PACKED
  62:CMSIS/Core/Include/cmsis_gcc.h ****   #define __PACKED                               __attribute__((packed, aligned(1)))
  63:CMSIS/Core/Include/cmsis_gcc.h **** #endif
  64:CMSIS/Core/Include/cmsis_gcc.h **** #ifndef   __PACKED_STRUCT
  65:CMSIS/Core/Include/cmsis_gcc.h ****   #define __PACKED_STRUCT                        struct __attribute__((packed, aligned(1)))
  66:CMSIS/Core/Include/cmsis_gcc.h **** #endif
  67:CMSIS/Core/Include/cmsis_gcc.h **** #ifndef   __PACKED_UNION
  68:CMSIS/Core/Include/cmsis_gcc.h ****   #define __PACKED_UNION                         union __attribute__((packed, aligned(1)))
  69:CMSIS/Core/Include/cmsis_gcc.h **** #endif
  70:CMSIS/Core/Include/cmsis_gcc.h **** #ifndef   __UNALIGNED_UINT32        /* deprecated */
  71:CMSIS/Core/Include/cmsis_gcc.h ****   #pragma GCC diagnostic push
  72:CMSIS/Core/Include/cmsis_gcc.h ****   #pragma GCC diagnostic ignored "-Wpacked"
  73:CMSIS/Core/Include/cmsis_gcc.h ****   #pragma GCC diagnostic ignored "-Wattributes"
  74:CMSIS/Core/Include/cmsis_gcc.h ****   struct __attribute__((packed)) T_UINT32 { uint32_t v; };
  75:CMSIS/Core/Include/cmsis_gcc.h ****   #pragma GCC diagnostic pop
  76:CMSIS/Core/Include/cmsis_gcc.h ****   #define __UNALIGNED_UINT32(x)                  (((struct T_UINT32 *)(x))->v)
  77:CMSIS/Core/Include/cmsis_gcc.h **** #endif
  78:CMSIS/Core/Include/cmsis_gcc.h **** #ifndef   __UNALIGNED_UINT16_WRITE
  79:CMSIS/Core/Include/cmsis_gcc.h ****   #pragma GCC diagnostic push
  80:CMSIS/Core/Include/cmsis_gcc.h ****   #pragma GCC diagnostic ignored "-Wpacked"
  81:CMSIS/Core/Include/cmsis_gcc.h ****   #pragma GCC diagnostic ignored "-Wattributes"
  82:CMSIS/Core/Include/cmsis_gcc.h ****   __PACKED_STRUCT T_UINT16_WRITE { uint16_t v; };
  83:CMSIS/Core/Include/cmsis_gcc.h ****   #pragma GCC diagnostic pop
  84:CMSIS/Core/Include/cmsis_gcc.h ****   #define __UNALIGNED_UINT16_WRITE(addr, val)    (void)((((struct T_UINT16_WRITE *)(void *)(addr))-
  85:CMSIS/Core/Include/cmsis_gcc.h **** #endif
  86:CMSIS/Core/Include/cmsis_gcc.h **** #ifndef   __UNALIGNED_UINT16_READ
  87:CMSIS/Core/Include/cmsis_gcc.h ****   #pragma GCC diagnostic push
  88:CMSIS/Core/Include/cmsis_gcc.h ****   #pragma GCC diagnostic ignored "-Wpacked"
  89:CMSIS/Core/Include/cmsis_gcc.h ****   #pragma GCC diagnostic ignored "-Wattributes"
  90:CMSIS/Core/Include/cmsis_gcc.h ****   __PACKED_STRUCT T_UINT16_READ { uint16_t v; };
  91:CMSIS/Core/Include/cmsis_gcc.h ****   #pragma GCC diagnostic pop
  92:CMSIS/Core/Include/cmsis_gcc.h ****   #define __UNALIGNED_UINT16_READ(addr)          (((const struct T_UINT16_READ *)(const void *)(add
  93:CMSIS/Core/Include/cmsis_gcc.h **** #endif
  94:CMSIS/Core/Include/cmsis_gcc.h **** #ifndef   __UNALIGNED_UINT32_WRITE
  95:CMSIS/Core/Include/cmsis_gcc.h ****   #pragma GCC diagnostic push
ARM GAS  C:\Users\katre\AppData\Local\Temp\cc7URf2n.s 			page 5


  96:CMSIS/Core/Include/cmsis_gcc.h ****   #pragma GCC diagnostic ignored "-Wpacked"
  97:CMSIS/Core/Include/cmsis_gcc.h ****   #pragma GCC diagnostic ignored "-Wattributes"
  98:CMSIS/Core/Include/cmsis_gcc.h ****   __PACKED_STRUCT T_UINT32_WRITE { uint32_t v; };
  99:CMSIS/Core/Include/cmsis_gcc.h ****   #pragma GCC diagnostic pop
 100:CMSIS/Core/Include/cmsis_gcc.h ****   #define __UNALIGNED_UINT32_WRITE(addr, val)    (void)((((struct T_UINT32_WRITE *)(void *)(addr))-
 101:CMSIS/Core/Include/cmsis_gcc.h **** #endif
 102:CMSIS/Core/Include/cmsis_gcc.h **** #ifndef   __UNALIGNED_UINT32_READ
 103:CMSIS/Core/Include/cmsis_gcc.h ****   #pragma GCC diagnostic push
 104:CMSIS/Core/Include/cmsis_gcc.h ****   #pragma GCC diagnostic ignored "-Wpacked"
 105:CMSIS/Core/Include/cmsis_gcc.h ****   #pragma GCC diagnostic ignored "-Wattributes"
 106:CMSIS/Core/Include/cmsis_gcc.h ****   __PACKED_STRUCT T_UINT32_READ { uint32_t v; };
 107:CMSIS/Core/Include/cmsis_gcc.h ****   #pragma GCC diagnostic pop
 108:CMSIS/Core/Include/cmsis_gcc.h ****   #define __UNALIGNED_UINT32_READ(addr)          (((const struct T_UINT32_READ *)(const void *)(add
 109:CMSIS/Core/Include/cmsis_gcc.h **** #endif
 110:CMSIS/Core/Include/cmsis_gcc.h **** #ifndef   __ALIGNED
 111:CMSIS/Core/Include/cmsis_gcc.h ****   #define __ALIGNED(x)                           __attribute__((aligned(x)))
 112:CMSIS/Core/Include/cmsis_gcc.h **** #endif
 113:CMSIS/Core/Include/cmsis_gcc.h **** #ifndef   __RESTRICT
 114:CMSIS/Core/Include/cmsis_gcc.h ****   #define __RESTRICT                             __restrict
 115:CMSIS/Core/Include/cmsis_gcc.h **** #endif
 116:CMSIS/Core/Include/cmsis_gcc.h **** 
 117:CMSIS/Core/Include/cmsis_gcc.h **** 
 118:CMSIS/Core/Include/cmsis_gcc.h **** /* ###########################  Core Function Access  ########################### */
 119:CMSIS/Core/Include/cmsis_gcc.h **** /** \ingroup  CMSIS_Core_FunctionInterface
 120:CMSIS/Core/Include/cmsis_gcc.h ****     \defgroup CMSIS_Core_RegAccFunctions CMSIS Core Register Access Functions
 121:CMSIS/Core/Include/cmsis_gcc.h ****   @{
 122:CMSIS/Core/Include/cmsis_gcc.h ****  */
 123:CMSIS/Core/Include/cmsis_gcc.h **** 
 124:CMSIS/Core/Include/cmsis_gcc.h **** /**
 125:CMSIS/Core/Include/cmsis_gcc.h ****   \brief   Enable IRQ Interrupts
 126:CMSIS/Core/Include/cmsis_gcc.h ****   \details Enables IRQ interrupts by clearing the I-bit in the CPSR.
 127:CMSIS/Core/Include/cmsis_gcc.h ****            Can only be executed in Privileged modes.
 128:CMSIS/Core/Include/cmsis_gcc.h ****  */
 129:CMSIS/Core/Include/cmsis_gcc.h **** __STATIC_FORCEINLINE void __enable_irq(void)
 130:CMSIS/Core/Include/cmsis_gcc.h **** {
 131:CMSIS/Core/Include/cmsis_gcc.h ****   __ASM volatile ("cpsie i" : : : "memory");
 132:CMSIS/Core/Include/cmsis_gcc.h **** }
 133:CMSIS/Core/Include/cmsis_gcc.h **** 
 134:CMSIS/Core/Include/cmsis_gcc.h **** 
 135:CMSIS/Core/Include/cmsis_gcc.h **** /**
 136:CMSIS/Core/Include/cmsis_gcc.h ****   \brief   Disable IRQ Interrupts
 137:CMSIS/Core/Include/cmsis_gcc.h ****   \details Disables IRQ interrupts by setting the I-bit in the CPSR.
 138:CMSIS/Core/Include/cmsis_gcc.h ****            Can only be executed in Privileged modes.
 139:CMSIS/Core/Include/cmsis_gcc.h ****  */
 140:CMSIS/Core/Include/cmsis_gcc.h **** __STATIC_FORCEINLINE void __disable_irq(void)
 122              		.loc 2 140 27 view .LVU15
 123              	.LBB5:
 141:CMSIS/Core/Include/cmsis_gcc.h **** {
 142:CMSIS/Core/Include/cmsis_gcc.h ****   __ASM volatile ("cpsid i" : : : "memory");
 124              		.loc 2 142 3 view .LVU16
 125              		.syntax unified
 126              	@ 142 "CMSIS/Core/Include/cmsis_gcc.h" 1
 127 0000 72B6     		cpsid i
 128              	@ 0 "" 2
 129              		.thumb
 130              		.syntax unified
 131              	.L8:
ARM GAS  C:\Users\katre\AppData\Local\Temp\cc7URf2n.s 			page 6


 132              	.LBE5:
 133              	.LBE4:
  20:PAL/Vendor/ST/Src/pal_board.cpp ****     while (true) {
 134              		.loc 1 20 5 discriminator 1 view .LVU17
 135              		.loc 1 20 5 discriminator 1 view .LVU18
 136 0002 FEE7     		b	.L8
 137              		.cfi_endproc
 138              	.LFE133:
 140              		.section	.text.assert_failed,"ax",%progbits
 141              		.align	1
 142              		.global	assert_failed
 143              		.syntax unified
 144              		.thumb
 145              		.thumb_func
 147              	assert_failed:
 148              	.LFB134:
  21:PAL/Vendor/ST/Src/pal_board.cpp ****         // Optionally add debug trap or LED blink here
  22:PAL/Vendor/ST/Src/pal_board.cpp ****     }
  23:PAL/Vendor/ST/Src/pal_board.cpp **** }
  24:PAL/Vendor/ST/Src/pal_board.cpp **** 
  25:PAL/Vendor/ST/Src/pal_board.cpp **** } // namespace pal
  26:PAL/Vendor/ST/Src/pal_board.cpp **** 
  27:PAL/Vendor/ST/Src/pal_board.cpp **** // Optional: assert_failed equivalent for debugging
  28:PAL/Vendor/ST/Src/pal_board.cpp **** #ifdef USE_FULL_ASSERT
  29:PAL/Vendor/ST/Src/pal_board.cpp **** extern "C" void assert_failed(uint8_t* file, uint32_t line) {
 149              		.loc 1 29 61 view -0
 150              		.cfi_startproc
 151              		@ Volatile: function does not return.
 152              		@ args = 0, pretend = 0, frame = 0
 153              		@ frame_needed = 0, uses_anonymous_args = 0
 154              		@ link register save eliminated.
 155              	.LVL4:
 156              	.L10:
  30:PAL/Vendor/ST/Src/pal_board.cpp ****     // User can add logging here
  31:PAL/Vendor/ST/Src/pal_board.cpp ****     (void)file;
 157              		.loc 1 31 5 discriminator 1 view .LVU20
  32:PAL/Vendor/ST/Src/pal_board.cpp ****     (void)line;
 158              		.loc 1 32 5 discriminator 1 view .LVU21
  33:PAL/Vendor/ST/Src/pal_board.cpp ****     while (true) {}
 159              		.loc 1 33 5 discriminator 1 view .LVU22
 160              		.loc 1 33 5 discriminator 1 view .LVU23
 161 0000 FEE7     		b	.L10
 162              		.cfi_endproc
 163              	.LFE134:
 165              		.text
 166              	.Letext0:
 167              		.file 3 "c:\\program files (x86)\\gnu arm embedded toolchain\\10 2021.10\\arm-none-eabi\\include\\
 168              		.file 4 "c:\\program files (x86)\\gnu arm embedded toolchain\\10 2021.10\\arm-none-eabi\\include\\
 169              		.file 5 "c:\\program files (x86)\\gnu arm embedded toolchain\\10 2021.10\\arm-none-eabi\\include\\
 170              		.file 6 "c:\\program files (x86)\\gnu arm embedded toolchain\\10 2021.10\\arm-none-eabi\\include\\
 171              		.file 7 "c:\\program files (x86)\\gnu arm embedded toolchain\\10 2021.10\\arm-none-eabi\\include\\
 172              		.file 8 "PAL/Vendor/common/Inc/pal_board.hpp"
 173              		.file 9 "Vendor_HAL/ST/STM32F4xx_HAL_Driver/Inc/stm32f4xx_hal.h"
 174              		.file 10 "<built-in>"
ARM GAS  C:\Users\katre\AppData\Local\Temp\cc7URf2n.s 			page 7

