ARM GAS  C:\Users\katre\AppData\Local\Temp\cci94Cm4.s 			page 1


   1              		.cpu cortex-m4
   2              		.arch armv7e-m
   3              		.fpu fpv4-sp-d16
   4              		.eabi_attribute 27, 1
   5              		.eabi_attribute 28, 1
   6              		.eabi_attribute 20, 1
   7              		.eabi_attribute 21, 1
   8              		.eabi_attribute 23, 3
   9              		.eabi_attribute 24, 1
  10              		.eabi_attribute 25, 1
  11              		.eabi_attribute 26, 1
  12              		.eabi_attribute 30, 1
  13              		.eabi_attribute 34, 1
  14              		.eabi_attribute 18, 4
  15              		.file	"pal_gpio.cpp"
  16              		.text
  17              	.Ltext0:
  18              		.cfi_sections	.debug_frame
  19              		.section	.text._ZN3palL15gpioClockEnableEh,"ax",%progbits
  20              		.align	1
  21              		.syntax unified
  22              		.thumb
  23              		.thumb_func
  25              	_ZN3palL15gpioClockEnableEh:
  26              	.LVL0:
  27              	.LFB130:
  28              		.file 1 "PAL/Vendor/ST/Src/pal_gpio.cpp"
   1:PAL/Vendor/ST/Src/pal_gpio.cpp **** #include "pal_gpio.hpp"
   2:PAL/Vendor/ST/Src/pal_gpio.cpp **** #include "stm32f4xx_hal.h"
   3:PAL/Vendor/ST/Src/pal_gpio.cpp **** 
   4:PAL/Vendor/ST/Src/pal_gpio.cpp **** namespace pal
   5:PAL/Vendor/ST/Src/pal_gpio.cpp **** {
   6:PAL/Vendor/ST/Src/pal_gpio.cpp **** 
   7:PAL/Vendor/ST/Src/pal_gpio.cpp **** // This table maps port indexes (0 = A, 1 = B, ...) to GPIO_TypeDef*
   8:PAL/Vendor/ST/Src/pal_gpio.cpp **** static GPIO_TypeDef* portTable[] = {
   9:PAL/Vendor/ST/Src/pal_gpio.cpp ****     GPIOA, GPIOB, GPIOC, GPIOD, GPIOE, GPIOF, GPIOG, GPIOH
  10:PAL/Vendor/ST/Src/pal_gpio.cpp **** };
  11:PAL/Vendor/ST/Src/pal_gpio.cpp **** 
  12:PAL/Vendor/ST/Src/pal_gpio.cpp **** // Enable clock for a given GPIO port index
  13:PAL/Vendor/ST/Src/pal_gpio.cpp **** static void gpioClockEnable(uint8_t portIndex)
  14:PAL/Vendor/ST/Src/pal_gpio.cpp **** {
  29              		.loc 1 14 1 view -0
  30              		.cfi_startproc
  31              		@ args = 0, pretend = 0, frame = 32
  32              		@ frame_needed = 0, uses_anonymous_args = 0
  33              		@ link register save eliminated.
  34              		.loc 1 14 1 is_stmt 0 view .LVU1
  35 0000 88B0     		sub	sp, sp, #32
  36              	.LCFI0:
  37              		.cfi_def_cfa_offset 32
  15:PAL/Vendor/ST/Src/pal_gpio.cpp ****     switch (portIndex)
  38              		.loc 1 15 5 is_stmt 1 view .LVU2
  39              	.LBB2:
  40 0002 0728     		cmp	r0, #7
  41 0004 11D8     		bhi	.L1
  42 0006 DFE800F0 		tbb	[pc, r0]
  43              	.L4:
ARM GAS  C:\Users\katre\AppData\Local\Temp\cci94Cm4.s 			page 2


  44 000a 04       		.byte	(.L11-.L4)/2
  45 000b 12       		.byte	(.L10-.L4)/2
  46 000c 1F       		.byte	(.L9-.L4)/2
  47 000d 2C       		.byte	(.L8-.L4)/2
  48 000e 39       		.byte	(.L7-.L4)/2
  49 000f 46       		.byte	(.L6-.L4)/2
  50 0010 53       		.byte	(.L5-.L4)/2
  51 0011 60       		.byte	(.L3-.L4)/2
  52              		.p2align 1
  53              	.L11:
  54              	.LBB3:
  16:PAL/Vendor/ST/Src/pal_gpio.cpp ****     {
  17:PAL/Vendor/ST/Src/pal_gpio.cpp ****         case 0: __HAL_RCC_GPIOA_CLK_ENABLE(); break;
  55              		.loc 1 17 9 view .LVU3
  56              		.loc 1 17 17 view .LVU4
  57              	.LBB4:
  58              		.loc 1 17 17 view .LVU5
  59 0012 0023     		movs	r3, #0
  60 0014 0093     		str	r3, [sp]
  61              		.loc 1 17 17 view .LVU6
  62 0016 334B     		ldr	r3, .L13
  63 0018 1A6B     		ldr	r2, [r3, #48]
  64 001a 42F00102 		orr	r2, r2, #1
  65 001e 1A63     		str	r2, [r3, #48]
  66              		.loc 1 17 17 view .LVU7
  67 0020 1B6B     		ldr	r3, [r3, #48]
  68 0022 03F00103 		and	r3, r3, #1
  69 0026 0093     		str	r3, [sp]
  70              		.loc 1 17 17 view .LVU8
  71 0028 009B     		ldr	r3, [sp]
  72              	.LBE4:
  73              		.loc 1 17 47 view .LVU9
  74              	.L1:
  75              	.LBE3:
  76              	.LBE2:
  18:PAL/Vendor/ST/Src/pal_gpio.cpp ****         case 1: __HAL_RCC_GPIOB_CLK_ENABLE(); break;
  19:PAL/Vendor/ST/Src/pal_gpio.cpp ****         case 2: __HAL_RCC_GPIOC_CLK_ENABLE(); break;
  20:PAL/Vendor/ST/Src/pal_gpio.cpp ****         case 3: __HAL_RCC_GPIOD_CLK_ENABLE(); break;
  21:PAL/Vendor/ST/Src/pal_gpio.cpp ****         case 4: __HAL_RCC_GPIOE_CLK_ENABLE(); break;
  22:PAL/Vendor/ST/Src/pal_gpio.cpp ****         case 5: __HAL_RCC_GPIOF_CLK_ENABLE(); break;
  23:PAL/Vendor/ST/Src/pal_gpio.cpp ****         case 6: __HAL_RCC_GPIOG_CLK_ENABLE(); break;
  24:PAL/Vendor/ST/Src/pal_gpio.cpp ****         case 7: __HAL_RCC_GPIOH_CLK_ENABLE(); break;
  25:PAL/Vendor/ST/Src/pal_gpio.cpp ****         default: break;
  26:PAL/Vendor/ST/Src/pal_gpio.cpp ****     }
  27:PAL/Vendor/ST/Src/pal_gpio.cpp **** }
  77              		.loc 1 27 1 is_stmt 0 view .LVU10
  78 002a 08B0     		add	sp, sp, #32
  79              	.LCFI1:
  80              		.cfi_remember_state
  81              		.cfi_def_cfa_offset 0
  82              		@ sp needed
  83 002c 7047     		bx	lr
  84              	.L10:
  85              	.LCFI2:
  86              		.cfi_restore_state
  87              	.LBB13:
  88              	.LBB12:
ARM GAS  C:\Users\katre\AppData\Local\Temp\cci94Cm4.s 			page 3


  18:PAL/Vendor/ST/Src/pal_gpio.cpp ****         case 1: __HAL_RCC_GPIOB_CLK_ENABLE(); break;
  89              		.loc 1 18 9 is_stmt 1 view .LVU11
  18:PAL/Vendor/ST/Src/pal_gpio.cpp ****         case 1: __HAL_RCC_GPIOB_CLK_ENABLE(); break;
  90              		.loc 1 18 17 view .LVU12
  91              	.LBB5:
  18:PAL/Vendor/ST/Src/pal_gpio.cpp ****         case 1: __HAL_RCC_GPIOB_CLK_ENABLE(); break;
  92              		.loc 1 18 17 view .LVU13
  93 002e 0023     		movs	r3, #0
  94 0030 0193     		str	r3, [sp, #4]
  18:PAL/Vendor/ST/Src/pal_gpio.cpp ****         case 1: __HAL_RCC_GPIOB_CLK_ENABLE(); break;
  95              		.loc 1 18 17 view .LVU14
  96 0032 2C4B     		ldr	r3, .L13
  97 0034 1A6B     		ldr	r2, [r3, #48]
  98 0036 42F00202 		orr	r2, r2, #2
  99 003a 1A63     		str	r2, [r3, #48]
  18:PAL/Vendor/ST/Src/pal_gpio.cpp ****         case 1: __HAL_RCC_GPIOB_CLK_ENABLE(); break;
 100              		.loc 1 18 17 view .LVU15
 101 003c 1B6B     		ldr	r3, [r3, #48]
 102 003e 03F00203 		and	r3, r3, #2
 103 0042 0193     		str	r3, [sp, #4]
  18:PAL/Vendor/ST/Src/pal_gpio.cpp ****         case 1: __HAL_RCC_GPIOB_CLK_ENABLE(); break;
 104              		.loc 1 18 17 view .LVU16
 105 0044 019B     		ldr	r3, [sp, #4]
 106              	.LBE5:
  18:PAL/Vendor/ST/Src/pal_gpio.cpp ****         case 1: __HAL_RCC_GPIOB_CLK_ENABLE(); break;
 107              		.loc 1 18 47 view .LVU17
 108 0046 F0E7     		b	.L1
 109              	.L9:
  19:PAL/Vendor/ST/Src/pal_gpio.cpp ****         case 3: __HAL_RCC_GPIOD_CLK_ENABLE(); break;
 110              		.loc 1 19 9 view .LVU18
  19:PAL/Vendor/ST/Src/pal_gpio.cpp ****         case 3: __HAL_RCC_GPIOD_CLK_ENABLE(); break;
 111              		.loc 1 19 17 view .LVU19
 112              	.LBB6:
  19:PAL/Vendor/ST/Src/pal_gpio.cpp ****         case 3: __HAL_RCC_GPIOD_CLK_ENABLE(); break;
 113              		.loc 1 19 17 view .LVU20
 114 0048 0023     		movs	r3, #0
 115 004a 0293     		str	r3, [sp, #8]
  19:PAL/Vendor/ST/Src/pal_gpio.cpp ****         case 3: __HAL_RCC_GPIOD_CLK_ENABLE(); break;
 116              		.loc 1 19 17 view .LVU21
 117 004c 254B     		ldr	r3, .L13
 118 004e 1A6B     		ldr	r2, [r3, #48]
 119 0050 42F00402 		orr	r2, r2, #4
 120 0054 1A63     		str	r2, [r3, #48]
  19:PAL/Vendor/ST/Src/pal_gpio.cpp ****         case 3: __HAL_RCC_GPIOD_CLK_ENABLE(); break;
 121              		.loc 1 19 17 view .LVU22
 122 0056 1B6B     		ldr	r3, [r3, #48]
 123 0058 03F00403 		and	r3, r3, #4
 124 005c 0293     		str	r3, [sp, #8]
  19:PAL/Vendor/ST/Src/pal_gpio.cpp ****         case 3: __HAL_RCC_GPIOD_CLK_ENABLE(); break;
 125              		.loc 1 19 17 view .LVU23
 126 005e 029B     		ldr	r3, [sp, #8]
 127              	.LBE6:
  19:PAL/Vendor/ST/Src/pal_gpio.cpp ****         case 3: __HAL_RCC_GPIOD_CLK_ENABLE(); break;
 128              		.loc 1 19 47 view .LVU24
 129 0060 E3E7     		b	.L1
 130              	.L8:
  20:PAL/Vendor/ST/Src/pal_gpio.cpp ****         case 4: __HAL_RCC_GPIOE_CLK_ENABLE(); break;
ARM GAS  C:\Users\katre\AppData\Local\Temp\cci94Cm4.s 			page 4


 131              		.loc 1 20 9 view .LVU25
  20:PAL/Vendor/ST/Src/pal_gpio.cpp ****         case 4: __HAL_RCC_GPIOE_CLK_ENABLE(); break;
 132              		.loc 1 20 17 view .LVU26
 133              	.LBB7:
  20:PAL/Vendor/ST/Src/pal_gpio.cpp ****         case 4: __HAL_RCC_GPIOE_CLK_ENABLE(); break;
 134              		.loc 1 20 17 view .LVU27
 135 0062 0023     		movs	r3, #0
 136 0064 0393     		str	r3, [sp, #12]
  20:PAL/Vendor/ST/Src/pal_gpio.cpp ****         case 4: __HAL_RCC_GPIOE_CLK_ENABLE(); break;
 137              		.loc 1 20 17 view .LVU28
 138 0066 1F4B     		ldr	r3, .L13
 139 0068 1A6B     		ldr	r2, [r3, #48]
 140 006a 42F00802 		orr	r2, r2, #8
 141 006e 1A63     		str	r2, [r3, #48]
  20:PAL/Vendor/ST/Src/pal_gpio.cpp ****         case 4: __HAL_RCC_GPIOE_CLK_ENABLE(); break;
 142              		.loc 1 20 17 view .LVU29
 143 0070 1B6B     		ldr	r3, [r3, #48]
 144 0072 03F00803 		and	r3, r3, #8
 145 0076 0393     		str	r3, [sp, #12]
  20:PAL/Vendor/ST/Src/pal_gpio.cpp ****         case 4: __HAL_RCC_GPIOE_CLK_ENABLE(); break;
 146              		.loc 1 20 17 view .LVU30
 147 0078 039B     		ldr	r3, [sp, #12]
 148              	.LBE7:
  20:PAL/Vendor/ST/Src/pal_gpio.cpp ****         case 4: __HAL_RCC_GPIOE_CLK_ENABLE(); break;
 149              		.loc 1 20 47 view .LVU31
 150 007a D6E7     		b	.L1
 151              	.L7:
  21:PAL/Vendor/ST/Src/pal_gpio.cpp ****         case 5: __HAL_RCC_GPIOF_CLK_ENABLE(); break;
 152              		.loc 1 21 9 view .LVU32
  21:PAL/Vendor/ST/Src/pal_gpio.cpp ****         case 5: __HAL_RCC_GPIOF_CLK_ENABLE(); break;
 153              		.loc 1 21 17 view .LVU33
 154              	.LBB8:
  21:PAL/Vendor/ST/Src/pal_gpio.cpp ****         case 5: __HAL_RCC_GPIOF_CLK_ENABLE(); break;
 155              		.loc 1 21 17 view .LVU34
 156 007c 0023     		movs	r3, #0
 157 007e 0493     		str	r3, [sp, #16]
  21:PAL/Vendor/ST/Src/pal_gpio.cpp ****         case 5: __HAL_RCC_GPIOF_CLK_ENABLE(); break;
 158              		.loc 1 21 17 view .LVU35
 159 0080 184B     		ldr	r3, .L13
 160 0082 1A6B     		ldr	r2, [r3, #48]
 161 0084 42F01002 		orr	r2, r2, #16
 162 0088 1A63     		str	r2, [r3, #48]
  21:PAL/Vendor/ST/Src/pal_gpio.cpp ****         case 5: __HAL_RCC_GPIOF_CLK_ENABLE(); break;
 163              		.loc 1 21 17 view .LVU36
 164 008a 1B6B     		ldr	r3, [r3, #48]
 165 008c 03F01003 		and	r3, r3, #16
 166 0090 0493     		str	r3, [sp, #16]
  21:PAL/Vendor/ST/Src/pal_gpio.cpp ****         case 5: __HAL_RCC_GPIOF_CLK_ENABLE(); break;
 167              		.loc 1 21 17 view .LVU37
 168 0092 049B     		ldr	r3, [sp, #16]
 169              	.LBE8:
  21:PAL/Vendor/ST/Src/pal_gpio.cpp ****         case 5: __HAL_RCC_GPIOF_CLK_ENABLE(); break;
 170              		.loc 1 21 47 view .LVU38
 171 0094 C9E7     		b	.L1
 172              	.L6:
  22:PAL/Vendor/ST/Src/pal_gpio.cpp ****         case 6: __HAL_RCC_GPIOG_CLK_ENABLE(); break;
 173              		.loc 1 22 9 view .LVU39
ARM GAS  C:\Users\katre\AppData\Local\Temp\cci94Cm4.s 			page 5


  22:PAL/Vendor/ST/Src/pal_gpio.cpp ****         case 6: __HAL_RCC_GPIOG_CLK_ENABLE(); break;
 174              		.loc 1 22 17 view .LVU40
 175              	.LBB9:
  22:PAL/Vendor/ST/Src/pal_gpio.cpp ****         case 6: __HAL_RCC_GPIOG_CLK_ENABLE(); break;
 176              		.loc 1 22 17 view .LVU41
 177 0096 0023     		movs	r3, #0
 178 0098 0593     		str	r3, [sp, #20]
  22:PAL/Vendor/ST/Src/pal_gpio.cpp ****         case 6: __HAL_RCC_GPIOG_CLK_ENABLE(); break;
 179              		.loc 1 22 17 view .LVU42
 180 009a 124B     		ldr	r3, .L13
 181 009c 1A6B     		ldr	r2, [r3, #48]
 182 009e 42F02002 		orr	r2, r2, #32
 183 00a2 1A63     		str	r2, [r3, #48]
  22:PAL/Vendor/ST/Src/pal_gpio.cpp ****         case 6: __HAL_RCC_GPIOG_CLK_ENABLE(); break;
 184              		.loc 1 22 17 view .LVU43
 185 00a4 1B6B     		ldr	r3, [r3, #48]
 186 00a6 03F02003 		and	r3, r3, #32
 187 00aa 0593     		str	r3, [sp, #20]
  22:PAL/Vendor/ST/Src/pal_gpio.cpp ****         case 6: __HAL_RCC_GPIOG_CLK_ENABLE(); break;
 188              		.loc 1 22 17 view .LVU44
 189 00ac 059B     		ldr	r3, [sp, #20]
 190              	.LBE9:
  22:PAL/Vendor/ST/Src/pal_gpio.cpp ****         case 6: __HAL_RCC_GPIOG_CLK_ENABLE(); break;
 191              		.loc 1 22 47 view .LVU45
 192 00ae BCE7     		b	.L1
 193              	.L5:
  23:PAL/Vendor/ST/Src/pal_gpio.cpp ****         case 7: __HAL_RCC_GPIOH_CLK_ENABLE(); break;
 194              		.loc 1 23 9 view .LVU46
  23:PAL/Vendor/ST/Src/pal_gpio.cpp ****         case 7: __HAL_RCC_GPIOH_CLK_ENABLE(); break;
 195              		.loc 1 23 17 view .LVU47
 196              	.LBB10:
  23:PAL/Vendor/ST/Src/pal_gpio.cpp ****         case 7: __HAL_RCC_GPIOH_CLK_ENABLE(); break;
 197              		.loc 1 23 17 view .LVU48
 198 00b0 0023     		movs	r3, #0
 199 00b2 0693     		str	r3, [sp, #24]
  23:PAL/Vendor/ST/Src/pal_gpio.cpp ****         case 7: __HAL_RCC_GPIOH_CLK_ENABLE(); break;
 200              		.loc 1 23 17 view .LVU49
 201 00b4 0B4B     		ldr	r3, .L13
 202 00b6 1A6B     		ldr	r2, [r3, #48]
 203 00b8 42F04002 		orr	r2, r2, #64
 204 00bc 1A63     		str	r2, [r3, #48]
  23:PAL/Vendor/ST/Src/pal_gpio.cpp ****         case 7: __HAL_RCC_GPIOH_CLK_ENABLE(); break;
 205              		.loc 1 23 17 view .LVU50
 206 00be 1B6B     		ldr	r3, [r3, #48]
 207 00c0 03F04003 		and	r3, r3, #64
 208 00c4 0693     		str	r3, [sp, #24]
  23:PAL/Vendor/ST/Src/pal_gpio.cpp ****         case 7: __HAL_RCC_GPIOH_CLK_ENABLE(); break;
 209              		.loc 1 23 17 view .LVU51
 210 00c6 069B     		ldr	r3, [sp, #24]
 211              	.LBE10:
  23:PAL/Vendor/ST/Src/pal_gpio.cpp ****         case 7: __HAL_RCC_GPIOH_CLK_ENABLE(); break;
 212              		.loc 1 23 47 view .LVU52
 213 00c8 AFE7     		b	.L1
 214              	.L3:
  24:PAL/Vendor/ST/Src/pal_gpio.cpp ****         default: break;
 215              		.loc 1 24 9 view .LVU53
  24:PAL/Vendor/ST/Src/pal_gpio.cpp ****         default: break;
ARM GAS  C:\Users\katre\AppData\Local\Temp\cci94Cm4.s 			page 6


 216              		.loc 1 24 17 view .LVU54
 217              	.LBB11:
  24:PAL/Vendor/ST/Src/pal_gpio.cpp ****         default: break;
 218              		.loc 1 24 17 view .LVU55
 219 00ca 0023     		movs	r3, #0
 220 00cc 0793     		str	r3, [sp, #28]
  24:PAL/Vendor/ST/Src/pal_gpio.cpp ****         default: break;
 221              		.loc 1 24 17 view .LVU56
 222 00ce 054B     		ldr	r3, .L13
 223 00d0 1A6B     		ldr	r2, [r3, #48]
 224 00d2 42F08002 		orr	r2, r2, #128
 225 00d6 1A63     		str	r2, [r3, #48]
  24:PAL/Vendor/ST/Src/pal_gpio.cpp ****         default: break;
 226              		.loc 1 24 17 view .LVU57
 227 00d8 1B6B     		ldr	r3, [r3, #48]
 228 00da 03F08003 		and	r3, r3, #128
 229 00de 0793     		str	r3, [sp, #28]
  24:PAL/Vendor/ST/Src/pal_gpio.cpp ****         default: break;
 230              		.loc 1 24 17 view .LVU58
 231 00e0 079B     		ldr	r3, [sp, #28]
 232              	.LBE11:
  24:PAL/Vendor/ST/Src/pal_gpio.cpp ****         default: break;
 233              		.loc 1 24 47 view .LVU59
 234              	.LBE12:
 235              	.LBE13:
 236              		.loc 1 27 1 is_stmt 0 view .LVU60
 237 00e2 A2E7     		b	.L1
 238              	.L14:
 239              		.align	2
 240              	.L13:
 241 00e4 00380240 		.word	1073887232
 242              		.cfi_endproc
 243              	.LFE130:
 245              		.section	.text._ZN3pal4GpioC2Ehh,"ax",%progbits
 246              		.align	1
 247              		.global	_ZN3pal4GpioC2Ehh
 248              		.syntax unified
 249              		.thumb
 250              		.thumb_func
 252              	_ZN3pal4GpioC2Ehh:
 253              	.LVL1:
 254              	.LFB132:
  28:PAL/Vendor/ST/Src/pal_gpio.cpp **** 
  29:PAL/Vendor/ST/Src/pal_gpio.cpp **** Gpio::Gpio(uint8_t port, uint8_t pin)
 255              		.loc 1 29 1 is_stmt 1 view -0
 256              		.cfi_startproc
 257              		@ args = 0, pretend = 0, frame = 0
 258              		@ frame_needed = 0, uses_anonymous_args = 0
 259              		@ link register save eliminated.
 260              	.LBB14:
  30:PAL/Vendor/ST/Src/pal_gpio.cpp ****     : portIndex(port), pinNumber(pin)
 261              		.loc 1 30 37 is_stmt 0 view .LVU62
 262 0000 0170     		strb	r1, [r0]
 263 0002 4270     		strb	r2, [r0, #1]
 264              	.LBE14:
  31:PAL/Vendor/ST/Src/pal_gpio.cpp **** {
  32:PAL/Vendor/ST/Src/pal_gpio.cpp **** }
ARM GAS  C:\Users\katre\AppData\Local\Temp\cci94Cm4.s 			page 7


 265              		.loc 1 32 1 view .LVU63
 266 0004 7047     		bx	lr
 267              		.cfi_endproc
 268              	.LFE132:
 270              		.global	_ZN3pal4GpioC1Ehh
 271              		.thumb_set _ZN3pal4GpioC1Ehh,_ZN3pal4GpioC2Ehh
 272              		.section	.text._ZN3pal4Gpio6configENS0_4ModeENS0_4PullENS0_5SpeedEh,"ax",%progbits
 273              		.align	1
 274              		.global	_ZN3pal4Gpio6configENS0_4ModeENS0_4PullENS0_5SpeedEh
 275              		.syntax unified
 276              		.thumb
 277              		.thumb_func
 279              	_ZN3pal4Gpio6configENS0_4ModeENS0_4PullENS0_5SpeedEh:
 280              	.LVL2:
 281              	.LFB134:
  33:PAL/Vendor/ST/Src/pal_gpio.cpp **** 
  34:PAL/Vendor/ST/Src/pal_gpio.cpp **** bool Gpio::config(Mode mode, Pull pull, Speed speed, uint8_t af)
  35:PAL/Vendor/ST/Src/pal_gpio.cpp **** {
 282              		.loc 1 35 1 is_stmt 1 view -0
 283              		.cfi_startproc
 284              		@ args = 4, pretend = 0, frame = 24
 285              		@ frame_needed = 0, uses_anonymous_args = 0
 286              		.loc 1 35 1 is_stmt 0 view .LVU65
 287 0000 F0B5     		push	{r4, r5, r6, r7, lr}
 288              	.LCFI3:
 289              		.cfi_def_cfa_offset 20
 290              		.cfi_offset 4, -20
 291              		.cfi_offset 5, -16
 292              		.cfi_offset 6, -12
 293              		.cfi_offset 7, -8
 294              		.cfi_offset 14, -4
 295 0002 87B0     		sub	sp, sp, #28
 296              	.LCFI4:
 297              		.cfi_def_cfa_offset 48
 298 0004 0446     		mov	r4, r0
  36:PAL/Vendor/ST/Src/pal_gpio.cpp ****     if (portIndex >= (sizeof(portTable) / sizeof(portTable[0])))
 299              		.loc 1 36 5 is_stmt 1 view .LVU66
 300              		.loc 1 36 9 is_stmt 0 view .LVU67
 301 0006 0078     		ldrb	r0, [r0]	@ zero_extendqisi2
 302              	.LVL3:
 303              		.loc 1 36 5 view .LVU68
 304 0008 0728     		cmp	r0, #7
 305 000a 02D9     		bls	.L26
  37:PAL/Vendor/ST/Src/pal_gpio.cpp ****         return false;
 306              		.loc 1 37 16 view .LVU69
 307 000c 0020     		movs	r0, #0
 308              	.LVL4:
 309              	.L17:
  38:PAL/Vendor/ST/Src/pal_gpio.cpp **** 
  39:PAL/Vendor/ST/Src/pal_gpio.cpp ****     gpioClockEnable(portIndex);
  40:PAL/Vendor/ST/Src/pal_gpio.cpp **** 
  41:PAL/Vendor/ST/Src/pal_gpio.cpp ****     GPIO_InitTypeDef cfg = {};
  42:PAL/Vendor/ST/Src/pal_gpio.cpp ****     cfg.Pin = (1u << pinNumber);
  43:PAL/Vendor/ST/Src/pal_gpio.cpp **** 
  44:PAL/Vendor/ST/Src/pal_gpio.cpp ****     switch (mode)
  45:PAL/Vendor/ST/Src/pal_gpio.cpp ****     {
  46:PAL/Vendor/ST/Src/pal_gpio.cpp ****         case Mode::Output:    cfg.Mode = GPIO_MODE_OUTPUT_PP; break;
ARM GAS  C:\Users\katre\AppData\Local\Temp\cci94Cm4.s 			page 8


  47:PAL/Vendor/ST/Src/pal_gpio.cpp ****         case Mode::Input:     cfg.Mode = GPIO_MODE_INPUT; break;
  48:PAL/Vendor/ST/Src/pal_gpio.cpp ****         case Mode::Alternate: cfg.Mode = GPIO_MODE_AF_PP; break;
  49:PAL/Vendor/ST/Src/pal_gpio.cpp ****         case Mode::Analog:    cfg.Mode = GPIO_MODE_ANALOG; break;
  50:PAL/Vendor/ST/Src/pal_gpio.cpp ****     }
  51:PAL/Vendor/ST/Src/pal_gpio.cpp **** 
  52:PAL/Vendor/ST/Src/pal_gpio.cpp ****     switch (pull)
  53:PAL/Vendor/ST/Src/pal_gpio.cpp ****     {
  54:PAL/Vendor/ST/Src/pal_gpio.cpp ****         case Pull::NoPull: cfg.Pull = GPIO_NOPULL; break;
  55:PAL/Vendor/ST/Src/pal_gpio.cpp ****         case Pull::Up:     cfg.Pull = GPIO_PULLUP; break;
  56:PAL/Vendor/ST/Src/pal_gpio.cpp ****         case Pull::Down:   cfg.Pull = GPIO_PULLDOWN; break;
  57:PAL/Vendor/ST/Src/pal_gpio.cpp ****     }
  58:PAL/Vendor/ST/Src/pal_gpio.cpp **** 
  59:PAL/Vendor/ST/Src/pal_gpio.cpp ****     cfg.Speed = static_cast<uint32_t>(speed);
  60:PAL/Vendor/ST/Src/pal_gpio.cpp ****     cfg.Alternate = af;
  61:PAL/Vendor/ST/Src/pal_gpio.cpp **** 
  62:PAL/Vendor/ST/Src/pal_gpio.cpp ****     HAL_GPIO_Init(portTable[portIndex], &cfg);
  63:PAL/Vendor/ST/Src/pal_gpio.cpp ****     return true;
  64:PAL/Vendor/ST/Src/pal_gpio.cpp **** }
 310              		.loc 1 64 1 view .LVU70
 311 000e 07B0     		add	sp, sp, #28
 312              	.LCFI5:
 313              		.cfi_remember_state
 314              		.cfi_def_cfa_offset 20
 315              		@ sp needed
 316 0010 F0BD     		pop	{r4, r5, r6, r7, pc}
 317              	.LVL5:
 318              	.L26:
 319              	.LCFI6:
 320              		.cfi_restore_state
 321              		.loc 1 64 1 view .LVU71
 322 0012 0D46     		mov	r5, r1
 323 0014 1746     		mov	r7, r2
 324 0016 1E46     		mov	r6, r3
  39:PAL/Vendor/ST/Src/pal_gpio.cpp **** 
 325              		.loc 1 39 5 is_stmt 1 view .LVU72
  39:PAL/Vendor/ST/Src/pal_gpio.cpp **** 
 326              		.loc 1 39 20 is_stmt 0 view .LVU73
 327 0018 FFF7FEFF 		bl	_ZN3palL15gpioClockEnableEh
 328              	.LVL6:
  41:PAL/Vendor/ST/Src/pal_gpio.cpp ****     cfg.Pin = (1u << pinNumber);
 329              		.loc 1 41 5 is_stmt 1 view .LVU74
  41:PAL/Vendor/ST/Src/pal_gpio.cpp ****     cfg.Pin = (1u << pinNumber);
 330              		.loc 1 41 22 is_stmt 0 view .LVU75
 331 001c 0021     		movs	r1, #0
 332 001e 0191     		str	r1, [sp, #4]
 333 0020 0291     		str	r1, [sp, #8]
 334 0022 0391     		str	r1, [sp, #12]
 335 0024 0491     		str	r1, [sp, #16]
 336 0026 0591     		str	r1, [sp, #20]
  42:PAL/Vendor/ST/Src/pal_gpio.cpp **** 
 337              		.loc 1 42 5 is_stmt 1 view .LVU76
  42:PAL/Vendor/ST/Src/pal_gpio.cpp **** 
 338              		.loc 1 42 22 is_stmt 0 view .LVU77
 339 0028 6278     		ldrb	r2, [r4, #1]	@ zero_extendqisi2
  42:PAL/Vendor/ST/Src/pal_gpio.cpp **** 
 340              		.loc 1 42 19 view .LVU78
 341 002a 0123     		movs	r3, #1
ARM GAS  C:\Users\katre\AppData\Local\Temp\cci94Cm4.s 			page 9


 342 002c 9340     		lsls	r3, r3, r2
  42:PAL/Vendor/ST/Src/pal_gpio.cpp **** 
 343              		.loc 1 42 13 view .LVU79
 344 002e 0193     		str	r3, [sp, #4]
  44:PAL/Vendor/ST/Src/pal_gpio.cpp ****     {
 345              		.loc 1 44 5 is_stmt 1 view .LVU80
 346 0030 022D     		cmp	r5, #2
 347 0032 17D0     		beq	.L18
  44:PAL/Vendor/ST/Src/pal_gpio.cpp ****     {
 348              		.loc 1 44 5 is_stmt 0 view .LVU81
 349 0034 032D     		cmp	r5, #3
 350 0036 18D0     		beq	.L19
 351 0038 012D     		cmp	r5, #1
 352 003a 10D0     		beq	.L27
 353              	.L20:
  52:PAL/Vendor/ST/Src/pal_gpio.cpp ****     {
 354              		.loc 1 52 5 is_stmt 1 view .LVU82
 355 003c 012F     		cmp	r7, #1
 356 003e 17D0     		beq	.L21
 357 0040 022F     		cmp	r7, #2
 358 0042 18D0     		beq	.L22
 359              	.L23:
  59:PAL/Vendor/ST/Src/pal_gpio.cpp ****     cfg.Alternate = af;
 360              		.loc 1 59 5 view .LVU83
  59:PAL/Vendor/ST/Src/pal_gpio.cpp ****     cfg.Alternate = af;
 361              		.loc 1 59 15 is_stmt 0 view .LVU84
 362 0044 0496     		str	r6, [sp, #16]
  60:PAL/Vendor/ST/Src/pal_gpio.cpp **** 
 363              		.loc 1 60 5 is_stmt 1 view .LVU85
  60:PAL/Vendor/ST/Src/pal_gpio.cpp **** 
 364              		.loc 1 60 19 is_stmt 0 view .LVU86
 365 0046 9DF83030 		ldrb	r3, [sp, #48]	@ zero_extendqisi2
 366 004a 0593     		str	r3, [sp, #20]
  62:PAL/Vendor/ST/Src/pal_gpio.cpp ****     return true;
 367              		.loc 1 62 5 is_stmt 1 view .LVU87
  62:PAL/Vendor/ST/Src/pal_gpio.cpp ****     return true;
 368              		.loc 1 62 29 is_stmt 0 view .LVU88
 369 004c 2278     		ldrb	r2, [r4]	@ zero_extendqisi2
  62:PAL/Vendor/ST/Src/pal_gpio.cpp ****     return true;
 370              		.loc 1 62 18 view .LVU89
 371 004e 01A9     		add	r1, sp, #4
 372 0050 0A4B     		ldr	r3, .L28
 373 0052 53F82200 		ldr	r0, [r3, r2, lsl #2]
 374 0056 FFF7FEFF 		bl	HAL_GPIO_Init
 375              	.LVL7:
  63:PAL/Vendor/ST/Src/pal_gpio.cpp **** }
 376              		.loc 1 63 5 is_stmt 1 view .LVU90
  63:PAL/Vendor/ST/Src/pal_gpio.cpp **** }
 377              		.loc 1 63 12 is_stmt 0 view .LVU91
 378 005a 0120     		movs	r0, #1
 379 005c D7E7     		b	.L17
 380              	.L27:
  46:PAL/Vendor/ST/Src/pal_gpio.cpp ****         case Mode::Input:     cfg.Mode = GPIO_MODE_INPUT; break;
 381              		.loc 1 46 9 is_stmt 1 view .LVU92
  46:PAL/Vendor/ST/Src/pal_gpio.cpp ****         case Mode::Input:     cfg.Mode = GPIO_MODE_INPUT; break;
 382              		.loc 1 46 31 view .LVU93
  46:PAL/Vendor/ST/Src/pal_gpio.cpp ****         case Mode::Input:     cfg.Mode = GPIO_MODE_INPUT; break;
ARM GAS  C:\Users\katre\AppData\Local\Temp\cci94Cm4.s 			page 10


 383              		.loc 1 46 40 is_stmt 0 view .LVU94
 384 005e 0123     		movs	r3, #1
 385 0060 0293     		str	r3, [sp, #8]
  46:PAL/Vendor/ST/Src/pal_gpio.cpp ****         case Mode::Input:     cfg.Mode = GPIO_MODE_INPUT; break;
 386              		.loc 1 46 63 is_stmt 1 view .LVU95
 387 0062 EBE7     		b	.L20
 388              	.L18:
  48:PAL/Vendor/ST/Src/pal_gpio.cpp ****         case Mode::Analog:    cfg.Mode = GPIO_MODE_ANALOG; break;
 389              		.loc 1 48 9 view .LVU96
  48:PAL/Vendor/ST/Src/pal_gpio.cpp ****         case Mode::Analog:    cfg.Mode = GPIO_MODE_ANALOG; break;
 390              		.loc 1 48 31 view .LVU97
  48:PAL/Vendor/ST/Src/pal_gpio.cpp ****         case Mode::Analog:    cfg.Mode = GPIO_MODE_ANALOG; break;
 391              		.loc 1 48 40 is_stmt 0 view .LVU98
 392 0064 0223     		movs	r3, #2
 393 0066 0293     		str	r3, [sp, #8]
  48:PAL/Vendor/ST/Src/pal_gpio.cpp ****         case Mode::Analog:    cfg.Mode = GPIO_MODE_ANALOG; break;
 394              		.loc 1 48 59 is_stmt 1 view .LVU99
 395 0068 E8E7     		b	.L20
 396              	.L19:
  49:PAL/Vendor/ST/Src/pal_gpio.cpp ****     }
 397              		.loc 1 49 9 view .LVU100
  49:PAL/Vendor/ST/Src/pal_gpio.cpp ****     }
 398              		.loc 1 49 31 view .LVU101
  49:PAL/Vendor/ST/Src/pal_gpio.cpp ****     }
 399              		.loc 1 49 40 is_stmt 0 view .LVU102
 400 006a 0323     		movs	r3, #3
 401 006c 0293     		str	r3, [sp, #8]
  49:PAL/Vendor/ST/Src/pal_gpio.cpp ****     }
 402              		.loc 1 49 60 is_stmt 1 view .LVU103
 403 006e E5E7     		b	.L20
 404              	.L21:
  55:PAL/Vendor/ST/Src/pal_gpio.cpp ****         case Pull::Down:   cfg.Pull = GPIO_PULLDOWN; break;
 405              		.loc 1 55 9 view .LVU104
  55:PAL/Vendor/ST/Src/pal_gpio.cpp ****         case Pull::Down:   cfg.Pull = GPIO_PULLDOWN; break;
 406              		.loc 1 55 28 view .LVU105
  55:PAL/Vendor/ST/Src/pal_gpio.cpp ****         case Pull::Down:   cfg.Pull = GPIO_PULLDOWN; break;
 407              		.loc 1 55 37 is_stmt 0 view .LVU106
 408 0070 0123     		movs	r3, #1
 409 0072 0393     		str	r3, [sp, #12]
  55:PAL/Vendor/ST/Src/pal_gpio.cpp ****         case Pull::Down:   cfg.Pull = GPIO_PULLDOWN; break;
 410              		.loc 1 55 52 is_stmt 1 view .LVU107
 411 0074 E6E7     		b	.L23
 412              	.L22:
  56:PAL/Vendor/ST/Src/pal_gpio.cpp ****     }
 413              		.loc 1 56 9 view .LVU108
  56:PAL/Vendor/ST/Src/pal_gpio.cpp ****     }
 414              		.loc 1 56 28 view .LVU109
  56:PAL/Vendor/ST/Src/pal_gpio.cpp ****     }
 415              		.loc 1 56 37 is_stmt 0 view .LVU110
 416 0076 0223     		movs	r3, #2
 417 0078 0393     		str	r3, [sp, #12]
  56:PAL/Vendor/ST/Src/pal_gpio.cpp ****     }
 418              		.loc 1 56 54 is_stmt 1 view .LVU111
 419 007a E3E7     		b	.L23
 420              	.L29:
 421              		.align	2
 422              	.L28:
ARM GAS  C:\Users\katre\AppData\Local\Temp\cci94Cm4.s 			page 11


 423 007c 00000000 		.word	.LANCHOR0
 424              		.cfi_endproc
 425              	.LFE134:
 427              		.section	.text._ZN3pal4Gpio5writeEb,"ax",%progbits
 428              		.align	1
 429              		.global	_ZN3pal4Gpio5writeEb
 430              		.syntax unified
 431              		.thumb
 432              		.thumb_func
 434              	_ZN3pal4Gpio5writeEb:
 435              	.LVL8:
 436              	.LFB135:
  65:PAL/Vendor/ST/Src/pal_gpio.cpp **** 
  66:PAL/Vendor/ST/Src/pal_gpio.cpp **** void Gpio::write(bool value)
  67:PAL/Vendor/ST/Src/pal_gpio.cpp **** {
 437              		.loc 1 67 1 view -0
 438              		.cfi_startproc
 439              		@ args = 0, pretend = 0, frame = 0
 440              		@ frame_needed = 0, uses_anonymous_args = 0
 441              		.loc 1 67 1 is_stmt 0 view .LVU113
 442 0000 08B5     		push	{r3, lr}
 443              	.LCFI7:
 444              		.cfi_def_cfa_offset 8
 445              		.cfi_offset 3, -8
 446              		.cfi_offset 14, -4
 447 0002 0346     		mov	r3, r0
  68:PAL/Vendor/ST/Src/pal_gpio.cpp ****     HAL_GPIO_WritePin(portTable[portIndex], (1u << pinNumber),
 448              		.loc 1 68 5 is_stmt 1 view .LVU114
 449              		.loc 1 68 33 is_stmt 0 view .LVU115
 450 0004 0078     		ldrb	r0, [r0]	@ zero_extendqisi2
 451              	.LVL9:
 452              		.loc 1 68 22 view .LVU116
 453 0006 074A     		ldr	r2, .L34
 454 0008 52F82000 		ldr	r0, [r2, r0, lsl #2]
 455              		.loc 1 68 52 view .LVU117
 456 000c 5A78     		ldrb	r2, [r3, #1]	@ zero_extendqisi2
 457              		.loc 1 68 49 view .LVU118
 458 000e 0123     		movs	r3, #1
 459              	.LVL10:
 460              		.loc 1 68 49 view .LVU119
 461 0010 9340     		lsls	r3, r3, r2
 462              		.loc 1 68 22 view .LVU120
 463 0012 9BB2     		uxth	r3, r3
 464 0014 21B1     		cbz	r1, .L32
 465 0016 0122     		movs	r2, #1
 466              	.L31:
 467              		.loc 1 68 22 discriminator 4 view .LVU121
 468 0018 1946     		mov	r1, r3
 469              	.LVL11:
 470              		.loc 1 68 22 discriminator 4 view .LVU122
 471 001a FFF7FEFF 		bl	HAL_GPIO_WritePin
 472              	.LVL12:
  69:PAL/Vendor/ST/Src/pal_gpio.cpp ****                       value ? GPIO_PIN_SET : GPIO_PIN_RESET);
  70:PAL/Vendor/ST/Src/pal_gpio.cpp **** }
 473              		.loc 1 70 1 discriminator 4 view .LVU123
 474 001e 08BD     		pop	{r3, pc}
 475              	.LVL13:
ARM GAS  C:\Users\katre\AppData\Local\Temp\cci94Cm4.s 			page 12


 476              	.L32:
  68:PAL/Vendor/ST/Src/pal_gpio.cpp ****     HAL_GPIO_WritePin(portTable[portIndex], (1u << pinNumber),
 477              		.loc 1 68 22 view .LVU124
 478 0020 0022     		movs	r2, #0
 479 0022 F9E7     		b	.L31
 480              	.L35:
 481              		.align	2
 482              	.L34:
 483 0024 00000000 		.word	.LANCHOR0
 484              		.cfi_endproc
 485              	.LFE135:
 487              		.section	.text._ZNK3pal4Gpio4readEv,"ax",%progbits
 488              		.align	1
 489              		.global	_ZNK3pal4Gpio4readEv
 490              		.syntax unified
 491              		.thumb
 492              		.thumb_func
 494              	_ZNK3pal4Gpio4readEv:
 495              	.LVL14:
 496              	.LFB136:
  71:PAL/Vendor/ST/Src/pal_gpio.cpp **** 
  72:PAL/Vendor/ST/Src/pal_gpio.cpp **** bool Gpio::read() const
  73:PAL/Vendor/ST/Src/pal_gpio.cpp **** {
 497              		.loc 1 73 1 is_stmt 1 view -0
 498              		.cfi_startproc
 499              		@ args = 0, pretend = 0, frame = 0
 500              		@ frame_needed = 0, uses_anonymous_args = 0
 501              		.loc 1 73 1 is_stmt 0 view .LVU126
 502 0000 08B5     		push	{r3, lr}
 503              	.LCFI8:
 504              		.cfi_def_cfa_offset 8
 505              		.cfi_offset 3, -8
 506              		.cfi_offset 14, -4
  74:PAL/Vendor/ST/Src/pal_gpio.cpp ****     return (HAL_GPIO_ReadPin(portTable[portIndex], (1u << pinNumber)) == GPIO_PIN_SET);
 507              		.loc 1 74 5 is_stmt 1 view .LVU127
 508              		.loc 1 74 40 is_stmt 0 view .LVU128
 509 0002 0278     		ldrb	r2, [r0]	@ zero_extendqisi2
 510              		.loc 1 74 59 view .LVU129
 511 0004 4378     		ldrb	r3, [r0, #1]	@ zero_extendqisi2
 512              		.loc 1 74 56 view .LVU130
 513 0006 0121     		movs	r1, #1
 514 0008 9940     		lsls	r1, r1, r3
 515              		.loc 1 74 29 view .LVU131
 516 000a 89B2     		uxth	r1, r1
 517 000c 044B     		ldr	r3, .L38
 518 000e 53F82200 		ldr	r0, [r3, r2, lsl #2]
 519              	.LVL15:
 520              		.loc 1 74 29 view .LVU132
 521 0012 FFF7FEFF 		bl	HAL_GPIO_ReadPin
 522              	.LVL16:
  75:PAL/Vendor/ST/Src/pal_gpio.cpp **** }
 523              		.loc 1 75 1 view .LVU133
 524 0016 0128     		cmp	r0, #1
 525 0018 14BF     		ite	ne
 526 001a 0020     		movne	r0, #0
 527 001c 0120     		moveq	r0, #1
 528 001e 08BD     		pop	{r3, pc}
ARM GAS  C:\Users\katre\AppData\Local\Temp\cci94Cm4.s 			page 13


 529              	.L39:
 530              		.align	2
 531              	.L38:
 532 0020 00000000 		.word	.LANCHOR0
 533              		.cfi_endproc
 534              	.LFE136:
 536              		.section	.rodata._ZN3palL9portTableE,"a"
 537              		.align	2
 538              		.set	.LANCHOR0,. + 0
 541              	_ZN3palL9portTableE:
 542 0000 00000240 		.word	1073872896
 543 0004 00040240 		.word	1073873920
 544 0008 00080240 		.word	1073874944
 545 000c 000C0240 		.word	1073875968
 546 0010 00100240 		.word	1073876992
 547 0014 00140240 		.word	1073878016
 548 0018 00180240 		.word	1073879040
 549 001c 001C0240 		.word	1073880064
 550              		.text
 551              	.Letext0:
 552              		.file 2 "c:\\program files (x86)\\gnu arm embedded toolchain\\10 2021.10\\arm-none-eabi\\include\\
 553              		.file 3 "c:\\program files (x86)\\gnu arm embedded toolchain\\10 2021.10\\arm-none-eabi\\include\\
 554              		.file 4 "c:\\program files (x86)\\gnu arm embedded toolchain\\10 2021.10\\arm-none-eabi\\include\\
 555              		.file 5 "c:\\program files (x86)\\gnu arm embedded toolchain\\10 2021.10\\arm-none-eabi\\include\\
 556              		.file 6 "c:\\program files (x86)\\gnu arm embedded toolchain\\10 2021.10\\arm-none-eabi\\include\\
 557              		.file 7 "PAL/Vendor/common/Inc/pal_gpio.hpp"
 558              		.file 8 "CMSIS/Vendor_Device/ST/STM32F4xx/Include/stm32f446xx.h"
 559              		.file 9 "CMSIS/Vendor_Device/ST/STM32F4xx/Include/stm32f4xx.h"
 560              		.file 10 "Vendor_HAL/ST/STM32F4xx_HAL_Driver/Inc/stm32f4xx_hal_gpio.h"
 561              		.file 11 "Vendor_HAL/ST/STM32F4xx_HAL_Driver/Inc/stm32f4xx_hal.h"
 562              		.file 12 "<built-in>"
ARM GAS  C:\Users\katre\AppData\Local\Temp\cci94Cm4.s 			page 14

