ARM GAS  C:\Users\katre\AppData\Local\Temp\ccsaao4d.s 			page 1


   1              		.cpu cortex-m4
   2              		.arch armv7e-m
   3              		.fpu fpv4-sp-d16
   4              		.eabi_attribute 27, 1
   5              		.eabi_attribute 28, 1
   6              		.eabi_attribute 20, 1
   7              		.eabi_attribute 21, 1
   8              		.eabi_attribute 23, 3
   9              		.eabi_attribute 24, 1
  10              		.eabi_attribute 25, 1
  11              		.eabi_attribute 26, 1
  12              		.eabi_attribute 30, 1
  13              		.eabi_attribute 34, 1
  14              		.eabi_attribute 18, 4
  15              		.file	"stm32f4xx_hal_rcc.c"
  16              		.text
  17              	.Ltext0:
  18              		.cfi_sections	.debug_frame
  19              		.section	.text.HAL_RCC_DeInit,"ax",%progbits
  20              		.align	1
  21              		.weak	HAL_RCC_DeInit
  22              		.syntax unified
  23              		.thumb
  24              		.thumb_func
  26              	HAL_RCC_DeInit:
  27              	.LFB130:
  28              		.file 1 "Vendor_HAL/ST/STM32F4xx_HAL_Driver/Src/stm32f4xx_hal_rcc.c"
   1:Vendor_HAL/ST/STM32F4xx_HAL_Driver/Src/stm32f4xx_hal_rcc.c **** /**
   2:Vendor_HAL/ST/STM32F4xx_HAL_Driver/Src/stm32f4xx_hal_rcc.c ****   ******************************************************************************
   3:Vendor_HAL/ST/STM32F4xx_HAL_Driver/Src/stm32f4xx_hal_rcc.c ****   * @file    stm32f4xx_hal_rcc.c
   4:Vendor_HAL/ST/STM32F4xx_HAL_Driver/Src/stm32f4xx_hal_rcc.c ****   * @author  MCD Application Team
   5:Vendor_HAL/ST/STM32F4xx_HAL_Driver/Src/stm32f4xx_hal_rcc.c ****   * @brief   RCC HAL module driver.
   6:Vendor_HAL/ST/STM32F4xx_HAL_Driver/Src/stm32f4xx_hal_rcc.c ****   *          This file provides firmware functions to manage the following
   7:Vendor_HAL/ST/STM32F4xx_HAL_Driver/Src/stm32f4xx_hal_rcc.c ****   *          functionalities of the Reset and Clock Control (RCC) peripheral:
   8:Vendor_HAL/ST/STM32F4xx_HAL_Driver/Src/stm32f4xx_hal_rcc.c ****   *           + Initialization and de-initialization functions
   9:Vendor_HAL/ST/STM32F4xx_HAL_Driver/Src/stm32f4xx_hal_rcc.c ****   *           + Peripheral Control functions
  10:Vendor_HAL/ST/STM32F4xx_HAL_Driver/Src/stm32f4xx_hal_rcc.c ****   *
  11:Vendor_HAL/ST/STM32F4xx_HAL_Driver/Src/stm32f4xx_hal_rcc.c ****   @verbatim
  12:Vendor_HAL/ST/STM32F4xx_HAL_Driver/Src/stm32f4xx_hal_rcc.c ****   ==============================================================================
  13:Vendor_HAL/ST/STM32F4xx_HAL_Driver/Src/stm32f4xx_hal_rcc.c ****                       ##### RCC specific features #####
  14:Vendor_HAL/ST/STM32F4xx_HAL_Driver/Src/stm32f4xx_hal_rcc.c ****   ==============================================================================
  15:Vendor_HAL/ST/STM32F4xx_HAL_Driver/Src/stm32f4xx_hal_rcc.c ****     [..]
  16:Vendor_HAL/ST/STM32F4xx_HAL_Driver/Src/stm32f4xx_hal_rcc.c ****       After reset the device is running from Internal High Speed oscillator
  17:Vendor_HAL/ST/STM32F4xx_HAL_Driver/Src/stm32f4xx_hal_rcc.c ****       (HSI 16MHz) with Flash 0 wait state, Flash prefetch buffer, D-Cache
  18:Vendor_HAL/ST/STM32F4xx_HAL_Driver/Src/stm32f4xx_hal_rcc.c ****       and I-Cache are disabled, and all peripherals are off except internal
  19:Vendor_HAL/ST/STM32F4xx_HAL_Driver/Src/stm32f4xx_hal_rcc.c ****       SRAM, Flash and JTAG.
  20:Vendor_HAL/ST/STM32F4xx_HAL_Driver/Src/stm32f4xx_hal_rcc.c ****       (+) There is no prescaler on High speed (AHB) and Low speed (APB) busses;
  21:Vendor_HAL/ST/STM32F4xx_HAL_Driver/Src/stm32f4xx_hal_rcc.c ****           all peripherals mapped on these busses are running at HSI speed.
  22:Vendor_HAL/ST/STM32F4xx_HAL_Driver/Src/stm32f4xx_hal_rcc.c ****       (+) The clock for all peripherals is switched off, except the SRAM and FLASH.
  23:Vendor_HAL/ST/STM32F4xx_HAL_Driver/Src/stm32f4xx_hal_rcc.c ****       (+) All GPIOs are in input floating state, except the JTAG pins which
  24:Vendor_HAL/ST/STM32F4xx_HAL_Driver/Src/stm32f4xx_hal_rcc.c ****           are assigned to be used for debug purpose.
  25:Vendor_HAL/ST/STM32F4xx_HAL_Driver/Src/stm32f4xx_hal_rcc.c **** 
  26:Vendor_HAL/ST/STM32F4xx_HAL_Driver/Src/stm32f4xx_hal_rcc.c ****     [..]
  27:Vendor_HAL/ST/STM32F4xx_HAL_Driver/Src/stm32f4xx_hal_rcc.c ****       Once the device started from reset, the user application has to:
  28:Vendor_HAL/ST/STM32F4xx_HAL_Driver/Src/stm32f4xx_hal_rcc.c ****       (+) Configure the clock source to be used to drive the System clock
  29:Vendor_HAL/ST/STM32F4xx_HAL_Driver/Src/stm32f4xx_hal_rcc.c ****           (if the application needs higher frequency/performance)
  30:Vendor_HAL/ST/STM32F4xx_HAL_Driver/Src/stm32f4xx_hal_rcc.c ****       (+) Configure the System clock frequency and Flash settings
ARM GAS  C:\Users\katre\AppData\Local\Temp\ccsaao4d.s 			page 2


  31:Vendor_HAL/ST/STM32F4xx_HAL_Driver/Src/stm32f4xx_hal_rcc.c ****       (+) Configure the AHB and APB busses prescalers
  32:Vendor_HAL/ST/STM32F4xx_HAL_Driver/Src/stm32f4xx_hal_rcc.c ****       (+) Enable the clock for the peripheral(s) to be used
  33:Vendor_HAL/ST/STM32F4xx_HAL_Driver/Src/stm32f4xx_hal_rcc.c ****       (+) Configure the clock source(s) for peripherals which clocks are not
  34:Vendor_HAL/ST/STM32F4xx_HAL_Driver/Src/stm32f4xx_hal_rcc.c ****           derived from the System clock (I2S, RTC, ADC, USB OTG FS/SDIO/RNG)
  35:Vendor_HAL/ST/STM32F4xx_HAL_Driver/Src/stm32f4xx_hal_rcc.c **** 
  36:Vendor_HAL/ST/STM32F4xx_HAL_Driver/Src/stm32f4xx_hal_rcc.c ****                       ##### RCC Limitations #####
  37:Vendor_HAL/ST/STM32F4xx_HAL_Driver/Src/stm32f4xx_hal_rcc.c ****   ==============================================================================
  38:Vendor_HAL/ST/STM32F4xx_HAL_Driver/Src/stm32f4xx_hal_rcc.c ****     [..]
  39:Vendor_HAL/ST/STM32F4xx_HAL_Driver/Src/stm32f4xx_hal_rcc.c ****       A delay between an RCC peripheral clock enable and the effective peripheral
  40:Vendor_HAL/ST/STM32F4xx_HAL_Driver/Src/stm32f4xx_hal_rcc.c ****       enabling should be taken into account in order to manage the peripheral read/write
  41:Vendor_HAL/ST/STM32F4xx_HAL_Driver/Src/stm32f4xx_hal_rcc.c ****       from/to registers.
  42:Vendor_HAL/ST/STM32F4xx_HAL_Driver/Src/stm32f4xx_hal_rcc.c ****       (+) This delay depends on the peripheral mapping.
  43:Vendor_HAL/ST/STM32F4xx_HAL_Driver/Src/stm32f4xx_hal_rcc.c ****       (+) If peripheral is mapped on AHB: the delay is 2 AHB clock cycle
  44:Vendor_HAL/ST/STM32F4xx_HAL_Driver/Src/stm32f4xx_hal_rcc.c ****           after the clock enable bit is set on the hardware register
  45:Vendor_HAL/ST/STM32F4xx_HAL_Driver/Src/stm32f4xx_hal_rcc.c ****       (+) If peripheral is mapped on APB: the delay is 2 APB clock cycle
  46:Vendor_HAL/ST/STM32F4xx_HAL_Driver/Src/stm32f4xx_hal_rcc.c ****           after the clock enable bit is set on the hardware register
  47:Vendor_HAL/ST/STM32F4xx_HAL_Driver/Src/stm32f4xx_hal_rcc.c **** 
  48:Vendor_HAL/ST/STM32F4xx_HAL_Driver/Src/stm32f4xx_hal_rcc.c ****     [..]
  49:Vendor_HAL/ST/STM32F4xx_HAL_Driver/Src/stm32f4xx_hal_rcc.c ****       Implemented Workaround:
  50:Vendor_HAL/ST/STM32F4xx_HAL_Driver/Src/stm32f4xx_hal_rcc.c ****       (+) For AHB & APB peripherals, a dummy read to the peripheral register has been
  51:Vendor_HAL/ST/STM32F4xx_HAL_Driver/Src/stm32f4xx_hal_rcc.c ****           inserted in each __HAL_RCC_PPP_CLK_ENABLE() macro.
  52:Vendor_HAL/ST/STM32F4xx_HAL_Driver/Src/stm32f4xx_hal_rcc.c **** 
  53:Vendor_HAL/ST/STM32F4xx_HAL_Driver/Src/stm32f4xx_hal_rcc.c ****   @endverbatim
  54:Vendor_HAL/ST/STM32F4xx_HAL_Driver/Src/stm32f4xx_hal_rcc.c ****   ******************************************************************************
  55:Vendor_HAL/ST/STM32F4xx_HAL_Driver/Src/stm32f4xx_hal_rcc.c ****   * @attention
  56:Vendor_HAL/ST/STM32F4xx_HAL_Driver/Src/stm32f4xx_hal_rcc.c ****   *
  57:Vendor_HAL/ST/STM32F4xx_HAL_Driver/Src/stm32f4xx_hal_rcc.c ****   * <h2><center>&copy; Copyright (c) 2017 STMicroelectronics.
  58:Vendor_HAL/ST/STM32F4xx_HAL_Driver/Src/stm32f4xx_hal_rcc.c ****   * All rights reserved.</center></h2>
  59:Vendor_HAL/ST/STM32F4xx_HAL_Driver/Src/stm32f4xx_hal_rcc.c ****   *
  60:Vendor_HAL/ST/STM32F4xx_HAL_Driver/Src/stm32f4xx_hal_rcc.c ****   * This software component is licensed by ST under BSD 3-Clause license,
  61:Vendor_HAL/ST/STM32F4xx_HAL_Driver/Src/stm32f4xx_hal_rcc.c ****   * the "License"; You may not use this file except in compliance with the
  62:Vendor_HAL/ST/STM32F4xx_HAL_Driver/Src/stm32f4xx_hal_rcc.c ****   * License. You may obtain a copy of the License at:
  63:Vendor_HAL/ST/STM32F4xx_HAL_Driver/Src/stm32f4xx_hal_rcc.c ****   *                        opensource.org/licenses/BSD-3-Clause
  64:Vendor_HAL/ST/STM32F4xx_HAL_Driver/Src/stm32f4xx_hal_rcc.c ****   *
  65:Vendor_HAL/ST/STM32F4xx_HAL_Driver/Src/stm32f4xx_hal_rcc.c ****   ******************************************************************************
  66:Vendor_HAL/ST/STM32F4xx_HAL_Driver/Src/stm32f4xx_hal_rcc.c ****   */
  67:Vendor_HAL/ST/STM32F4xx_HAL_Driver/Src/stm32f4xx_hal_rcc.c **** 
  68:Vendor_HAL/ST/STM32F4xx_HAL_Driver/Src/stm32f4xx_hal_rcc.c **** /* Includes ------------------------------------------------------------------*/
  69:Vendor_HAL/ST/STM32F4xx_HAL_Driver/Src/stm32f4xx_hal_rcc.c **** #include "stm32f4xx_hal.h"
  70:Vendor_HAL/ST/STM32F4xx_HAL_Driver/Src/stm32f4xx_hal_rcc.c **** 
  71:Vendor_HAL/ST/STM32F4xx_HAL_Driver/Src/stm32f4xx_hal_rcc.c **** /** @addtogroup STM32F4xx_HAL_Driver
  72:Vendor_HAL/ST/STM32F4xx_HAL_Driver/Src/stm32f4xx_hal_rcc.c ****   * @{
  73:Vendor_HAL/ST/STM32F4xx_HAL_Driver/Src/stm32f4xx_hal_rcc.c ****   */
  74:Vendor_HAL/ST/STM32F4xx_HAL_Driver/Src/stm32f4xx_hal_rcc.c **** 
  75:Vendor_HAL/ST/STM32F4xx_HAL_Driver/Src/stm32f4xx_hal_rcc.c **** /** @defgroup RCC RCC
  76:Vendor_HAL/ST/STM32F4xx_HAL_Driver/Src/stm32f4xx_hal_rcc.c ****   * @brief RCC HAL module driver
  77:Vendor_HAL/ST/STM32F4xx_HAL_Driver/Src/stm32f4xx_hal_rcc.c ****   * @{
  78:Vendor_HAL/ST/STM32F4xx_HAL_Driver/Src/stm32f4xx_hal_rcc.c ****   */
  79:Vendor_HAL/ST/STM32F4xx_HAL_Driver/Src/stm32f4xx_hal_rcc.c **** 
  80:Vendor_HAL/ST/STM32F4xx_HAL_Driver/Src/stm32f4xx_hal_rcc.c **** #ifdef HAL_RCC_MODULE_ENABLED
  81:Vendor_HAL/ST/STM32F4xx_HAL_Driver/Src/stm32f4xx_hal_rcc.c **** 
  82:Vendor_HAL/ST/STM32F4xx_HAL_Driver/Src/stm32f4xx_hal_rcc.c **** /* Private typedef -----------------------------------------------------------*/
  83:Vendor_HAL/ST/STM32F4xx_HAL_Driver/Src/stm32f4xx_hal_rcc.c **** /* Private define ------------------------------------------------------------*/
  84:Vendor_HAL/ST/STM32F4xx_HAL_Driver/Src/stm32f4xx_hal_rcc.c **** /** @addtogroup RCC_Private_Constants
  85:Vendor_HAL/ST/STM32F4xx_HAL_Driver/Src/stm32f4xx_hal_rcc.c ****   * @{
  86:Vendor_HAL/ST/STM32F4xx_HAL_Driver/Src/stm32f4xx_hal_rcc.c ****   */
  87:Vendor_HAL/ST/STM32F4xx_HAL_Driver/Src/stm32f4xx_hal_rcc.c **** 
ARM GAS  C:\Users\katre\AppData\Local\Temp\ccsaao4d.s 			page 3


  88:Vendor_HAL/ST/STM32F4xx_HAL_Driver/Src/stm32f4xx_hal_rcc.c **** /* Private macro -------------------------------------------------------------*/
  89:Vendor_HAL/ST/STM32F4xx_HAL_Driver/Src/stm32f4xx_hal_rcc.c **** #define __MCO1_CLK_ENABLE()   __HAL_RCC_GPIOA_CLK_ENABLE()
  90:Vendor_HAL/ST/STM32F4xx_HAL_Driver/Src/stm32f4xx_hal_rcc.c **** #define MCO1_GPIO_PORT        GPIOA
  91:Vendor_HAL/ST/STM32F4xx_HAL_Driver/Src/stm32f4xx_hal_rcc.c **** #define MCO1_PIN              GPIO_PIN_8
  92:Vendor_HAL/ST/STM32F4xx_HAL_Driver/Src/stm32f4xx_hal_rcc.c **** 
  93:Vendor_HAL/ST/STM32F4xx_HAL_Driver/Src/stm32f4xx_hal_rcc.c **** #define __MCO2_CLK_ENABLE()   __HAL_RCC_GPIOC_CLK_ENABLE()
  94:Vendor_HAL/ST/STM32F4xx_HAL_Driver/Src/stm32f4xx_hal_rcc.c **** #define MCO2_GPIO_PORT         GPIOC
  95:Vendor_HAL/ST/STM32F4xx_HAL_Driver/Src/stm32f4xx_hal_rcc.c **** #define MCO2_PIN               GPIO_PIN_9
  96:Vendor_HAL/ST/STM32F4xx_HAL_Driver/Src/stm32f4xx_hal_rcc.c **** /**
  97:Vendor_HAL/ST/STM32F4xx_HAL_Driver/Src/stm32f4xx_hal_rcc.c ****   * @}
  98:Vendor_HAL/ST/STM32F4xx_HAL_Driver/Src/stm32f4xx_hal_rcc.c ****   */
  99:Vendor_HAL/ST/STM32F4xx_HAL_Driver/Src/stm32f4xx_hal_rcc.c **** 
 100:Vendor_HAL/ST/STM32F4xx_HAL_Driver/Src/stm32f4xx_hal_rcc.c **** /* Private variables ---------------------------------------------------------*/
 101:Vendor_HAL/ST/STM32F4xx_HAL_Driver/Src/stm32f4xx_hal_rcc.c **** /** @defgroup RCC_Private_Variables RCC Private Variables
 102:Vendor_HAL/ST/STM32F4xx_HAL_Driver/Src/stm32f4xx_hal_rcc.c ****   * @{
 103:Vendor_HAL/ST/STM32F4xx_HAL_Driver/Src/stm32f4xx_hal_rcc.c ****   */
 104:Vendor_HAL/ST/STM32F4xx_HAL_Driver/Src/stm32f4xx_hal_rcc.c **** /**
 105:Vendor_HAL/ST/STM32F4xx_HAL_Driver/Src/stm32f4xx_hal_rcc.c ****   * @}
 106:Vendor_HAL/ST/STM32F4xx_HAL_Driver/Src/stm32f4xx_hal_rcc.c ****   */
 107:Vendor_HAL/ST/STM32F4xx_HAL_Driver/Src/stm32f4xx_hal_rcc.c **** /* Private function prototypes -----------------------------------------------*/
 108:Vendor_HAL/ST/STM32F4xx_HAL_Driver/Src/stm32f4xx_hal_rcc.c **** /* Private functions ---------------------------------------------------------*/
 109:Vendor_HAL/ST/STM32F4xx_HAL_Driver/Src/stm32f4xx_hal_rcc.c **** 
 110:Vendor_HAL/ST/STM32F4xx_HAL_Driver/Src/stm32f4xx_hal_rcc.c **** /** @defgroup RCC_Exported_Functions RCC Exported Functions
 111:Vendor_HAL/ST/STM32F4xx_HAL_Driver/Src/stm32f4xx_hal_rcc.c ****   *  @{
 112:Vendor_HAL/ST/STM32F4xx_HAL_Driver/Src/stm32f4xx_hal_rcc.c ****   */
 113:Vendor_HAL/ST/STM32F4xx_HAL_Driver/Src/stm32f4xx_hal_rcc.c **** 
 114:Vendor_HAL/ST/STM32F4xx_HAL_Driver/Src/stm32f4xx_hal_rcc.c **** /** @defgroup RCC_Exported_Functions_Group1 Initialization and de-initialization functions
 115:Vendor_HAL/ST/STM32F4xx_HAL_Driver/Src/stm32f4xx_hal_rcc.c ****  *  @brief    Initialization and Configuration functions
 116:Vendor_HAL/ST/STM32F4xx_HAL_Driver/Src/stm32f4xx_hal_rcc.c ****  *
 117:Vendor_HAL/ST/STM32F4xx_HAL_Driver/Src/stm32f4xx_hal_rcc.c **** @verbatim
 118:Vendor_HAL/ST/STM32F4xx_HAL_Driver/Src/stm32f4xx_hal_rcc.c ****  ===============================================================================
 119:Vendor_HAL/ST/STM32F4xx_HAL_Driver/Src/stm32f4xx_hal_rcc.c ****            ##### Initialization and de-initialization functions #####
 120:Vendor_HAL/ST/STM32F4xx_HAL_Driver/Src/stm32f4xx_hal_rcc.c ****  ===============================================================================
 121:Vendor_HAL/ST/STM32F4xx_HAL_Driver/Src/stm32f4xx_hal_rcc.c ****     [..]
 122:Vendor_HAL/ST/STM32F4xx_HAL_Driver/Src/stm32f4xx_hal_rcc.c ****       This section provides functions allowing to configure the internal/external oscillators
 123:Vendor_HAL/ST/STM32F4xx_HAL_Driver/Src/stm32f4xx_hal_rcc.c ****       (HSE, HSI, LSE, LSI, PLL, CSS and MCO) and the System busses clocks (SYSCLK, AHB, APB1
 124:Vendor_HAL/ST/STM32F4xx_HAL_Driver/Src/stm32f4xx_hal_rcc.c ****        and APB2).
 125:Vendor_HAL/ST/STM32F4xx_HAL_Driver/Src/stm32f4xx_hal_rcc.c **** 
 126:Vendor_HAL/ST/STM32F4xx_HAL_Driver/Src/stm32f4xx_hal_rcc.c ****     [..] Internal/external clock and PLL configuration
 127:Vendor_HAL/ST/STM32F4xx_HAL_Driver/Src/stm32f4xx_hal_rcc.c ****          (#) HSI (high-speed internal), 16 MHz factory-trimmed RC used directly or through
 128:Vendor_HAL/ST/STM32F4xx_HAL_Driver/Src/stm32f4xx_hal_rcc.c ****              the PLL as System clock source.
 129:Vendor_HAL/ST/STM32F4xx_HAL_Driver/Src/stm32f4xx_hal_rcc.c **** 
 130:Vendor_HAL/ST/STM32F4xx_HAL_Driver/Src/stm32f4xx_hal_rcc.c ****          (#) LSI (low-speed internal), 32 KHz low consumption RC used as IWDG and/or RTC
 131:Vendor_HAL/ST/STM32F4xx_HAL_Driver/Src/stm32f4xx_hal_rcc.c ****              clock source.
 132:Vendor_HAL/ST/STM32F4xx_HAL_Driver/Src/stm32f4xx_hal_rcc.c **** 
 133:Vendor_HAL/ST/STM32F4xx_HAL_Driver/Src/stm32f4xx_hal_rcc.c ****          (#) HSE (high-speed external), 4 to 26 MHz crystal oscillator used directly or
 134:Vendor_HAL/ST/STM32F4xx_HAL_Driver/Src/stm32f4xx_hal_rcc.c ****              through the PLL as System clock source. Can be used also as RTC clock source.
 135:Vendor_HAL/ST/STM32F4xx_HAL_Driver/Src/stm32f4xx_hal_rcc.c **** 
 136:Vendor_HAL/ST/STM32F4xx_HAL_Driver/Src/stm32f4xx_hal_rcc.c ****          (#) LSE (low-speed external), 32 KHz oscillator used as RTC clock source.
 137:Vendor_HAL/ST/STM32F4xx_HAL_Driver/Src/stm32f4xx_hal_rcc.c **** 
 138:Vendor_HAL/ST/STM32F4xx_HAL_Driver/Src/stm32f4xx_hal_rcc.c ****          (#) PLL (clocked by HSI or HSE), featuring two different output clocks:
 139:Vendor_HAL/ST/STM32F4xx_HAL_Driver/Src/stm32f4xx_hal_rcc.c ****            (++) The first output is used to generate the high speed system clock (up to 168 MHz)
 140:Vendor_HAL/ST/STM32F4xx_HAL_Driver/Src/stm32f4xx_hal_rcc.c ****            (++) The second output is used to generate the clock for the USB OTG FS (48 MHz),
 141:Vendor_HAL/ST/STM32F4xx_HAL_Driver/Src/stm32f4xx_hal_rcc.c ****                 the random analog generator (<=48 MHz) and the SDIO (<= 48 MHz).
 142:Vendor_HAL/ST/STM32F4xx_HAL_Driver/Src/stm32f4xx_hal_rcc.c **** 
 143:Vendor_HAL/ST/STM32F4xx_HAL_Driver/Src/stm32f4xx_hal_rcc.c ****          (#) CSS (Clock security system), once enable using the macro __HAL_RCC_CSS_ENABLE()
 144:Vendor_HAL/ST/STM32F4xx_HAL_Driver/Src/stm32f4xx_hal_rcc.c ****              and if a HSE clock failure occurs(HSE used directly or through PLL as System
ARM GAS  C:\Users\katre\AppData\Local\Temp\ccsaao4d.s 			page 4


 145:Vendor_HAL/ST/STM32F4xx_HAL_Driver/Src/stm32f4xx_hal_rcc.c ****              clock source), the System clocks automatically switched to HSI and an interrupt
 146:Vendor_HAL/ST/STM32F4xx_HAL_Driver/Src/stm32f4xx_hal_rcc.c ****              is generated if enabled. The interrupt is linked to the Cortex-M4 NMI
 147:Vendor_HAL/ST/STM32F4xx_HAL_Driver/Src/stm32f4xx_hal_rcc.c ****              (Non-Maskable Interrupt) exception vector.
 148:Vendor_HAL/ST/STM32F4xx_HAL_Driver/Src/stm32f4xx_hal_rcc.c **** 
 149:Vendor_HAL/ST/STM32F4xx_HAL_Driver/Src/stm32f4xx_hal_rcc.c ****          (#) MCO1 (microcontroller clock output), used to output HSI, LSE, HSE or PLL
 150:Vendor_HAL/ST/STM32F4xx_HAL_Driver/Src/stm32f4xx_hal_rcc.c ****              clock (through a configurable prescaler) on PA8 pin.
 151:Vendor_HAL/ST/STM32F4xx_HAL_Driver/Src/stm32f4xx_hal_rcc.c **** 
 152:Vendor_HAL/ST/STM32F4xx_HAL_Driver/Src/stm32f4xx_hal_rcc.c ****          (#) MCO2 (microcontroller clock output), used to output HSE, PLL, SYSCLK or PLLI2S
 153:Vendor_HAL/ST/STM32F4xx_HAL_Driver/Src/stm32f4xx_hal_rcc.c ****              clock (through a configurable prescaler) on PC9 pin.
 154:Vendor_HAL/ST/STM32F4xx_HAL_Driver/Src/stm32f4xx_hal_rcc.c **** 
 155:Vendor_HAL/ST/STM32F4xx_HAL_Driver/Src/stm32f4xx_hal_rcc.c ****     [..] System, AHB and APB busses clocks configuration
 156:Vendor_HAL/ST/STM32F4xx_HAL_Driver/Src/stm32f4xx_hal_rcc.c ****          (#) Several clock sources can be used to drive the System clock (SYSCLK): HSI,
 157:Vendor_HAL/ST/STM32F4xx_HAL_Driver/Src/stm32f4xx_hal_rcc.c ****              HSE and PLL.
 158:Vendor_HAL/ST/STM32F4xx_HAL_Driver/Src/stm32f4xx_hal_rcc.c ****              The AHB clock (HCLK) is derived from System clock through configurable
 159:Vendor_HAL/ST/STM32F4xx_HAL_Driver/Src/stm32f4xx_hal_rcc.c ****              prescaler and used to clock the CPU, memory and peripherals mapped
 160:Vendor_HAL/ST/STM32F4xx_HAL_Driver/Src/stm32f4xx_hal_rcc.c ****              on AHB bus (DMA, GPIO...). APB1 (PCLK1) and APB2 (PCLK2) clocks are derived
 161:Vendor_HAL/ST/STM32F4xx_HAL_Driver/Src/stm32f4xx_hal_rcc.c ****              from AHB clock through configurable prescalers and used to clock
 162:Vendor_HAL/ST/STM32F4xx_HAL_Driver/Src/stm32f4xx_hal_rcc.c ****              the peripherals mapped on these busses. You can use
 163:Vendor_HAL/ST/STM32F4xx_HAL_Driver/Src/stm32f4xx_hal_rcc.c ****              "HAL_RCC_GetSysClockFreq()" function to retrieve the frequencies of these clocks.
 164:Vendor_HAL/ST/STM32F4xx_HAL_Driver/Src/stm32f4xx_hal_rcc.c **** 
 165:Vendor_HAL/ST/STM32F4xx_HAL_Driver/Src/stm32f4xx_hal_rcc.c ****          (#) For the STM32F405xx/07xx and STM32F415xx/17xx devices, the maximum
 166:Vendor_HAL/ST/STM32F4xx_HAL_Driver/Src/stm32f4xx_hal_rcc.c ****              frequency of the SYSCLK and HCLK is 168 MHz, PCLK2 84 MHz and PCLK1 42 MHz.
 167:Vendor_HAL/ST/STM32F4xx_HAL_Driver/Src/stm32f4xx_hal_rcc.c ****              Depending on the device voltage range, the maximum frequency should
 168:Vendor_HAL/ST/STM32F4xx_HAL_Driver/Src/stm32f4xx_hal_rcc.c ****              be adapted accordingly (refer to the product datasheets for more details).
 169:Vendor_HAL/ST/STM32F4xx_HAL_Driver/Src/stm32f4xx_hal_rcc.c **** 
 170:Vendor_HAL/ST/STM32F4xx_HAL_Driver/Src/stm32f4xx_hal_rcc.c ****          (#) For the STM32F42xxx, STM32F43xxx, STM32F446xx, STM32F469xx and STM32F479xx devices,
 171:Vendor_HAL/ST/STM32F4xx_HAL_Driver/Src/stm32f4xx_hal_rcc.c ****              the maximum frequency of the SYSCLK and HCLK is 180 MHz, PCLK2 90 MHz and PCLK1 45 MHz
 172:Vendor_HAL/ST/STM32F4xx_HAL_Driver/Src/stm32f4xx_hal_rcc.c ****              Depending on the device voltage range, the maximum frequency should
 173:Vendor_HAL/ST/STM32F4xx_HAL_Driver/Src/stm32f4xx_hal_rcc.c ****              be adapted accordingly (refer to the product datasheets for more details).
 174:Vendor_HAL/ST/STM32F4xx_HAL_Driver/Src/stm32f4xx_hal_rcc.c **** 
 175:Vendor_HAL/ST/STM32F4xx_HAL_Driver/Src/stm32f4xx_hal_rcc.c ****          (#) For the STM32F401xx, the maximum frequency of the SYSCLK and HCLK is 84 MHz,
 176:Vendor_HAL/ST/STM32F4xx_HAL_Driver/Src/stm32f4xx_hal_rcc.c ****              PCLK2 84 MHz and PCLK1 42 MHz.
 177:Vendor_HAL/ST/STM32F4xx_HAL_Driver/Src/stm32f4xx_hal_rcc.c ****              Depending on the device voltage range, the maximum frequency should
 178:Vendor_HAL/ST/STM32F4xx_HAL_Driver/Src/stm32f4xx_hal_rcc.c ****              be adapted accordingly (refer to the product datasheets for more details).
 179:Vendor_HAL/ST/STM32F4xx_HAL_Driver/Src/stm32f4xx_hal_rcc.c **** 
 180:Vendor_HAL/ST/STM32F4xx_HAL_Driver/Src/stm32f4xx_hal_rcc.c ****          (#) For the STM32F41xxx, the maximum frequency of the SYSCLK and HCLK is 100 MHz,
 181:Vendor_HAL/ST/STM32F4xx_HAL_Driver/Src/stm32f4xx_hal_rcc.c ****              PCLK2 100 MHz and PCLK1 50 MHz.
 182:Vendor_HAL/ST/STM32F4xx_HAL_Driver/Src/stm32f4xx_hal_rcc.c ****              Depending on the device voltage range, the maximum frequency should
 183:Vendor_HAL/ST/STM32F4xx_HAL_Driver/Src/stm32f4xx_hal_rcc.c ****              be adapted accordingly (refer to the product datasheets for more details).
 184:Vendor_HAL/ST/STM32F4xx_HAL_Driver/Src/stm32f4xx_hal_rcc.c **** 
 185:Vendor_HAL/ST/STM32F4xx_HAL_Driver/Src/stm32f4xx_hal_rcc.c **** @endverbatim
 186:Vendor_HAL/ST/STM32F4xx_HAL_Driver/Src/stm32f4xx_hal_rcc.c ****   * @{
 187:Vendor_HAL/ST/STM32F4xx_HAL_Driver/Src/stm32f4xx_hal_rcc.c ****   */
 188:Vendor_HAL/ST/STM32F4xx_HAL_Driver/Src/stm32f4xx_hal_rcc.c **** 
 189:Vendor_HAL/ST/STM32F4xx_HAL_Driver/Src/stm32f4xx_hal_rcc.c **** /**
 190:Vendor_HAL/ST/STM32F4xx_HAL_Driver/Src/stm32f4xx_hal_rcc.c ****   * @brief  Resets the RCC clock configuration to the default reset state.
 191:Vendor_HAL/ST/STM32F4xx_HAL_Driver/Src/stm32f4xx_hal_rcc.c ****   * @note   The default reset state of the clock configuration is given below:
 192:Vendor_HAL/ST/STM32F4xx_HAL_Driver/Src/stm32f4xx_hal_rcc.c ****   *            - HSI ON and used as system clock source
 193:Vendor_HAL/ST/STM32F4xx_HAL_Driver/Src/stm32f4xx_hal_rcc.c ****   *            - HSE and PLL OFF
 194:Vendor_HAL/ST/STM32F4xx_HAL_Driver/Src/stm32f4xx_hal_rcc.c ****   *            - AHB, APB1 and APB2 prescaler set to 1.
 195:Vendor_HAL/ST/STM32F4xx_HAL_Driver/Src/stm32f4xx_hal_rcc.c ****   *            - CSS, MCO1 and MCO2 OFF
 196:Vendor_HAL/ST/STM32F4xx_HAL_Driver/Src/stm32f4xx_hal_rcc.c ****   *            - All interrupts disabled
 197:Vendor_HAL/ST/STM32F4xx_HAL_Driver/Src/stm32f4xx_hal_rcc.c ****   * @note   This function doesn't modify the configuration of the
 198:Vendor_HAL/ST/STM32F4xx_HAL_Driver/Src/stm32f4xx_hal_rcc.c ****   *            - Peripheral clocks
 199:Vendor_HAL/ST/STM32F4xx_HAL_Driver/Src/stm32f4xx_hal_rcc.c ****   *            - LSI, LSE and RTC clocks
 200:Vendor_HAL/ST/STM32F4xx_HAL_Driver/Src/stm32f4xx_hal_rcc.c ****   * @retval HAL status
 201:Vendor_HAL/ST/STM32F4xx_HAL_Driver/Src/stm32f4xx_hal_rcc.c ****   */
ARM GAS  C:\Users\katre\AppData\Local\Temp\ccsaao4d.s 			page 5


 202:Vendor_HAL/ST/STM32F4xx_HAL_Driver/Src/stm32f4xx_hal_rcc.c **** __weak HAL_StatusTypeDef HAL_RCC_DeInit(void)
 203:Vendor_HAL/ST/STM32F4xx_HAL_Driver/Src/stm32f4xx_hal_rcc.c **** {
  29              		.loc 1 203 1 view -0
  30              		.cfi_startproc
  31              		@ args = 0, pretend = 0, frame = 0
  32              		@ frame_needed = 0, uses_anonymous_args = 0
  33              		@ link register save eliminated.
 204:Vendor_HAL/ST/STM32F4xx_HAL_Driver/Src/stm32f4xx_hal_rcc.c ****   return HAL_OK;
  34              		.loc 1 204 3 view .LVU1
 205:Vendor_HAL/ST/STM32F4xx_HAL_Driver/Src/stm32f4xx_hal_rcc.c **** }
  35              		.loc 1 205 1 is_stmt 0 view .LVU2
  36 0000 0020     		movs	r0, #0
  37 0002 7047     		bx	lr
  38              		.cfi_endproc
  39              	.LFE130:
  41              		.section	.rodata.HAL_RCC_OscConfig.str1.4,"aMS",%progbits,1
  42              		.align	2
  43              	.LC0:
  44 0000 56656E64 		.ascii	"Vendor_HAL/ST/STM32F4xx_HAL_Driver/Src/stm32f4xx_ha"
  44      6F725F48 
  44      414C2F53 
  44      542F5354 
  44      4D333246 
  45 0033 6C5F7263 		.ascii	"l_rcc.c\000"
  45      632E6300 
  46              		.section	.text.HAL_RCC_OscConfig,"ax",%progbits
  47              		.align	1
  48              		.weak	HAL_RCC_OscConfig
  49              		.syntax unified
  50              		.thumb
  51              		.thumb_func
  53              	HAL_RCC_OscConfig:
  54              	.LVL0:
  55              	.LFB131:
 206:Vendor_HAL/ST/STM32F4xx_HAL_Driver/Src/stm32f4xx_hal_rcc.c **** 
 207:Vendor_HAL/ST/STM32F4xx_HAL_Driver/Src/stm32f4xx_hal_rcc.c **** /**
 208:Vendor_HAL/ST/STM32F4xx_HAL_Driver/Src/stm32f4xx_hal_rcc.c ****   * @brief  Initializes the RCC Oscillators according to the specified parameters in the
 209:Vendor_HAL/ST/STM32F4xx_HAL_Driver/Src/stm32f4xx_hal_rcc.c ****   *         RCC_OscInitTypeDef.
 210:Vendor_HAL/ST/STM32F4xx_HAL_Driver/Src/stm32f4xx_hal_rcc.c ****   * @param  RCC_OscInitStruct pointer to an RCC_OscInitTypeDef structure that
 211:Vendor_HAL/ST/STM32F4xx_HAL_Driver/Src/stm32f4xx_hal_rcc.c ****   *         contains the configuration information for the RCC Oscillators.
 212:Vendor_HAL/ST/STM32F4xx_HAL_Driver/Src/stm32f4xx_hal_rcc.c ****   * @note   The PLL is not disabled when used as system clock.
 213:Vendor_HAL/ST/STM32F4xx_HAL_Driver/Src/stm32f4xx_hal_rcc.c ****   * @note   Transitions LSE Bypass to LSE On and LSE On to LSE Bypass are not
 214:Vendor_HAL/ST/STM32F4xx_HAL_Driver/Src/stm32f4xx_hal_rcc.c ****   *         supported by this API. User should request a transition to LSE Off
 215:Vendor_HAL/ST/STM32F4xx_HAL_Driver/Src/stm32f4xx_hal_rcc.c ****   *         first and then LSE On or LSE Bypass.
 216:Vendor_HAL/ST/STM32F4xx_HAL_Driver/Src/stm32f4xx_hal_rcc.c ****   * @note   Transition HSE Bypass to HSE On and HSE On to HSE Bypass are not
 217:Vendor_HAL/ST/STM32F4xx_HAL_Driver/Src/stm32f4xx_hal_rcc.c ****   *         supported by this API. User should request a transition to HSE Off
 218:Vendor_HAL/ST/STM32F4xx_HAL_Driver/Src/stm32f4xx_hal_rcc.c ****   *         first and then HSE On or HSE Bypass.
 219:Vendor_HAL/ST/STM32F4xx_HAL_Driver/Src/stm32f4xx_hal_rcc.c ****   * @retval HAL status
 220:Vendor_HAL/ST/STM32F4xx_HAL_Driver/Src/stm32f4xx_hal_rcc.c ****   */
 221:Vendor_HAL/ST/STM32F4xx_HAL_Driver/Src/stm32f4xx_hal_rcc.c **** __weak HAL_StatusTypeDef HAL_RCC_OscConfig(RCC_OscInitTypeDef  *RCC_OscInitStruct)
 222:Vendor_HAL/ST/STM32F4xx_HAL_Driver/Src/stm32f4xx_hal_rcc.c **** {
  56              		.loc 1 222 1 is_stmt 1 view -0
  57              		.cfi_startproc
  58              		@ args = 0, pretend = 0, frame = 8
  59              		@ frame_needed = 0, uses_anonymous_args = 0
 223:Vendor_HAL/ST/STM32F4xx_HAL_Driver/Src/stm32f4xx_hal_rcc.c ****   uint32_t tickstart, pll_config;
  60              		.loc 1 223 3 view .LVU4
ARM GAS  C:\Users\katre\AppData\Local\Temp\ccsaao4d.s 			page 6


 224:Vendor_HAL/ST/STM32F4xx_HAL_Driver/Src/stm32f4xx_hal_rcc.c **** 
 225:Vendor_HAL/ST/STM32F4xx_HAL_Driver/Src/stm32f4xx_hal_rcc.c ****   /* Check Null pointer */
 226:Vendor_HAL/ST/STM32F4xx_HAL_Driver/Src/stm32f4xx_hal_rcc.c ****   if(RCC_OscInitStruct == NULL)
  61              		.loc 1 226 3 view .LVU5
  62              		.loc 1 226 5 is_stmt 0 view .LVU6
  63 0000 0028     		cmp	r0, #0
  64 0002 00F06382 		beq	.L64
 222:Vendor_HAL/ST/STM32F4xx_HAL_Driver/Src/stm32f4xx_hal_rcc.c ****   uint32_t tickstart, pll_config;
  65              		.loc 1 222 1 view .LVU7
  66 0006 70B5     		push	{r4, r5, r6, lr}
  67              	.LCFI0:
  68              		.cfi_def_cfa_offset 16
  69              		.cfi_offset 4, -16
  70              		.cfi_offset 5, -12
  71              		.cfi_offset 6, -8
  72              		.cfi_offset 14, -4
  73 0008 82B0     		sub	sp, sp, #8
  74              	.LCFI1:
  75              		.cfi_def_cfa_offset 24
  76 000a 0446     		mov	r4, r0
 227:Vendor_HAL/ST/STM32F4xx_HAL_Driver/Src/stm32f4xx_hal_rcc.c ****   {
 228:Vendor_HAL/ST/STM32F4xx_HAL_Driver/Src/stm32f4xx_hal_rcc.c ****     return HAL_ERROR;
 229:Vendor_HAL/ST/STM32F4xx_HAL_Driver/Src/stm32f4xx_hal_rcc.c ****   }
 230:Vendor_HAL/ST/STM32F4xx_HAL_Driver/Src/stm32f4xx_hal_rcc.c **** 
 231:Vendor_HAL/ST/STM32F4xx_HAL_Driver/Src/stm32f4xx_hal_rcc.c ****   /* Check the parameters */
 232:Vendor_HAL/ST/STM32F4xx_HAL_Driver/Src/stm32f4xx_hal_rcc.c ****   assert_param(IS_RCC_OSCILLATORTYPE(RCC_OscInitStruct->OscillatorType));
  77              		.loc 1 232 3 is_stmt 1 view .LVU8
  78 000c 0368     		ldr	r3, [r0]
  79 000e 0F2B     		cmp	r3, #15
  80 0010 39D8     		bhi	.L92
  81              	.LVL1:
  82              	.L4:
 233:Vendor_HAL/ST/STM32F4xx_HAL_Driver/Src/stm32f4xx_hal_rcc.c ****   /*------------------------------- HSE Configuration ------------------------*/
 234:Vendor_HAL/ST/STM32F4xx_HAL_Driver/Src/stm32f4xx_hal_rcc.c ****   if(((RCC_OscInitStruct->OscillatorType) & RCC_OSCILLATORTYPE_HSE) == RCC_OSCILLATORTYPE_HSE)
  83              		.loc 1 234 3 view .LVU9
  84              		.loc 1 234 25 is_stmt 0 view .LVU10
  85 0012 2368     		ldr	r3, [r4]
  86              		.loc 1 234 5 view .LVU11
  87 0014 13F0010F 		tst	r3, #1
  88 0018 4DD0     		beq	.L5
 235:Vendor_HAL/ST/STM32F4xx_HAL_Driver/Src/stm32f4xx_hal_rcc.c ****   {
 236:Vendor_HAL/ST/STM32F4xx_HAL_Driver/Src/stm32f4xx_hal_rcc.c ****     /* Check the parameters */
 237:Vendor_HAL/ST/STM32F4xx_HAL_Driver/Src/stm32f4xx_hal_rcc.c ****     assert_param(IS_RCC_HSE(RCC_OscInitStruct->HSEState));
  89              		.loc 1 237 5 is_stmt 1 view .LVU12
  90 001a 6368     		ldr	r3, [r4, #4]
  91 001c 2BB1     		cbz	r3, .L6
  92              		.loc 1 237 5 is_stmt 0 discriminator 1 view .LVU13
  93 001e B3F5803F 		cmp	r3, #65536
  94 0022 02D0     		beq	.L6
  95              		.loc 1 237 5 discriminator 2 view .LVU14
  96 0024 B3F5A02F 		cmp	r3, #327680
  97 0028 32D1     		bne	.L93
  98              	.L6:
 238:Vendor_HAL/ST/STM32F4xx_HAL_Driver/Src/stm32f4xx_hal_rcc.c ****     /* When the HSE is used as system clock or clock source for PLL in these cases HSE will not dis
 239:Vendor_HAL/ST/STM32F4xx_HAL_Driver/Src/stm32f4xx_hal_rcc.c ****     if((__HAL_RCC_GET_SYSCLK_SOURCE() == RCC_CFGR_SWS_HSE) ||\
  99              		.loc 1 239 5 is_stmt 1 view .LVU15
 100              		.loc 1 239 9 is_stmt 0 view .LVU16
ARM GAS  C:\Users\katre\AppData\Local\Temp\ccsaao4d.s 			page 7


 101 002a 804B     		ldr	r3, .L117
 102 002c 9B68     		ldr	r3, [r3, #8]
 103 002e 03F00C03 		and	r3, r3, #12
 104              		.loc 1 239 7 view .LVU17
 105 0032 042B     		cmp	r3, #4
 106 0034 36D0     		beq	.L7
 240:Vendor_HAL/ST/STM32F4xx_HAL_Driver/Src/stm32f4xx_hal_rcc.c ****       ((__HAL_RCC_GET_SYSCLK_SOURCE() == RCC_CFGR_SWS_PLL) && ((RCC->PLLCFGR & RCC_PLLCFGR_PLLSRC) 
 107              		.loc 1 240 9 discriminator 1 view .LVU18
 108 0036 7D4B     		ldr	r3, .L117
 109 0038 9B68     		ldr	r3, [r3, #8]
 110 003a 03F00C03 		and	r3, r3, #12
 239:Vendor_HAL/ST/STM32F4xx_HAL_Driver/Src/stm32f4xx_hal_rcc.c ****       ((__HAL_RCC_GET_SYSCLK_SOURCE() == RCC_CFGR_SWS_PLL) && ((RCC->PLLCFGR & RCC_PLLCFGR_PLLSRC) 
 111              		.loc 1 239 60 discriminator 1 view .LVU19
 112 003e 082B     		cmp	r3, #8
 113 0040 2BD0     		beq	.L94
 114              	.L8:
 241:Vendor_HAL/ST/STM32F4xx_HAL_Driver/Src/stm32f4xx_hal_rcc.c ****     {
 242:Vendor_HAL/ST/STM32F4xx_HAL_Driver/Src/stm32f4xx_hal_rcc.c ****       if((__HAL_RCC_GET_FLAG(RCC_FLAG_HSERDY) != RESET) && (RCC_OscInitStruct->HSEState == RCC_HSE_
 243:Vendor_HAL/ST/STM32F4xx_HAL_Driver/Src/stm32f4xx_hal_rcc.c ****       {
 244:Vendor_HAL/ST/STM32F4xx_HAL_Driver/Src/stm32f4xx_hal_rcc.c ****         return HAL_ERROR;
 245:Vendor_HAL/ST/STM32F4xx_HAL_Driver/Src/stm32f4xx_hal_rcc.c ****       }
 246:Vendor_HAL/ST/STM32F4xx_HAL_Driver/Src/stm32f4xx_hal_rcc.c ****     }
 247:Vendor_HAL/ST/STM32F4xx_HAL_Driver/Src/stm32f4xx_hal_rcc.c ****     else
 248:Vendor_HAL/ST/STM32F4xx_HAL_Driver/Src/stm32f4xx_hal_rcc.c ****     {
 249:Vendor_HAL/ST/STM32F4xx_HAL_Driver/Src/stm32f4xx_hal_rcc.c ****       /* Set the new HSE configuration ---------------------------------------*/
 250:Vendor_HAL/ST/STM32F4xx_HAL_Driver/Src/stm32f4xx_hal_rcc.c ****       __HAL_RCC_HSE_CONFIG(RCC_OscInitStruct->HSEState);
 115              		.loc 1 250 7 is_stmt 1 view .LVU20
 116              		.loc 1 250 7 view .LVU21
 117 0042 6368     		ldr	r3, [r4, #4]
 118 0044 B3F5803F 		cmp	r3, #65536
 119 0048 5FD0     		beq	.L95
 120              		.loc 1 250 7 discriminator 2 view .LVU22
 121 004a B3F5A02F 		cmp	r3, #327680
 122 004e 62D0     		beq	.L96
 123              		.loc 1 250 7 discriminator 5 view .LVU23
 124 0050 764B     		ldr	r3, .L117
 125 0052 1A68     		ldr	r2, [r3]
 126 0054 22F48032 		bic	r2, r2, #65536
 127 0058 1A60     		str	r2, [r3]
 128              		.loc 1 250 7 discriminator 5 view .LVU24
 129 005a 1A68     		ldr	r2, [r3]
 130 005c 22F48022 		bic	r2, r2, #262144
 131 0060 1A60     		str	r2, [r3]
 132              	.L10:
 133              		.loc 1 250 7 discriminator 7 view .LVU25
 251:Vendor_HAL/ST/STM32F4xx_HAL_Driver/Src/stm32f4xx_hal_rcc.c **** 
 252:Vendor_HAL/ST/STM32F4xx_HAL_Driver/Src/stm32f4xx_hal_rcc.c ****       /* Check the HSE State */
 253:Vendor_HAL/ST/STM32F4xx_HAL_Driver/Src/stm32f4xx_hal_rcc.c ****       if((RCC_OscInitStruct->HSEState) != RCC_HSE_OFF)
 134              		.loc 1 253 7 discriminator 7 view .LVU26
 135              		.loc 1 253 28 is_stmt 0 discriminator 7 view .LVU27
 136 0062 6368     		ldr	r3, [r4, #4]
 137              		.loc 1 253 9 discriminator 7 view .LVU28
 138 0064 002B     		cmp	r3, #0
 139 0066 60D0     		beq	.L12
 254:Vendor_HAL/ST/STM32F4xx_HAL_Driver/Src/stm32f4xx_hal_rcc.c ****       {
 255:Vendor_HAL/ST/STM32F4xx_HAL_Driver/Src/stm32f4xx_hal_rcc.c ****         /* Get Start Tick */
 256:Vendor_HAL/ST/STM32F4xx_HAL_Driver/Src/stm32f4xx_hal_rcc.c ****         tickstart = HAL_GetTick();
ARM GAS  C:\Users\katre\AppData\Local\Temp\ccsaao4d.s 			page 8


 140              		.loc 1 256 9 is_stmt 1 view .LVU29
 141              		.loc 1 256 21 is_stmt 0 view .LVU30
 142 0068 FFF7FEFF 		bl	HAL_GetTick
 143              	.LVL2:
 144 006c 0546     		mov	r5, r0
 145              	.LVL3:
 257:Vendor_HAL/ST/STM32F4xx_HAL_Driver/Src/stm32f4xx_hal_rcc.c **** 
 258:Vendor_HAL/ST/STM32F4xx_HAL_Driver/Src/stm32f4xx_hal_rcc.c ****         /* Wait till HSE is ready */
 259:Vendor_HAL/ST/STM32F4xx_HAL_Driver/Src/stm32f4xx_hal_rcc.c ****         while(__HAL_RCC_GET_FLAG(RCC_FLAG_HSERDY) == RESET)
 146              		.loc 1 259 9 is_stmt 1 view .LVU31
 147              	.L13:
 148              		.loc 1 259 14 view .LVU32
 149              		.loc 1 259 15 is_stmt 0 view .LVU33
 150 006e 6F4B     		ldr	r3, .L117
 151 0070 1B68     		ldr	r3, [r3]
 152              		.loc 1 259 14 view .LVU34
 153 0072 13F4003F 		tst	r3, #131072
 154 0076 1ED1     		bne	.L5
 260:Vendor_HAL/ST/STM32F4xx_HAL_Driver/Src/stm32f4xx_hal_rcc.c ****         {
 261:Vendor_HAL/ST/STM32F4xx_HAL_Driver/Src/stm32f4xx_hal_rcc.c ****           if((HAL_GetTick() - tickstart ) > HSE_TIMEOUT_VALUE)
 155              		.loc 1 261 11 is_stmt 1 view .LVU35
 156              		.loc 1 261 15 is_stmt 0 view .LVU36
 157 0078 FFF7FEFF 		bl	HAL_GetTick
 158              	.LVL4:
 159              		.loc 1 261 29 view .LVU37
 160 007c 401B     		subs	r0, r0, r5
 161              		.loc 1 261 13 view .LVU38
 162 007e 6428     		cmp	r0, #100
 163 0080 F5D9     		bls	.L13
 262:Vendor_HAL/ST/STM32F4xx_HAL_Driver/Src/stm32f4xx_hal_rcc.c ****           {
 263:Vendor_HAL/ST/STM32F4xx_HAL_Driver/Src/stm32f4xx_hal_rcc.c ****             return HAL_TIMEOUT;
 164              		.loc 1 263 20 view .LVU39
 165 0082 0320     		movs	r0, #3
 166 0084 31E2     		b	.L3
 167              	.LVL5:
 168              	.L92:
 232:Vendor_HAL/ST/STM32F4xx_HAL_Driver/Src/stm32f4xx_hal_rcc.c ****   /*------------------------------- HSE Configuration ------------------------*/
 169              		.loc 1 232 3 discriminator 1 view .LVU40
 170 0086 E821     		movs	r1, #232
 171 0088 6948     		ldr	r0, .L117+4
 172              	.LVL6:
 232:Vendor_HAL/ST/STM32F4xx_HAL_Driver/Src/stm32f4xx_hal_rcc.c ****   /*------------------------------- HSE Configuration ------------------------*/
 173              		.loc 1 232 3 discriminator 1 view .LVU41
 174 008a FFF7FEFF 		bl	assert_failed
 175              	.LVL7:
 176 008e C0E7     		b	.L4
 177              	.L93:
 237:Vendor_HAL/ST/STM32F4xx_HAL_Driver/Src/stm32f4xx_hal_rcc.c ****     /* When the HSE is used as system clock or clock source for PLL in these cases HSE will not dis
 178              		.loc 1 237 5 discriminator 3 view .LVU42
 179 0090 ED21     		movs	r1, #237
 180 0092 6748     		ldr	r0, .L117+4
 181 0094 FFF7FEFF 		bl	assert_failed
 182              	.LVL8:
 183 0098 C7E7     		b	.L6
 184              	.L94:
 240:Vendor_HAL/ST/STM32F4xx_HAL_Driver/Src/stm32f4xx_hal_rcc.c ****     {
 185              		.loc 1 240 68 view .LVU43
ARM GAS  C:\Users\katre\AppData\Local\Temp\ccsaao4d.s 			page 9


 186 009a 644B     		ldr	r3, .L117
 187 009c 5B68     		ldr	r3, [r3, #4]
 240:Vendor_HAL/ST/STM32F4xx_HAL_Driver/Src/stm32f4xx_hal_rcc.c ****     {
 188              		.loc 1 240 60 view .LVU44
 189 009e 13F4800F 		tst	r3, #4194304
 190 00a2 CED0     		beq	.L8
 191              	.L7:
 242:Vendor_HAL/ST/STM32F4xx_HAL_Driver/Src/stm32f4xx_hal_rcc.c ****       {
 192              		.loc 1 242 7 is_stmt 1 view .LVU45
 242:Vendor_HAL/ST/STM32F4xx_HAL_Driver/Src/stm32f4xx_hal_rcc.c ****       {
 193              		.loc 1 242 11 is_stmt 0 view .LVU46
 194 00a4 614B     		ldr	r3, .L117
 195 00a6 1B68     		ldr	r3, [r3]
 242:Vendor_HAL/ST/STM32F4xx_HAL_Driver/Src/stm32f4xx_hal_rcc.c ****       {
 196              		.loc 1 242 9 view .LVU47
 197 00a8 13F4003F 		tst	r3, #131072
 198 00ac 03D0     		beq	.L5
 242:Vendor_HAL/ST/STM32F4xx_HAL_Driver/Src/stm32f4xx_hal_rcc.c ****       {
 199              		.loc 1 242 78 discriminator 1 view .LVU48
 200 00ae 6368     		ldr	r3, [r4, #4]
 242:Vendor_HAL/ST/STM32F4xx_HAL_Driver/Src/stm32f4xx_hal_rcc.c ****       {
 201              		.loc 1 242 57 discriminator 1 view .LVU49
 202 00b0 002B     		cmp	r3, #0
 203 00b2 00F00D82 		beq	.L97
 204              	.L5:
 264:Vendor_HAL/ST/STM32F4xx_HAL_Driver/Src/stm32f4xx_hal_rcc.c ****           }
 265:Vendor_HAL/ST/STM32F4xx_HAL_Driver/Src/stm32f4xx_hal_rcc.c ****         }
 266:Vendor_HAL/ST/STM32F4xx_HAL_Driver/Src/stm32f4xx_hal_rcc.c ****       }
 267:Vendor_HAL/ST/STM32F4xx_HAL_Driver/Src/stm32f4xx_hal_rcc.c ****       else
 268:Vendor_HAL/ST/STM32F4xx_HAL_Driver/Src/stm32f4xx_hal_rcc.c ****       {
 269:Vendor_HAL/ST/STM32F4xx_HAL_Driver/Src/stm32f4xx_hal_rcc.c ****         /* Get Start Tick */
 270:Vendor_HAL/ST/STM32F4xx_HAL_Driver/Src/stm32f4xx_hal_rcc.c ****         tickstart = HAL_GetTick();
 271:Vendor_HAL/ST/STM32F4xx_HAL_Driver/Src/stm32f4xx_hal_rcc.c **** 
 272:Vendor_HAL/ST/STM32F4xx_HAL_Driver/Src/stm32f4xx_hal_rcc.c ****         /* Wait till HSE is bypassed or disabled */
 273:Vendor_HAL/ST/STM32F4xx_HAL_Driver/Src/stm32f4xx_hal_rcc.c ****         while(__HAL_RCC_GET_FLAG(RCC_FLAG_HSERDY) != RESET)
 274:Vendor_HAL/ST/STM32F4xx_HAL_Driver/Src/stm32f4xx_hal_rcc.c ****         {
 275:Vendor_HAL/ST/STM32F4xx_HAL_Driver/Src/stm32f4xx_hal_rcc.c ****           if((HAL_GetTick() - tickstart ) > HSE_TIMEOUT_VALUE)
 276:Vendor_HAL/ST/STM32F4xx_HAL_Driver/Src/stm32f4xx_hal_rcc.c ****           {
 277:Vendor_HAL/ST/STM32F4xx_HAL_Driver/Src/stm32f4xx_hal_rcc.c ****             return HAL_TIMEOUT;
 278:Vendor_HAL/ST/STM32F4xx_HAL_Driver/Src/stm32f4xx_hal_rcc.c ****           }
 279:Vendor_HAL/ST/STM32F4xx_HAL_Driver/Src/stm32f4xx_hal_rcc.c ****         }
 280:Vendor_HAL/ST/STM32F4xx_HAL_Driver/Src/stm32f4xx_hal_rcc.c ****       }
 281:Vendor_HAL/ST/STM32F4xx_HAL_Driver/Src/stm32f4xx_hal_rcc.c ****     }
 282:Vendor_HAL/ST/STM32F4xx_HAL_Driver/Src/stm32f4xx_hal_rcc.c ****   }
 283:Vendor_HAL/ST/STM32F4xx_HAL_Driver/Src/stm32f4xx_hal_rcc.c ****   /*----------------------------- HSI Configuration --------------------------*/
 284:Vendor_HAL/ST/STM32F4xx_HAL_Driver/Src/stm32f4xx_hal_rcc.c ****   if(((RCC_OscInitStruct->OscillatorType) & RCC_OSCILLATORTYPE_HSI) == RCC_OSCILLATORTYPE_HSI)
 205              		.loc 1 284 3 is_stmt 1 view .LVU50
 206              		.loc 1 284 25 is_stmt 0 view .LVU51
 207 00b6 2368     		ldr	r3, [r4]
 208              		.loc 1 284 5 view .LVU52
 209 00b8 13F0020F 		tst	r3, #2
 210 00bc 66D0     		beq	.L17
 285:Vendor_HAL/ST/STM32F4xx_HAL_Driver/Src/stm32f4xx_hal_rcc.c ****   {
 286:Vendor_HAL/ST/STM32F4xx_HAL_Driver/Src/stm32f4xx_hal_rcc.c ****     /* Check the parameters */
 287:Vendor_HAL/ST/STM32F4xx_HAL_Driver/Src/stm32f4xx_hal_rcc.c ****     assert_param(IS_RCC_HSI(RCC_OscInitStruct->HSIState));
 211              		.loc 1 287 5 is_stmt 1 view .LVU53
 212 00be E368     		ldr	r3, [r4, #12]
ARM GAS  C:\Users\katre\AppData\Local\Temp\ccsaao4d.s 			page 10


 213 00c0 012B     		cmp	r3, #1
 214 00c2 41D8     		bhi	.L98
 215              	.L18:
 288:Vendor_HAL/ST/STM32F4xx_HAL_Driver/Src/stm32f4xx_hal_rcc.c ****     assert_param(IS_RCC_CALIBRATION_VALUE(RCC_OscInitStruct->HSICalibrationValue));
 216              		.loc 1 288 5 view .LVU54
 217 00c4 2369     		ldr	r3, [r4, #16]
 218 00c6 1F2B     		cmp	r3, #31
 219 00c8 44D8     		bhi	.L99
 220              	.L19:
 289:Vendor_HAL/ST/STM32F4xx_HAL_Driver/Src/stm32f4xx_hal_rcc.c **** 
 290:Vendor_HAL/ST/STM32F4xx_HAL_Driver/Src/stm32f4xx_hal_rcc.c ****     /* Check if HSI is used as system clock or as PLL source when PLL is selected as system clock *
 291:Vendor_HAL/ST/STM32F4xx_HAL_Driver/Src/stm32f4xx_hal_rcc.c ****     if((__HAL_RCC_GET_SYSCLK_SOURCE() == RCC_CFGR_SWS_HSI) ||\
 221              		.loc 1 291 5 view .LVU55
 222              		.loc 1 291 9 is_stmt 0 view .LVU56
 223 00ca 584B     		ldr	r3, .L117
 224 00cc 9B68     		ldr	r3, [r3, #8]
 225              		.loc 1 291 7 view .LVU57
 226 00ce 13F00C0F 		tst	r3, #12
 227 00d2 4AD0     		beq	.L20
 292:Vendor_HAL/ST/STM32F4xx_HAL_Driver/Src/stm32f4xx_hal_rcc.c ****       ((__HAL_RCC_GET_SYSCLK_SOURCE() == RCC_CFGR_SWS_PLL) && ((RCC->PLLCFGR & RCC_PLLCFGR_PLLSRC) 
 228              		.loc 1 292 9 discriminator 1 view .LVU58
 229 00d4 554B     		ldr	r3, .L117
 230 00d6 9B68     		ldr	r3, [r3, #8]
 231 00d8 03F00C03 		and	r3, r3, #12
 291:Vendor_HAL/ST/STM32F4xx_HAL_Driver/Src/stm32f4xx_hal_rcc.c ****       ((__HAL_RCC_GET_SYSCLK_SOURCE() == RCC_CFGR_SWS_PLL) && ((RCC->PLLCFGR & RCC_PLLCFGR_PLLSRC) 
 232              		.loc 1 291 60 discriminator 1 view .LVU59
 233 00dc 082B     		cmp	r3, #8
 234 00de 3FD0     		beq	.L100
 235              	.L21:
 293:Vendor_HAL/ST/STM32F4xx_HAL_Driver/Src/stm32f4xx_hal_rcc.c ****     {
 294:Vendor_HAL/ST/STM32F4xx_HAL_Driver/Src/stm32f4xx_hal_rcc.c ****       /* When HSI is used as system clock it will not disabled */
 295:Vendor_HAL/ST/STM32F4xx_HAL_Driver/Src/stm32f4xx_hal_rcc.c ****       if((__HAL_RCC_GET_FLAG(RCC_FLAG_HSIRDY) != RESET) && (RCC_OscInitStruct->HSIState != RCC_HSI_
 296:Vendor_HAL/ST/STM32F4xx_HAL_Driver/Src/stm32f4xx_hal_rcc.c ****       {
 297:Vendor_HAL/ST/STM32F4xx_HAL_Driver/Src/stm32f4xx_hal_rcc.c ****         return HAL_ERROR;
 298:Vendor_HAL/ST/STM32F4xx_HAL_Driver/Src/stm32f4xx_hal_rcc.c ****       }
 299:Vendor_HAL/ST/STM32F4xx_HAL_Driver/Src/stm32f4xx_hal_rcc.c ****       /* Otherwise, just the calibration is allowed */
 300:Vendor_HAL/ST/STM32F4xx_HAL_Driver/Src/stm32f4xx_hal_rcc.c ****       else
 301:Vendor_HAL/ST/STM32F4xx_HAL_Driver/Src/stm32f4xx_hal_rcc.c ****       {
 302:Vendor_HAL/ST/STM32F4xx_HAL_Driver/Src/stm32f4xx_hal_rcc.c ****         /* Adjusts the Internal High Speed oscillator (HSI) calibration value.*/
 303:Vendor_HAL/ST/STM32F4xx_HAL_Driver/Src/stm32f4xx_hal_rcc.c ****         __HAL_RCC_HSI_CALIBRATIONVALUE_ADJUST(RCC_OscInitStruct->HSICalibrationValue);
 304:Vendor_HAL/ST/STM32F4xx_HAL_Driver/Src/stm32f4xx_hal_rcc.c ****       }
 305:Vendor_HAL/ST/STM32F4xx_HAL_Driver/Src/stm32f4xx_hal_rcc.c ****     }
 306:Vendor_HAL/ST/STM32F4xx_HAL_Driver/Src/stm32f4xx_hal_rcc.c ****     else
 307:Vendor_HAL/ST/STM32F4xx_HAL_Driver/Src/stm32f4xx_hal_rcc.c ****     {
 308:Vendor_HAL/ST/STM32F4xx_HAL_Driver/Src/stm32f4xx_hal_rcc.c ****       /* Check the HSI State */
 309:Vendor_HAL/ST/STM32F4xx_HAL_Driver/Src/stm32f4xx_hal_rcc.c ****       if((RCC_OscInitStruct->HSIState)!= RCC_HSI_OFF)
 236              		.loc 1 309 7 is_stmt 1 view .LVU60
 237              		.loc 1 309 28 is_stmt 0 view .LVU61
 238 00e0 E368     		ldr	r3, [r4, #12]
 239              		.loc 1 309 9 view .LVU62
 240 00e2 002B     		cmp	r3, #0
 241 00e4 77D0     		beq	.L23
 310:Vendor_HAL/ST/STM32F4xx_HAL_Driver/Src/stm32f4xx_hal_rcc.c ****       {
 311:Vendor_HAL/ST/STM32F4xx_HAL_Driver/Src/stm32f4xx_hal_rcc.c ****         /* Enable the Internal High Speed oscillator (HSI). */
 312:Vendor_HAL/ST/STM32F4xx_HAL_Driver/Src/stm32f4xx_hal_rcc.c ****         __HAL_RCC_HSI_ENABLE();
 242              		.loc 1 312 9 is_stmt 1 view .LVU63
 243 00e6 534B     		ldr	r3, .L117+8
ARM GAS  C:\Users\katre\AppData\Local\Temp\ccsaao4d.s 			page 11


 244 00e8 0122     		movs	r2, #1
 245 00ea 1A60     		str	r2, [r3]
 313:Vendor_HAL/ST/STM32F4xx_HAL_Driver/Src/stm32f4xx_hal_rcc.c **** 
 314:Vendor_HAL/ST/STM32F4xx_HAL_Driver/Src/stm32f4xx_hal_rcc.c ****         /* Get Start Tick*/
 315:Vendor_HAL/ST/STM32F4xx_HAL_Driver/Src/stm32f4xx_hal_rcc.c ****         tickstart = HAL_GetTick();
 246              		.loc 1 315 9 view .LVU64
 247              		.loc 1 315 21 is_stmt 0 view .LVU65
 248 00ec FFF7FEFF 		bl	HAL_GetTick
 249              	.LVL9:
 250 00f0 0546     		mov	r5, r0
 251              	.LVL10:
 316:Vendor_HAL/ST/STM32F4xx_HAL_Driver/Src/stm32f4xx_hal_rcc.c **** 
 317:Vendor_HAL/ST/STM32F4xx_HAL_Driver/Src/stm32f4xx_hal_rcc.c ****         /* Wait till HSI is ready */
 318:Vendor_HAL/ST/STM32F4xx_HAL_Driver/Src/stm32f4xx_hal_rcc.c ****         while(__HAL_RCC_GET_FLAG(RCC_FLAG_HSIRDY) == RESET)
 252              		.loc 1 318 9 is_stmt 1 view .LVU66
 253              	.L24:
 254              		.loc 1 318 14 view .LVU67
 255              		.loc 1 318 15 is_stmt 0 view .LVU68
 256 00f2 4E4B     		ldr	r3, .L117
 257 00f4 1B68     		ldr	r3, [r3]
 258              		.loc 1 318 14 view .LVU69
 259 00f6 13F0020F 		tst	r3, #2
 260 00fa 63D1     		bne	.L101
 319:Vendor_HAL/ST/STM32F4xx_HAL_Driver/Src/stm32f4xx_hal_rcc.c ****         {
 320:Vendor_HAL/ST/STM32F4xx_HAL_Driver/Src/stm32f4xx_hal_rcc.c ****           if((HAL_GetTick() - tickstart ) > HSI_TIMEOUT_VALUE)
 261              		.loc 1 320 11 is_stmt 1 view .LVU70
 262              		.loc 1 320 15 is_stmt 0 view .LVU71
 263 00fc FFF7FEFF 		bl	HAL_GetTick
 264              	.LVL11:
 265              		.loc 1 320 29 view .LVU72
 266 0100 401B     		subs	r0, r0, r5
 267              		.loc 1 320 13 view .LVU73
 268 0102 0228     		cmp	r0, #2
 269 0104 F5D9     		bls	.L24
 321:Vendor_HAL/ST/STM32F4xx_HAL_Driver/Src/stm32f4xx_hal_rcc.c ****           {
 322:Vendor_HAL/ST/STM32F4xx_HAL_Driver/Src/stm32f4xx_hal_rcc.c ****             return HAL_TIMEOUT;
 270              		.loc 1 322 20 view .LVU74
 271 0106 0320     		movs	r0, #3
 272 0108 EFE1     		b	.L3
 273              	.LVL12:
 274              	.L95:
 250:Vendor_HAL/ST/STM32F4xx_HAL_Driver/Src/stm32f4xx_hal_rcc.c **** 
 275              		.loc 1 250 7 is_stmt 1 discriminator 1 view .LVU75
 276 010a 484A     		ldr	r2, .L117
 277 010c 1368     		ldr	r3, [r2]
 278 010e 43F48033 		orr	r3, r3, #65536
 279 0112 1360     		str	r3, [r2]
 280 0114 A5E7     		b	.L10
 281              	.L96:
 250:Vendor_HAL/ST/STM32F4xx_HAL_Driver/Src/stm32f4xx_hal_rcc.c **** 
 282              		.loc 1 250 7 discriminator 4 view .LVU76
 283 0116 454B     		ldr	r3, .L117
 284 0118 1A68     		ldr	r2, [r3]
 285 011a 42F48022 		orr	r2, r2, #262144
 286 011e 1A60     		str	r2, [r3]
 250:Vendor_HAL/ST/STM32F4xx_HAL_Driver/Src/stm32f4xx_hal_rcc.c **** 
 287              		.loc 1 250 7 discriminator 4 view .LVU77
ARM GAS  C:\Users\katre\AppData\Local\Temp\ccsaao4d.s 			page 12


 288 0120 1A68     		ldr	r2, [r3]
 289 0122 42F48032 		orr	r2, r2, #65536
 290 0126 1A60     		str	r2, [r3]
 291 0128 9BE7     		b	.L10
 292              	.L12:
 270:Vendor_HAL/ST/STM32F4xx_HAL_Driver/Src/stm32f4xx_hal_rcc.c **** 
 293              		.loc 1 270 9 view .LVU78
 270:Vendor_HAL/ST/STM32F4xx_HAL_Driver/Src/stm32f4xx_hal_rcc.c **** 
 294              		.loc 1 270 21 is_stmt 0 view .LVU79
 295 012a FFF7FEFF 		bl	HAL_GetTick
 296              	.LVL13:
 297 012e 0546     		mov	r5, r0
 298              	.LVL14:
 273:Vendor_HAL/ST/STM32F4xx_HAL_Driver/Src/stm32f4xx_hal_rcc.c ****         {
 299              		.loc 1 273 9 is_stmt 1 view .LVU80
 300              	.L15:
 273:Vendor_HAL/ST/STM32F4xx_HAL_Driver/Src/stm32f4xx_hal_rcc.c ****         {
 301              		.loc 1 273 14 view .LVU81
 273:Vendor_HAL/ST/STM32F4xx_HAL_Driver/Src/stm32f4xx_hal_rcc.c ****         {
 302              		.loc 1 273 15 is_stmt 0 view .LVU82
 303 0130 3E4B     		ldr	r3, .L117
 304 0132 1B68     		ldr	r3, [r3]
 273:Vendor_HAL/ST/STM32F4xx_HAL_Driver/Src/stm32f4xx_hal_rcc.c ****         {
 305              		.loc 1 273 14 view .LVU83
 306 0134 13F4003F 		tst	r3, #131072
 307 0138 BDD0     		beq	.L5
 275:Vendor_HAL/ST/STM32F4xx_HAL_Driver/Src/stm32f4xx_hal_rcc.c ****           {
 308              		.loc 1 275 11 is_stmt 1 view .LVU84
 275:Vendor_HAL/ST/STM32F4xx_HAL_Driver/Src/stm32f4xx_hal_rcc.c ****           {
 309              		.loc 1 275 15 is_stmt 0 view .LVU85
 310 013a FFF7FEFF 		bl	HAL_GetTick
 311              	.LVL15:
 275:Vendor_HAL/ST/STM32F4xx_HAL_Driver/Src/stm32f4xx_hal_rcc.c ****           {
 312              		.loc 1 275 29 view .LVU86
 313 013e 401B     		subs	r0, r0, r5
 275:Vendor_HAL/ST/STM32F4xx_HAL_Driver/Src/stm32f4xx_hal_rcc.c ****           {
 314              		.loc 1 275 13 view .LVU87
 315 0140 6428     		cmp	r0, #100
 316 0142 F5D9     		bls	.L15
 277:Vendor_HAL/ST/STM32F4xx_HAL_Driver/Src/stm32f4xx_hal_rcc.c ****           }
 317              		.loc 1 277 20 view .LVU88
 318 0144 0320     		movs	r0, #3
 319 0146 D0E1     		b	.L3
 320              	.LVL16:
 321              	.L98:
 287:Vendor_HAL/ST/STM32F4xx_HAL_Driver/Src/stm32f4xx_hal_rcc.c ****     assert_param(IS_RCC_CALIBRATION_VALUE(RCC_OscInitStruct->HSICalibrationValue));
 322              		.loc 1 287 5 discriminator 1 view .LVU89
 323 0148 40F21F11 		movw	r1, #287
 324 014c 3848     		ldr	r0, .L117+4
 325 014e FFF7FEFF 		bl	assert_failed
 326              	.LVL17:
 327 0152 B7E7     		b	.L18
 328              	.L99:
 288:Vendor_HAL/ST/STM32F4xx_HAL_Driver/Src/stm32f4xx_hal_rcc.c **** 
 329              		.loc 1 288 5 discriminator 1 view .LVU90
 330 0154 4FF49071 		mov	r1, #288
 331 0158 3548     		ldr	r0, .L117+4
ARM GAS  C:\Users\katre\AppData\Local\Temp\ccsaao4d.s 			page 13


 332 015a FFF7FEFF 		bl	assert_failed
 333              	.LVL18:
 334 015e B4E7     		b	.L19
 335              	.L100:
 292:Vendor_HAL/ST/STM32F4xx_HAL_Driver/Src/stm32f4xx_hal_rcc.c ****     {
 336              		.loc 1 292 68 view .LVU91
 337 0160 324B     		ldr	r3, .L117
 338 0162 5B68     		ldr	r3, [r3, #4]
 292:Vendor_HAL/ST/STM32F4xx_HAL_Driver/Src/stm32f4xx_hal_rcc.c ****     {
 339              		.loc 1 292 60 view .LVU92
 340 0164 13F4800F 		tst	r3, #4194304
 341 0168 BAD1     		bne	.L21
 342              	.L20:
 295:Vendor_HAL/ST/STM32F4xx_HAL_Driver/Src/stm32f4xx_hal_rcc.c ****       {
 343              		.loc 1 295 7 is_stmt 1 view .LVU93
 295:Vendor_HAL/ST/STM32F4xx_HAL_Driver/Src/stm32f4xx_hal_rcc.c ****       {
 344              		.loc 1 295 11 is_stmt 0 view .LVU94
 345 016a 304B     		ldr	r3, .L117
 346 016c 1B68     		ldr	r3, [r3]
 295:Vendor_HAL/ST/STM32F4xx_HAL_Driver/Src/stm32f4xx_hal_rcc.c ****       {
 347              		.loc 1 295 9 view .LVU95
 348 016e 13F0020F 		tst	r3, #2
 349 0172 03D0     		beq	.L22
 295:Vendor_HAL/ST/STM32F4xx_HAL_Driver/Src/stm32f4xx_hal_rcc.c ****       {
 350              		.loc 1 295 78 discriminator 1 view .LVU96
 351 0174 E368     		ldr	r3, [r4, #12]
 295:Vendor_HAL/ST/STM32F4xx_HAL_Driver/Src/stm32f4xx_hal_rcc.c ****       {
 352              		.loc 1 295 57 discriminator 1 view .LVU97
 353 0176 012B     		cmp	r3, #1
 354 0178 40F0AC81 		bne	.L68
 355              	.L22:
 303:Vendor_HAL/ST/STM32F4xx_HAL_Driver/Src/stm32f4xx_hal_rcc.c ****       }
 356              		.loc 1 303 9 is_stmt 1 view .LVU98
 357 017c 2B4A     		ldr	r2, .L117
 358 017e 1368     		ldr	r3, [r2]
 359 0180 23F0F803 		bic	r3, r3, #248
 360 0184 2169     		ldr	r1, [r4, #16]
 361 0186 43EAC103 		orr	r3, r3, r1, lsl #3
 362 018a 1360     		str	r3, [r2]
 363              	.L17:
 323:Vendor_HAL/ST/STM32F4xx_HAL_Driver/Src/stm32f4xx_hal_rcc.c ****           }
 324:Vendor_HAL/ST/STM32F4xx_HAL_Driver/Src/stm32f4xx_hal_rcc.c ****         }
 325:Vendor_HAL/ST/STM32F4xx_HAL_Driver/Src/stm32f4xx_hal_rcc.c **** 
 326:Vendor_HAL/ST/STM32F4xx_HAL_Driver/Src/stm32f4xx_hal_rcc.c ****         /* Adjusts the Internal High Speed oscillator (HSI) calibration value. */
 327:Vendor_HAL/ST/STM32F4xx_HAL_Driver/Src/stm32f4xx_hal_rcc.c ****         __HAL_RCC_HSI_CALIBRATIONVALUE_ADJUST(RCC_OscInitStruct->HSICalibrationValue);
 328:Vendor_HAL/ST/STM32F4xx_HAL_Driver/Src/stm32f4xx_hal_rcc.c ****       }
 329:Vendor_HAL/ST/STM32F4xx_HAL_Driver/Src/stm32f4xx_hal_rcc.c ****       else
 330:Vendor_HAL/ST/STM32F4xx_HAL_Driver/Src/stm32f4xx_hal_rcc.c ****       {
 331:Vendor_HAL/ST/STM32F4xx_HAL_Driver/Src/stm32f4xx_hal_rcc.c ****         /* Disable the Internal High Speed oscillator (HSI). */
 332:Vendor_HAL/ST/STM32F4xx_HAL_Driver/Src/stm32f4xx_hal_rcc.c ****         __HAL_RCC_HSI_DISABLE();
 333:Vendor_HAL/ST/STM32F4xx_HAL_Driver/Src/stm32f4xx_hal_rcc.c **** 
 334:Vendor_HAL/ST/STM32F4xx_HAL_Driver/Src/stm32f4xx_hal_rcc.c ****         /* Get Start Tick*/
 335:Vendor_HAL/ST/STM32F4xx_HAL_Driver/Src/stm32f4xx_hal_rcc.c ****         tickstart = HAL_GetTick();
 336:Vendor_HAL/ST/STM32F4xx_HAL_Driver/Src/stm32f4xx_hal_rcc.c **** 
 337:Vendor_HAL/ST/STM32F4xx_HAL_Driver/Src/stm32f4xx_hal_rcc.c ****         /* Wait till HSI is ready */
 338:Vendor_HAL/ST/STM32F4xx_HAL_Driver/Src/stm32f4xx_hal_rcc.c ****         while(__HAL_RCC_GET_FLAG(RCC_FLAG_HSIRDY) != RESET)
 339:Vendor_HAL/ST/STM32F4xx_HAL_Driver/Src/stm32f4xx_hal_rcc.c ****         {
ARM GAS  C:\Users\katre\AppData\Local\Temp\ccsaao4d.s 			page 14


 340:Vendor_HAL/ST/STM32F4xx_HAL_Driver/Src/stm32f4xx_hal_rcc.c ****           if((HAL_GetTick() - tickstart ) > HSI_TIMEOUT_VALUE)
 341:Vendor_HAL/ST/STM32F4xx_HAL_Driver/Src/stm32f4xx_hal_rcc.c ****           {
 342:Vendor_HAL/ST/STM32F4xx_HAL_Driver/Src/stm32f4xx_hal_rcc.c ****             return HAL_TIMEOUT;
 343:Vendor_HAL/ST/STM32F4xx_HAL_Driver/Src/stm32f4xx_hal_rcc.c ****           }
 344:Vendor_HAL/ST/STM32F4xx_HAL_Driver/Src/stm32f4xx_hal_rcc.c ****         }
 345:Vendor_HAL/ST/STM32F4xx_HAL_Driver/Src/stm32f4xx_hal_rcc.c ****       }
 346:Vendor_HAL/ST/STM32F4xx_HAL_Driver/Src/stm32f4xx_hal_rcc.c ****     }
 347:Vendor_HAL/ST/STM32F4xx_HAL_Driver/Src/stm32f4xx_hal_rcc.c ****   }
 348:Vendor_HAL/ST/STM32F4xx_HAL_Driver/Src/stm32f4xx_hal_rcc.c ****   /*------------------------------ LSI Configuration -------------------------*/
 349:Vendor_HAL/ST/STM32F4xx_HAL_Driver/Src/stm32f4xx_hal_rcc.c ****   if(((RCC_OscInitStruct->OscillatorType) & RCC_OSCILLATORTYPE_LSI) == RCC_OSCILLATORTYPE_LSI)
 364              		.loc 1 349 3 view .LVU99
 365              		.loc 1 349 25 is_stmt 0 view .LVU100
 366 018c 2368     		ldr	r3, [r4]
 367              		.loc 1 349 5 view .LVU101
 368 018e 13F0080F 		tst	r3, #8
 369 0192 51D0     		beq	.L28
 350:Vendor_HAL/ST/STM32F4xx_HAL_Driver/Src/stm32f4xx_hal_rcc.c ****   {
 351:Vendor_HAL/ST/STM32F4xx_HAL_Driver/Src/stm32f4xx_hal_rcc.c ****     /* Check the parameters */
 352:Vendor_HAL/ST/STM32F4xx_HAL_Driver/Src/stm32f4xx_hal_rcc.c ****     assert_param(IS_RCC_LSI(RCC_OscInitStruct->LSIState));
 370              		.loc 1 352 5 is_stmt 1 view .LVU102
 371 0194 6369     		ldr	r3, [r4, #20]
 372 0196 012B     		cmp	r3, #1
 373 0198 2FD8     		bhi	.L102
 374              	.L29:
 353:Vendor_HAL/ST/STM32F4xx_HAL_Driver/Src/stm32f4xx_hal_rcc.c **** 
 354:Vendor_HAL/ST/STM32F4xx_HAL_Driver/Src/stm32f4xx_hal_rcc.c ****     /* Check the LSI State */
 355:Vendor_HAL/ST/STM32F4xx_HAL_Driver/Src/stm32f4xx_hal_rcc.c ****     if((RCC_OscInitStruct->LSIState)!= RCC_LSI_OFF)
 375              		.loc 1 355 5 view .LVU103
 376              		.loc 1 355 26 is_stmt 0 view .LVU104
 377 019a 6369     		ldr	r3, [r4, #20]
 378              		.loc 1 355 7 view .LVU105
 379 019c 9BB3     		cbz	r3, .L30
 356:Vendor_HAL/ST/STM32F4xx_HAL_Driver/Src/stm32f4xx_hal_rcc.c ****     {
 357:Vendor_HAL/ST/STM32F4xx_HAL_Driver/Src/stm32f4xx_hal_rcc.c ****       /* Enable the Internal Low Speed oscillator (LSI). */
 358:Vendor_HAL/ST/STM32F4xx_HAL_Driver/Src/stm32f4xx_hal_rcc.c ****       __HAL_RCC_LSI_ENABLE();
 380              		.loc 1 358 7 is_stmt 1 view .LVU106
 381 019e 254B     		ldr	r3, .L117+8
 382 01a0 0122     		movs	r2, #1
 383 01a2 C3F8802E 		str	r2, [r3, #3712]
 359:Vendor_HAL/ST/STM32F4xx_HAL_Driver/Src/stm32f4xx_hal_rcc.c **** 
 360:Vendor_HAL/ST/STM32F4xx_HAL_Driver/Src/stm32f4xx_hal_rcc.c ****       /* Get Start Tick*/
 361:Vendor_HAL/ST/STM32F4xx_HAL_Driver/Src/stm32f4xx_hal_rcc.c ****       tickstart = HAL_GetTick();
 384              		.loc 1 361 7 view .LVU107
 385              		.loc 1 361 19 is_stmt 0 view .LVU108
 386 01a6 FFF7FEFF 		bl	HAL_GetTick
 387              	.LVL19:
 388 01aa 0546     		mov	r5, r0
 389              	.LVL20:
 362:Vendor_HAL/ST/STM32F4xx_HAL_Driver/Src/stm32f4xx_hal_rcc.c **** 
 363:Vendor_HAL/ST/STM32F4xx_HAL_Driver/Src/stm32f4xx_hal_rcc.c ****       /* Wait till LSI is ready */
 364:Vendor_HAL/ST/STM32F4xx_HAL_Driver/Src/stm32f4xx_hal_rcc.c ****       while(__HAL_RCC_GET_FLAG(RCC_FLAG_LSIRDY) == RESET)
 390              		.loc 1 364 7 is_stmt 1 view .LVU109
 391              	.L31:
 392              		.loc 1 364 12 view .LVU110
 393              		.loc 1 364 13 is_stmt 0 view .LVU111
 394 01ac 1F4B     		ldr	r3, .L117
 395 01ae 5B6F     		ldr	r3, [r3, #116]
ARM GAS  C:\Users\katre\AppData\Local\Temp\ccsaao4d.s 			page 15


 396              		.loc 1 364 12 view .LVU112
 397 01b0 13F0020F 		tst	r3, #2
 398 01b4 40D1     		bne	.L28
 365:Vendor_HAL/ST/STM32F4xx_HAL_Driver/Src/stm32f4xx_hal_rcc.c ****       {
 366:Vendor_HAL/ST/STM32F4xx_HAL_Driver/Src/stm32f4xx_hal_rcc.c ****         if((HAL_GetTick() - tickstart ) > LSI_TIMEOUT_VALUE)
 399              		.loc 1 366 9 is_stmt 1 view .LVU113
 400              		.loc 1 366 13 is_stmt 0 view .LVU114
 401 01b6 FFF7FEFF 		bl	HAL_GetTick
 402              	.LVL21:
 403              		.loc 1 366 27 view .LVU115
 404 01ba 401B     		subs	r0, r0, r5
 405              		.loc 1 366 11 view .LVU116
 406 01bc 0228     		cmp	r0, #2
 407 01be F5D9     		bls	.L31
 367:Vendor_HAL/ST/STM32F4xx_HAL_Driver/Src/stm32f4xx_hal_rcc.c ****         {
 368:Vendor_HAL/ST/STM32F4xx_HAL_Driver/Src/stm32f4xx_hal_rcc.c ****           return HAL_TIMEOUT;
 408              		.loc 1 368 18 view .LVU117
 409 01c0 0320     		movs	r0, #3
 410 01c2 92E1     		b	.L3
 411              	.L101:
 327:Vendor_HAL/ST/STM32F4xx_HAL_Driver/Src/stm32f4xx_hal_rcc.c ****       }
 412              		.loc 1 327 9 is_stmt 1 view .LVU118
 413 01c4 194A     		ldr	r2, .L117
 414 01c6 1368     		ldr	r3, [r2]
 415 01c8 23F0F803 		bic	r3, r3, #248
 416 01cc 2169     		ldr	r1, [r4, #16]
 417 01ce 43EAC103 		orr	r3, r3, r1, lsl #3
 418 01d2 1360     		str	r3, [r2]
 419 01d4 DAE7     		b	.L17
 420              	.LVL22:
 421              	.L23:
 332:Vendor_HAL/ST/STM32F4xx_HAL_Driver/Src/stm32f4xx_hal_rcc.c **** 
 422              		.loc 1 332 9 view .LVU119
 423 01d6 174B     		ldr	r3, .L117+8
 424 01d8 0022     		movs	r2, #0
 425 01da 1A60     		str	r2, [r3]
 335:Vendor_HAL/ST/STM32F4xx_HAL_Driver/Src/stm32f4xx_hal_rcc.c **** 
 426              		.loc 1 335 9 view .LVU120
 335:Vendor_HAL/ST/STM32F4xx_HAL_Driver/Src/stm32f4xx_hal_rcc.c **** 
 427              		.loc 1 335 21 is_stmt 0 view .LVU121
 428 01dc FFF7FEFF 		bl	HAL_GetTick
 429              	.LVL23:
 430 01e0 0546     		mov	r5, r0
 431              	.LVL24:
 338:Vendor_HAL/ST/STM32F4xx_HAL_Driver/Src/stm32f4xx_hal_rcc.c ****         {
 432              		.loc 1 338 9 is_stmt 1 view .LVU122
 433              	.L26:
 338:Vendor_HAL/ST/STM32F4xx_HAL_Driver/Src/stm32f4xx_hal_rcc.c ****         {
 434              		.loc 1 338 14 view .LVU123
 338:Vendor_HAL/ST/STM32F4xx_HAL_Driver/Src/stm32f4xx_hal_rcc.c ****         {
 435              		.loc 1 338 15 is_stmt 0 view .LVU124
 436 01e2 124B     		ldr	r3, .L117
 437 01e4 1B68     		ldr	r3, [r3]
 338:Vendor_HAL/ST/STM32F4xx_HAL_Driver/Src/stm32f4xx_hal_rcc.c ****         {
 438              		.loc 1 338 14 view .LVU125
 439 01e6 13F0020F 		tst	r3, #2
 440 01ea CFD0     		beq	.L17
ARM GAS  C:\Users\katre\AppData\Local\Temp\ccsaao4d.s 			page 16


 340:Vendor_HAL/ST/STM32F4xx_HAL_Driver/Src/stm32f4xx_hal_rcc.c ****           {
 441              		.loc 1 340 11 is_stmt 1 view .LVU126
 340:Vendor_HAL/ST/STM32F4xx_HAL_Driver/Src/stm32f4xx_hal_rcc.c ****           {
 442              		.loc 1 340 15 is_stmt 0 view .LVU127
 443 01ec FFF7FEFF 		bl	HAL_GetTick
 444              	.LVL25:
 340:Vendor_HAL/ST/STM32F4xx_HAL_Driver/Src/stm32f4xx_hal_rcc.c ****           {
 445              		.loc 1 340 29 view .LVU128
 446 01f0 401B     		subs	r0, r0, r5
 340:Vendor_HAL/ST/STM32F4xx_HAL_Driver/Src/stm32f4xx_hal_rcc.c ****           {
 447              		.loc 1 340 13 view .LVU129
 448 01f2 0228     		cmp	r0, #2
 449 01f4 F5D9     		bls	.L26
 342:Vendor_HAL/ST/STM32F4xx_HAL_Driver/Src/stm32f4xx_hal_rcc.c ****           }
 450              		.loc 1 342 20 view .LVU130
 451 01f6 0320     		movs	r0, #3
 452 01f8 77E1     		b	.L3
 453              	.LVL26:
 454              	.L102:
 352:Vendor_HAL/ST/STM32F4xx_HAL_Driver/Src/stm32f4xx_hal_rcc.c **** 
 455              		.loc 1 352 5 discriminator 1 view .LVU131
 456 01fa 4FF4B071 		mov	r1, #352
 457 01fe 0C48     		ldr	r0, .L117+4
 458 0200 FFF7FEFF 		bl	assert_failed
 459              	.LVL27:
 460 0204 C9E7     		b	.L29
 461              	.L30:
 369:Vendor_HAL/ST/STM32F4xx_HAL_Driver/Src/stm32f4xx_hal_rcc.c ****         }
 370:Vendor_HAL/ST/STM32F4xx_HAL_Driver/Src/stm32f4xx_hal_rcc.c ****       }
 371:Vendor_HAL/ST/STM32F4xx_HAL_Driver/Src/stm32f4xx_hal_rcc.c ****     }
 372:Vendor_HAL/ST/STM32F4xx_HAL_Driver/Src/stm32f4xx_hal_rcc.c ****     else
 373:Vendor_HAL/ST/STM32F4xx_HAL_Driver/Src/stm32f4xx_hal_rcc.c ****     {
 374:Vendor_HAL/ST/STM32F4xx_HAL_Driver/Src/stm32f4xx_hal_rcc.c ****       /* Disable the Internal Low Speed oscillator (LSI). */
 375:Vendor_HAL/ST/STM32F4xx_HAL_Driver/Src/stm32f4xx_hal_rcc.c ****       __HAL_RCC_LSI_DISABLE();
 462              		.loc 1 375 7 is_stmt 1 view .LVU132
 463 0206 0B4B     		ldr	r3, .L117+8
 464 0208 0022     		movs	r2, #0
 465 020a C3F8802E 		str	r2, [r3, #3712]
 376:Vendor_HAL/ST/STM32F4xx_HAL_Driver/Src/stm32f4xx_hal_rcc.c **** 
 377:Vendor_HAL/ST/STM32F4xx_HAL_Driver/Src/stm32f4xx_hal_rcc.c ****       /* Get Start Tick */
 378:Vendor_HAL/ST/STM32F4xx_HAL_Driver/Src/stm32f4xx_hal_rcc.c ****       tickstart = HAL_GetTick();
 466              		.loc 1 378 7 view .LVU133
 467              		.loc 1 378 19 is_stmt 0 view .LVU134
 468 020e FFF7FEFF 		bl	HAL_GetTick
 469              	.LVL28:
 470 0212 0546     		mov	r5, r0
 471              	.LVL29:
 379:Vendor_HAL/ST/STM32F4xx_HAL_Driver/Src/stm32f4xx_hal_rcc.c **** 
 380:Vendor_HAL/ST/STM32F4xx_HAL_Driver/Src/stm32f4xx_hal_rcc.c ****       /* Wait till LSI is ready */
 381:Vendor_HAL/ST/STM32F4xx_HAL_Driver/Src/stm32f4xx_hal_rcc.c ****       while(__HAL_RCC_GET_FLAG(RCC_FLAG_LSIRDY) != RESET)
 472              		.loc 1 381 7 is_stmt 1 view .LVU135
 473              	.L33:
 474              		.loc 1 381 12 view .LVU136
 475              		.loc 1 381 13 is_stmt 0 view .LVU137
 476 0214 054B     		ldr	r3, .L117
 477 0216 5B6F     		ldr	r3, [r3, #116]
 478              		.loc 1 381 12 view .LVU138
ARM GAS  C:\Users\katre\AppData\Local\Temp\ccsaao4d.s 			page 17


 479 0218 13F0020F 		tst	r3, #2
 480 021c 0CD0     		beq	.L28
 382:Vendor_HAL/ST/STM32F4xx_HAL_Driver/Src/stm32f4xx_hal_rcc.c ****       {
 383:Vendor_HAL/ST/STM32F4xx_HAL_Driver/Src/stm32f4xx_hal_rcc.c ****         if((HAL_GetTick() - tickstart ) > LSI_TIMEOUT_VALUE)
 481              		.loc 1 383 9 is_stmt 1 view .LVU139
 482              		.loc 1 383 13 is_stmt 0 view .LVU140
 483 021e FFF7FEFF 		bl	HAL_GetTick
 484              	.LVL30:
 485              		.loc 1 383 27 view .LVU141
 486 0222 401B     		subs	r0, r0, r5
 487              		.loc 1 383 11 view .LVU142
 488 0224 0228     		cmp	r0, #2
 489 0226 F5D9     		bls	.L33
 384:Vendor_HAL/ST/STM32F4xx_HAL_Driver/Src/stm32f4xx_hal_rcc.c ****         {
 385:Vendor_HAL/ST/STM32F4xx_HAL_Driver/Src/stm32f4xx_hal_rcc.c ****           return HAL_TIMEOUT;
 490              		.loc 1 385 18 view .LVU143
 491 0228 0320     		movs	r0, #3
 492 022a 5EE1     		b	.L3
 493              	.L118:
 494              		.align	2
 495              	.L117:
 496 022c 00380240 		.word	1073887232
 497 0230 00000000 		.word	.LC0
 498 0234 00004742 		.word	1111949312
 499              	.LVL31:
 500              	.L28:
 386:Vendor_HAL/ST/STM32F4xx_HAL_Driver/Src/stm32f4xx_hal_rcc.c ****         }
 387:Vendor_HAL/ST/STM32F4xx_HAL_Driver/Src/stm32f4xx_hal_rcc.c ****       }
 388:Vendor_HAL/ST/STM32F4xx_HAL_Driver/Src/stm32f4xx_hal_rcc.c ****     }
 389:Vendor_HAL/ST/STM32F4xx_HAL_Driver/Src/stm32f4xx_hal_rcc.c ****   }
 390:Vendor_HAL/ST/STM32F4xx_HAL_Driver/Src/stm32f4xx_hal_rcc.c ****   /*------------------------------ LSE Configuration -------------------------*/
 391:Vendor_HAL/ST/STM32F4xx_HAL_Driver/Src/stm32f4xx_hal_rcc.c ****   if(((RCC_OscInitStruct->OscillatorType) & RCC_OSCILLATORTYPE_LSE) == RCC_OSCILLATORTYPE_LSE)
 501              		.loc 1 391 3 is_stmt 1 view .LVU144
 502              		.loc 1 391 25 is_stmt 0 view .LVU145
 503 0238 2368     		ldr	r3, [r4]
 504              		.loc 1 391 5 view .LVU146
 505 023a 13F0040F 		tst	r3, #4
 506 023e 7CD0     		beq	.L35
 507              	.LBB2:
 392:Vendor_HAL/ST/STM32F4xx_HAL_Driver/Src/stm32f4xx_hal_rcc.c ****   {
 393:Vendor_HAL/ST/STM32F4xx_HAL_Driver/Src/stm32f4xx_hal_rcc.c ****     FlagStatus       pwrclkchanged = RESET;
 508              		.loc 1 393 5 is_stmt 1 view .LVU147
 509              	.LVL32:
 394:Vendor_HAL/ST/STM32F4xx_HAL_Driver/Src/stm32f4xx_hal_rcc.c **** 
 395:Vendor_HAL/ST/STM32F4xx_HAL_Driver/Src/stm32f4xx_hal_rcc.c ****     /* Check the parameters */
 396:Vendor_HAL/ST/STM32F4xx_HAL_Driver/Src/stm32f4xx_hal_rcc.c ****     assert_param(IS_RCC_LSE(RCC_OscInitStruct->LSEState));
 510              		.loc 1 396 5 view .LVU148
 511 0240 A368     		ldr	r3, [r4, #8]
 512 0242 012B     		cmp	r3, #1
 513 0244 01D9     		bls	.L36
 514              		.loc 1 396 5 is_stmt 0 discriminator 1 view .LVU149
 515 0246 052B     		cmp	r3, #5
 516 0248 38D1     		bne	.L103
 517              	.L36:
 397:Vendor_HAL/ST/STM32F4xx_HAL_Driver/Src/stm32f4xx_hal_rcc.c **** 
 398:Vendor_HAL/ST/STM32F4xx_HAL_Driver/Src/stm32f4xx_hal_rcc.c ****     /* Update LSE configuration in Backup Domain control register    */
 399:Vendor_HAL/ST/STM32F4xx_HAL_Driver/Src/stm32f4xx_hal_rcc.c ****     /* Requires to enable write access to Backup Domain of necessary */
ARM GAS  C:\Users\katre\AppData\Local\Temp\ccsaao4d.s 			page 18


 400:Vendor_HAL/ST/STM32F4xx_HAL_Driver/Src/stm32f4xx_hal_rcc.c ****     if(__HAL_RCC_PWR_IS_CLK_DISABLED())
 518              		.loc 1 400 5 is_stmt 1 view .LVU150
 519              		.loc 1 400 8 is_stmt 0 view .LVU151
 520 024a A34B     		ldr	r3, .L119
 521 024c 1B6C     		ldr	r3, [r3, #64]
 522              		.loc 1 400 7 view .LVU152
 523 024e 13F0805F 		tst	r3, #268435456
 524 0252 39D1     		bne	.L73
 401:Vendor_HAL/ST/STM32F4xx_HAL_Driver/Src/stm32f4xx_hal_rcc.c ****     {
 402:Vendor_HAL/ST/STM32F4xx_HAL_Driver/Src/stm32f4xx_hal_rcc.c ****       __HAL_RCC_PWR_CLK_ENABLE();
 525              		.loc 1 402 7 is_stmt 1 view .LVU153
 526              	.LBB3:
 527              		.loc 1 402 7 view .LVU154
 528 0254 0023     		movs	r3, #0
 529 0256 0193     		str	r3, [sp, #4]
 530              		.loc 1 402 7 view .LVU155
 531 0258 9F4B     		ldr	r3, .L119
 532 025a 1A6C     		ldr	r2, [r3, #64]
 533 025c 42F08052 		orr	r2, r2, #268435456
 534 0260 1A64     		str	r2, [r3, #64]
 535              		.loc 1 402 7 view .LVU156
 536 0262 1B6C     		ldr	r3, [r3, #64]
 537 0264 03F08053 		and	r3, r3, #268435456
 538 0268 0193     		str	r3, [sp, #4]
 539              		.loc 1 402 7 view .LVU157
 540 026a 019B     		ldr	r3, [sp, #4]
 541              	.LBE3:
 542              		.loc 1 402 7 view .LVU158
 403:Vendor_HAL/ST/STM32F4xx_HAL_Driver/Src/stm32f4xx_hal_rcc.c ****       pwrclkchanged = SET;
 543              		.loc 1 403 7 view .LVU159
 544              	.LVL33:
 545              		.loc 1 403 21 is_stmt 0 view .LVU160
 546 026c 0125     		movs	r5, #1
 547              	.LVL34:
 548              	.L37:
 404:Vendor_HAL/ST/STM32F4xx_HAL_Driver/Src/stm32f4xx_hal_rcc.c ****     }
 405:Vendor_HAL/ST/STM32F4xx_HAL_Driver/Src/stm32f4xx_hal_rcc.c **** 
 406:Vendor_HAL/ST/STM32F4xx_HAL_Driver/Src/stm32f4xx_hal_rcc.c ****     if(HAL_IS_BIT_CLR(PWR->CR, PWR_CR_DBP))
 549              		.loc 1 406 5 is_stmt 1 view .LVU161
 550              		.loc 1 406 8 is_stmt 0 view .LVU162
 551 026e 9B4B     		ldr	r3, .L119+4
 552 0270 1B68     		ldr	r3, [r3]
 553              		.loc 1 406 7 view .LVU163
 554 0272 13F4807F 		tst	r3, #256
 555 0276 29D0     		beq	.L104
 556              	.L38:
 407:Vendor_HAL/ST/STM32F4xx_HAL_Driver/Src/stm32f4xx_hal_rcc.c ****     {
 408:Vendor_HAL/ST/STM32F4xx_HAL_Driver/Src/stm32f4xx_hal_rcc.c ****       /* Enable write access to Backup domain */
 409:Vendor_HAL/ST/STM32F4xx_HAL_Driver/Src/stm32f4xx_hal_rcc.c ****       SET_BIT(PWR->CR, PWR_CR_DBP);
 410:Vendor_HAL/ST/STM32F4xx_HAL_Driver/Src/stm32f4xx_hal_rcc.c **** 
 411:Vendor_HAL/ST/STM32F4xx_HAL_Driver/Src/stm32f4xx_hal_rcc.c ****       /* Wait for Backup domain Write protection disable */
 412:Vendor_HAL/ST/STM32F4xx_HAL_Driver/Src/stm32f4xx_hal_rcc.c ****       tickstart = HAL_GetTick();
 413:Vendor_HAL/ST/STM32F4xx_HAL_Driver/Src/stm32f4xx_hal_rcc.c **** 
 414:Vendor_HAL/ST/STM32F4xx_HAL_Driver/Src/stm32f4xx_hal_rcc.c ****       while(HAL_IS_BIT_CLR(PWR->CR, PWR_CR_DBP))
 415:Vendor_HAL/ST/STM32F4xx_HAL_Driver/Src/stm32f4xx_hal_rcc.c ****       {
 416:Vendor_HAL/ST/STM32F4xx_HAL_Driver/Src/stm32f4xx_hal_rcc.c ****         if((HAL_GetTick() - tickstart) > RCC_DBP_TIMEOUT_VALUE)
 417:Vendor_HAL/ST/STM32F4xx_HAL_Driver/Src/stm32f4xx_hal_rcc.c ****         {
ARM GAS  C:\Users\katre\AppData\Local\Temp\ccsaao4d.s 			page 19


 418:Vendor_HAL/ST/STM32F4xx_HAL_Driver/Src/stm32f4xx_hal_rcc.c ****           return HAL_TIMEOUT;
 419:Vendor_HAL/ST/STM32F4xx_HAL_Driver/Src/stm32f4xx_hal_rcc.c ****         }
 420:Vendor_HAL/ST/STM32F4xx_HAL_Driver/Src/stm32f4xx_hal_rcc.c ****       }
 421:Vendor_HAL/ST/STM32F4xx_HAL_Driver/Src/stm32f4xx_hal_rcc.c ****     }
 422:Vendor_HAL/ST/STM32F4xx_HAL_Driver/Src/stm32f4xx_hal_rcc.c **** 
 423:Vendor_HAL/ST/STM32F4xx_HAL_Driver/Src/stm32f4xx_hal_rcc.c ****     /* Set the new LSE configuration -----------------------------------------*/
 424:Vendor_HAL/ST/STM32F4xx_HAL_Driver/Src/stm32f4xx_hal_rcc.c ****     __HAL_RCC_LSE_CONFIG(RCC_OscInitStruct->LSEState);
 557              		.loc 1 424 5 is_stmt 1 view .LVU164
 558              		.loc 1 424 5 view .LVU165
 559 0278 A368     		ldr	r3, [r4, #8]
 560 027a 012B     		cmp	r3, #1
 561 027c 3AD0     		beq	.L105
 562              		.loc 1 424 5 discriminator 2 view .LVU166
 563 027e 052B     		cmp	r3, #5
 564 0280 3ED0     		beq	.L106
 565              		.loc 1 424 5 discriminator 5 view .LVU167
 566 0282 954B     		ldr	r3, .L119
 567 0284 1A6F     		ldr	r2, [r3, #112]
 568 0286 22F00102 		bic	r2, r2, #1
 569 028a 1A67     		str	r2, [r3, #112]
 570              		.loc 1 424 5 discriminator 5 view .LVU168
 571 028c 1A6F     		ldr	r2, [r3, #112]
 572 028e 22F00402 		bic	r2, r2, #4
 573 0292 1A67     		str	r2, [r3, #112]
 574              	.L42:
 575              		.loc 1 424 5 discriminator 7 view .LVU169
 425:Vendor_HAL/ST/STM32F4xx_HAL_Driver/Src/stm32f4xx_hal_rcc.c ****     /* Check the LSE State */
 426:Vendor_HAL/ST/STM32F4xx_HAL_Driver/Src/stm32f4xx_hal_rcc.c ****     if((RCC_OscInitStruct->LSEState) != RCC_LSE_OFF)
 576              		.loc 1 426 5 discriminator 7 view .LVU170
 577              		.loc 1 426 26 is_stmt 0 discriminator 7 view .LVU171
 578 0294 A368     		ldr	r3, [r4, #8]
 579              		.loc 1 426 7 discriminator 7 view .LVU172
 580 0296 002B     		cmp	r3, #0
 581 0298 3CD0     		beq	.L44
 427:Vendor_HAL/ST/STM32F4xx_HAL_Driver/Src/stm32f4xx_hal_rcc.c ****     {
 428:Vendor_HAL/ST/STM32F4xx_HAL_Driver/Src/stm32f4xx_hal_rcc.c ****       /* Get Start Tick*/
 429:Vendor_HAL/ST/STM32F4xx_HAL_Driver/Src/stm32f4xx_hal_rcc.c ****       tickstart = HAL_GetTick();
 582              		.loc 1 429 7 is_stmt 1 view .LVU173
 583              		.loc 1 429 19 is_stmt 0 view .LVU174
 584 029a FFF7FEFF 		bl	HAL_GetTick
 585              	.LVL35:
 586 029e 0646     		mov	r6, r0
 587              	.LVL36:
 430:Vendor_HAL/ST/STM32F4xx_HAL_Driver/Src/stm32f4xx_hal_rcc.c **** 
 431:Vendor_HAL/ST/STM32F4xx_HAL_Driver/Src/stm32f4xx_hal_rcc.c ****       /* Wait till LSE is ready */
 432:Vendor_HAL/ST/STM32F4xx_HAL_Driver/Src/stm32f4xx_hal_rcc.c ****       while(__HAL_RCC_GET_FLAG(RCC_FLAG_LSERDY) == RESET)
 588              		.loc 1 432 7 is_stmt 1 view .LVU175
 589              	.L45:
 590              		.loc 1 432 12 view .LVU176
 591              		.loc 1 432 13 is_stmt 0 view .LVU177
 592 02a0 8D4B     		ldr	r3, .L119
 593 02a2 1B6F     		ldr	r3, [r3, #112]
 594              		.loc 1 432 12 view .LVU178
 595 02a4 13F0020F 		tst	r3, #2
 596 02a8 45D1     		bne	.L47
 433:Vendor_HAL/ST/STM32F4xx_HAL_Driver/Src/stm32f4xx_hal_rcc.c ****       {
 434:Vendor_HAL/ST/STM32F4xx_HAL_Driver/Src/stm32f4xx_hal_rcc.c ****         if((HAL_GetTick() - tickstart ) > RCC_LSE_TIMEOUT_VALUE)
ARM GAS  C:\Users\katre\AppData\Local\Temp\ccsaao4d.s 			page 20


 597              		.loc 1 434 9 is_stmt 1 view .LVU179
 598              		.loc 1 434 13 is_stmt 0 view .LVU180
 599 02aa FFF7FEFF 		bl	HAL_GetTick
 600              	.LVL37:
 601              		.loc 1 434 27 view .LVU181
 602 02ae 801B     		subs	r0, r0, r6
 603              		.loc 1 434 11 view .LVU182
 604 02b0 41F28833 		movw	r3, #5000
 605 02b4 9842     		cmp	r0, r3
 606 02b6 F3D9     		bls	.L45
 435:Vendor_HAL/ST/STM32F4xx_HAL_Driver/Src/stm32f4xx_hal_rcc.c ****         {
 436:Vendor_HAL/ST/STM32F4xx_HAL_Driver/Src/stm32f4xx_hal_rcc.c ****           return HAL_TIMEOUT;
 607              		.loc 1 436 18 view .LVU183
 608 02b8 0320     		movs	r0, #3
 609 02ba 16E1     		b	.L3
 610              	.LVL38:
 611              	.L103:
 396:Vendor_HAL/ST/STM32F4xx_HAL_Driver/Src/stm32f4xx_hal_rcc.c **** 
 612              		.loc 1 396 5 discriminator 2 view .LVU184
 613 02bc 4FF4C671 		mov	r1, #396
 614 02c0 8748     		ldr	r0, .L119+8
 615 02c2 FFF7FEFF 		bl	assert_failed
 616              	.LVL39:
 617 02c6 C0E7     		b	.L36
 618              	.L73:
 393:Vendor_HAL/ST/STM32F4xx_HAL_Driver/Src/stm32f4xx_hal_rcc.c **** 
 619              		.loc 1 393 22 view .LVU185
 620 02c8 0025     		movs	r5, #0
 621 02ca D0E7     		b	.L37
 622              	.LVL40:
 623              	.L104:
 409:Vendor_HAL/ST/STM32F4xx_HAL_Driver/Src/stm32f4xx_hal_rcc.c **** 
 624              		.loc 1 409 7 is_stmt 1 view .LVU186
 625 02cc 834A     		ldr	r2, .L119+4
 626 02ce 1368     		ldr	r3, [r2]
 627 02d0 43F48073 		orr	r3, r3, #256
 628 02d4 1360     		str	r3, [r2]
 412:Vendor_HAL/ST/STM32F4xx_HAL_Driver/Src/stm32f4xx_hal_rcc.c **** 
 629              		.loc 1 412 7 view .LVU187
 412:Vendor_HAL/ST/STM32F4xx_HAL_Driver/Src/stm32f4xx_hal_rcc.c **** 
 630              		.loc 1 412 19 is_stmt 0 view .LVU188
 631 02d6 FFF7FEFF 		bl	HAL_GetTick
 632              	.LVL41:
 633 02da 0646     		mov	r6, r0
 634              	.LVL42:
 414:Vendor_HAL/ST/STM32F4xx_HAL_Driver/Src/stm32f4xx_hal_rcc.c ****       {
 635              		.loc 1 414 7 is_stmt 1 view .LVU189
 636              	.L39:
 414:Vendor_HAL/ST/STM32F4xx_HAL_Driver/Src/stm32f4xx_hal_rcc.c ****       {
 637              		.loc 1 414 12 view .LVU190
 414:Vendor_HAL/ST/STM32F4xx_HAL_Driver/Src/stm32f4xx_hal_rcc.c ****       {
 638              		.loc 1 414 13 is_stmt 0 view .LVU191
 639 02dc 7F4B     		ldr	r3, .L119+4
 640 02de 1B68     		ldr	r3, [r3]
 414:Vendor_HAL/ST/STM32F4xx_HAL_Driver/Src/stm32f4xx_hal_rcc.c ****       {
 641              		.loc 1 414 12 view .LVU192
 642 02e0 13F4807F 		tst	r3, #256
ARM GAS  C:\Users\katre\AppData\Local\Temp\ccsaao4d.s 			page 21


 643 02e4 C8D1     		bne	.L38
 416:Vendor_HAL/ST/STM32F4xx_HAL_Driver/Src/stm32f4xx_hal_rcc.c ****         {
 644              		.loc 1 416 9 is_stmt 1 view .LVU193
 416:Vendor_HAL/ST/STM32F4xx_HAL_Driver/Src/stm32f4xx_hal_rcc.c ****         {
 645              		.loc 1 416 13 is_stmt 0 view .LVU194
 646 02e6 FFF7FEFF 		bl	HAL_GetTick
 647              	.LVL43:
 416:Vendor_HAL/ST/STM32F4xx_HAL_Driver/Src/stm32f4xx_hal_rcc.c ****         {
 648              		.loc 1 416 27 view .LVU195
 649 02ea 801B     		subs	r0, r0, r6
 416:Vendor_HAL/ST/STM32F4xx_HAL_Driver/Src/stm32f4xx_hal_rcc.c ****         {
 650              		.loc 1 416 11 view .LVU196
 651 02ec 0228     		cmp	r0, #2
 652 02ee F5D9     		bls	.L39
 418:Vendor_HAL/ST/STM32F4xx_HAL_Driver/Src/stm32f4xx_hal_rcc.c ****         }
 653              		.loc 1 418 18 view .LVU197
 654 02f0 0320     		movs	r0, #3
 655 02f2 FAE0     		b	.L3
 656              	.LVL44:
 657              	.L105:
 424:Vendor_HAL/ST/STM32F4xx_HAL_Driver/Src/stm32f4xx_hal_rcc.c ****     /* Check the LSE State */
 658              		.loc 1 424 5 is_stmt 1 discriminator 1 view .LVU198
 659 02f4 784A     		ldr	r2, .L119
 660 02f6 136F     		ldr	r3, [r2, #112]
 661 02f8 43F00103 		orr	r3, r3, #1
 662 02fc 1367     		str	r3, [r2, #112]
 663 02fe C9E7     		b	.L42
 664              	.L106:
 424:Vendor_HAL/ST/STM32F4xx_HAL_Driver/Src/stm32f4xx_hal_rcc.c ****     /* Check the LSE State */
 665              		.loc 1 424 5 discriminator 4 view .LVU199
 666 0300 754B     		ldr	r3, .L119
 667 0302 1A6F     		ldr	r2, [r3, #112]
 668 0304 42F00402 		orr	r2, r2, #4
 669 0308 1A67     		str	r2, [r3, #112]
 424:Vendor_HAL/ST/STM32F4xx_HAL_Driver/Src/stm32f4xx_hal_rcc.c ****     /* Check the LSE State */
 670              		.loc 1 424 5 discriminator 4 view .LVU200
 671 030a 1A6F     		ldr	r2, [r3, #112]
 672 030c 42F00102 		orr	r2, r2, #1
 673 0310 1A67     		str	r2, [r3, #112]
 674 0312 BFE7     		b	.L42
 675              	.L44:
 437:Vendor_HAL/ST/STM32F4xx_HAL_Driver/Src/stm32f4xx_hal_rcc.c ****         }
 438:Vendor_HAL/ST/STM32F4xx_HAL_Driver/Src/stm32f4xx_hal_rcc.c ****       }
 439:Vendor_HAL/ST/STM32F4xx_HAL_Driver/Src/stm32f4xx_hal_rcc.c ****     }
 440:Vendor_HAL/ST/STM32F4xx_HAL_Driver/Src/stm32f4xx_hal_rcc.c ****     else
 441:Vendor_HAL/ST/STM32F4xx_HAL_Driver/Src/stm32f4xx_hal_rcc.c ****     {
 442:Vendor_HAL/ST/STM32F4xx_HAL_Driver/Src/stm32f4xx_hal_rcc.c ****       /* Get Start Tick */
 443:Vendor_HAL/ST/STM32F4xx_HAL_Driver/Src/stm32f4xx_hal_rcc.c ****       tickstart = HAL_GetTick();
 676              		.loc 1 443 7 view .LVU201
 677              		.loc 1 443 19 is_stmt 0 view .LVU202
 678 0314 FFF7FEFF 		bl	HAL_GetTick
 679              	.LVL45:
 680 0318 0646     		mov	r6, r0
 681              	.LVL46:
 444:Vendor_HAL/ST/STM32F4xx_HAL_Driver/Src/stm32f4xx_hal_rcc.c **** 
 445:Vendor_HAL/ST/STM32F4xx_HAL_Driver/Src/stm32f4xx_hal_rcc.c ****       /* Wait till LSE is ready */
 446:Vendor_HAL/ST/STM32F4xx_HAL_Driver/Src/stm32f4xx_hal_rcc.c ****       while(__HAL_RCC_GET_FLAG(RCC_FLAG_LSERDY) != RESET)
ARM GAS  C:\Users\katre\AppData\Local\Temp\ccsaao4d.s 			page 22


 682              		.loc 1 446 7 is_stmt 1 view .LVU203
 683              	.L48:
 684              		.loc 1 446 12 view .LVU204
 685              		.loc 1 446 13 is_stmt 0 view .LVU205
 686 031a 6F4B     		ldr	r3, .L119
 687 031c 1B6F     		ldr	r3, [r3, #112]
 688              		.loc 1 446 12 view .LVU206
 689 031e 13F0020F 		tst	r3, #2
 690 0322 08D0     		beq	.L47
 447:Vendor_HAL/ST/STM32F4xx_HAL_Driver/Src/stm32f4xx_hal_rcc.c ****       {
 448:Vendor_HAL/ST/STM32F4xx_HAL_Driver/Src/stm32f4xx_hal_rcc.c ****         if((HAL_GetTick() - tickstart ) > RCC_LSE_TIMEOUT_VALUE)
 691              		.loc 1 448 9 is_stmt 1 view .LVU207
 692              		.loc 1 448 13 is_stmt 0 view .LVU208
 693 0324 FFF7FEFF 		bl	HAL_GetTick
 694              	.LVL47:
 695              		.loc 1 448 27 view .LVU209
 696 0328 801B     		subs	r0, r0, r6
 697              		.loc 1 448 11 view .LVU210
 698 032a 41F28833 		movw	r3, #5000
 699 032e 9842     		cmp	r0, r3
 700 0330 F3D9     		bls	.L48
 449:Vendor_HAL/ST/STM32F4xx_HAL_Driver/Src/stm32f4xx_hal_rcc.c ****         {
 450:Vendor_HAL/ST/STM32F4xx_HAL_Driver/Src/stm32f4xx_hal_rcc.c ****           return HAL_TIMEOUT;
 701              		.loc 1 450 18 view .LVU211
 702 0332 0320     		movs	r0, #3
 703 0334 D9E0     		b	.L3
 704              	.L47:
 451:Vendor_HAL/ST/STM32F4xx_HAL_Driver/Src/stm32f4xx_hal_rcc.c ****         }
 452:Vendor_HAL/ST/STM32F4xx_HAL_Driver/Src/stm32f4xx_hal_rcc.c ****       }
 453:Vendor_HAL/ST/STM32F4xx_HAL_Driver/Src/stm32f4xx_hal_rcc.c ****     }
 454:Vendor_HAL/ST/STM32F4xx_HAL_Driver/Src/stm32f4xx_hal_rcc.c **** 
 455:Vendor_HAL/ST/STM32F4xx_HAL_Driver/Src/stm32f4xx_hal_rcc.c ****     /* Restore clock configuration if changed */
 456:Vendor_HAL/ST/STM32F4xx_HAL_Driver/Src/stm32f4xx_hal_rcc.c ****     if(pwrclkchanged == SET)
 705              		.loc 1 456 5 is_stmt 1 view .LVU212
 706              		.loc 1 456 7 is_stmt 0 view .LVU213
 707 0336 002D     		cmp	r5, #0
 708 0338 3BD1     		bne	.L107
 709              	.LVL48:
 710              	.L35:
 711              		.loc 1 456 7 view .LVU214
 712              	.LBE2:
 457:Vendor_HAL/ST/STM32F4xx_HAL_Driver/Src/stm32f4xx_hal_rcc.c ****     {
 458:Vendor_HAL/ST/STM32F4xx_HAL_Driver/Src/stm32f4xx_hal_rcc.c ****       __HAL_RCC_PWR_CLK_DISABLE();
 459:Vendor_HAL/ST/STM32F4xx_HAL_Driver/Src/stm32f4xx_hal_rcc.c ****     }
 460:Vendor_HAL/ST/STM32F4xx_HAL_Driver/Src/stm32f4xx_hal_rcc.c ****   }
 461:Vendor_HAL/ST/STM32F4xx_HAL_Driver/Src/stm32f4xx_hal_rcc.c ****   /*-------------------------------- PLL Configuration -----------------------*/
 462:Vendor_HAL/ST/STM32F4xx_HAL_Driver/Src/stm32f4xx_hal_rcc.c ****   /* Check the parameters */
 463:Vendor_HAL/ST/STM32F4xx_HAL_Driver/Src/stm32f4xx_hal_rcc.c ****   assert_param(IS_RCC_PLL(RCC_OscInitStruct->PLL.PLLState));
 713              		.loc 1 463 3 is_stmt 1 view .LVU215
 714 033a A369     		ldr	r3, [r4, #24]
 715 033c 022B     		cmp	r3, #2
 716 033e 3ED8     		bhi	.L108
 717              	.L50:
 464:Vendor_HAL/ST/STM32F4xx_HAL_Driver/Src/stm32f4xx_hal_rcc.c ****   if ((RCC_OscInitStruct->PLL.PLLState) != RCC_PLL_NONE)
 718              		.loc 1 464 3 view .LVU216
 719              		.loc 1 464 30 is_stmt 0 view .LVU217
 720 0340 A369     		ldr	r3, [r4, #24]
ARM GAS  C:\Users\katre\AppData\Local\Temp\ccsaao4d.s 			page 23


 721              		.loc 1 464 6 view .LVU218
 722 0342 002B     		cmp	r3, #0
 723 0344 00F0D080 		beq	.L77
 465:Vendor_HAL/ST/STM32F4xx_HAL_Driver/Src/stm32f4xx_hal_rcc.c ****   {
 466:Vendor_HAL/ST/STM32F4xx_HAL_Driver/Src/stm32f4xx_hal_rcc.c ****     /* Check if the PLL is used as system clock or not */
 467:Vendor_HAL/ST/STM32F4xx_HAL_Driver/Src/stm32f4xx_hal_rcc.c ****     if(__HAL_RCC_GET_SYSCLK_SOURCE() != RCC_CFGR_SWS_PLL)
 724              		.loc 1 467 5 is_stmt 1 view .LVU219
 725              		.loc 1 467 8 is_stmt 0 view .LVU220
 726 0348 634A     		ldr	r2, .L119
 727 034a 9268     		ldr	r2, [r2, #8]
 728 034c 02F00C02 		and	r2, r2, #12
 729              		.loc 1 467 7 view .LVU221
 730 0350 082A     		cmp	r2, #8
 731 0352 00F09080 		beq	.L51
 468:Vendor_HAL/ST/STM32F4xx_HAL_Driver/Src/stm32f4xx_hal_rcc.c ****     {
 469:Vendor_HAL/ST/STM32F4xx_HAL_Driver/Src/stm32f4xx_hal_rcc.c ****       if((RCC_OscInitStruct->PLL.PLLState) == RCC_PLL_ON)
 732              		.loc 1 469 7 is_stmt 1 view .LVU222
 733              		.loc 1 469 9 is_stmt 0 view .LVU223
 734 0356 022B     		cmp	r3, #2
 735 0358 79D1     		bne	.L52
 470:Vendor_HAL/ST/STM32F4xx_HAL_Driver/Src/stm32f4xx_hal_rcc.c ****       {
 471:Vendor_HAL/ST/STM32F4xx_HAL_Driver/Src/stm32f4xx_hal_rcc.c ****         /* Check the parameters */
 472:Vendor_HAL/ST/STM32F4xx_HAL_Driver/Src/stm32f4xx_hal_rcc.c ****         assert_param(IS_RCC_PLLSOURCE(RCC_OscInitStruct->PLL.PLLSource));
 736              		.loc 1 472 9 is_stmt 1 view .LVU224
 737 035a E369     		ldr	r3, [r4, #28]
 738 035c 13B1     		cbz	r3, .L53
 739              		.loc 1 472 9 is_stmt 0 discriminator 1 view .LVU225
 740 035e B3F5800F 		cmp	r3, #4194304
 741 0362 32D1     		bne	.L109
 742              	.L53:
 473:Vendor_HAL/ST/STM32F4xx_HAL_Driver/Src/stm32f4xx_hal_rcc.c ****         assert_param(IS_RCC_PLLM_VALUE(RCC_OscInitStruct->PLL.PLLM));
 743              		.loc 1 473 9 is_stmt 1 view .LVU226
 744 0364 236A     		ldr	r3, [r4, #32]
 745 0366 3F2B     		cmp	r3, #63
 746 0368 35D8     		bhi	.L110
 747              	.L54:
 474:Vendor_HAL/ST/STM32F4xx_HAL_Driver/Src/stm32f4xx_hal_rcc.c ****         assert_param(IS_RCC_PLLN_VALUE(RCC_OscInitStruct->PLL.PLLN));
 748              		.loc 1 474 9 view .LVU227
 749 036a 636A     		ldr	r3, [r4, #36]
 750 036c 323B     		subs	r3, r3, #50
 751 036e B3F5BF7F 		cmp	r3, #382
 752 0372 36D8     		bhi	.L111
 753              	.L55:
 475:Vendor_HAL/ST/STM32F4xx_HAL_Driver/Src/stm32f4xx_hal_rcc.c ****         assert_param(IS_RCC_PLLP_VALUE(RCC_OscInitStruct->PLL.PLLP));
 754              		.loc 1 475 9 view .LVU228
 755 0374 A36A     		ldr	r3, [r4, #40]
 756 0376 022B     		cmp	r3, #2
 757 0378 05D0     		beq	.L56
 758              		.loc 1 475 9 is_stmt 0 discriminator 1 view .LVU229
 759 037a 042B     		cmp	r3, #4
 760 037c 03D0     		beq	.L56
 761              		.loc 1 475 9 discriminator 2 view .LVU230
 762 037e 062B     		cmp	r3, #6
 763 0380 01D0     		beq	.L56
 764              		.loc 1 475 9 discriminator 3 view .LVU231
 765 0382 082B     		cmp	r3, #8
 766 0384 33D1     		bne	.L112
ARM GAS  C:\Users\katre\AppData\Local\Temp\ccsaao4d.s 			page 24


 767              	.L56:
 476:Vendor_HAL/ST/STM32F4xx_HAL_Driver/Src/stm32f4xx_hal_rcc.c ****         assert_param(IS_RCC_PLLQ_VALUE(RCC_OscInitStruct->PLL.PLLQ));
 768              		.loc 1 476 9 is_stmt 1 view .LVU232
 769 0386 E36A     		ldr	r3, [r4, #44]
 770 0388 023B     		subs	r3, r3, #2
 771 038a 0D2B     		cmp	r3, #13
 772 038c 35D8     		bhi	.L113
 773              	.L57:
 477:Vendor_HAL/ST/STM32F4xx_HAL_Driver/Src/stm32f4xx_hal_rcc.c **** 
 478:Vendor_HAL/ST/STM32F4xx_HAL_Driver/Src/stm32f4xx_hal_rcc.c ****         /* Disable the main PLL. */
 479:Vendor_HAL/ST/STM32F4xx_HAL_Driver/Src/stm32f4xx_hal_rcc.c ****         __HAL_RCC_PLL_DISABLE();
 774              		.loc 1 479 9 view .LVU233
 775 038e 554B     		ldr	r3, .L119+12
 776 0390 0022     		movs	r2, #0
 777 0392 1A66     		str	r2, [r3, #96]
 480:Vendor_HAL/ST/STM32F4xx_HAL_Driver/Src/stm32f4xx_hal_rcc.c **** 
 481:Vendor_HAL/ST/STM32F4xx_HAL_Driver/Src/stm32f4xx_hal_rcc.c ****         /* Get Start Tick */
 482:Vendor_HAL/ST/STM32F4xx_HAL_Driver/Src/stm32f4xx_hal_rcc.c ****         tickstart = HAL_GetTick();
 778              		.loc 1 482 9 view .LVU234
 779              		.loc 1 482 21 is_stmt 0 view .LVU235
 780 0394 FFF7FEFF 		bl	HAL_GetTick
 781              	.LVL49:
 782 0398 0546     		mov	r5, r0
 783              	.LVL50:
 483:Vendor_HAL/ST/STM32F4xx_HAL_Driver/Src/stm32f4xx_hal_rcc.c **** 
 484:Vendor_HAL/ST/STM32F4xx_HAL_Driver/Src/stm32f4xx_hal_rcc.c ****         /* Wait till PLL is ready */
 485:Vendor_HAL/ST/STM32F4xx_HAL_Driver/Src/stm32f4xx_hal_rcc.c ****         while(__HAL_RCC_GET_FLAG(RCC_FLAG_PLLRDY) != RESET)
 784              		.loc 1 485 9 is_stmt 1 view .LVU236
 785              	.L58:
 786              		.loc 1 485 14 view .LVU237
 787              		.loc 1 485 15 is_stmt 0 view .LVU238
 788 039a 4F4B     		ldr	r3, .L119
 789 039c 1B68     		ldr	r3, [r3]
 790              		.loc 1 485 14 view .LVU239
 791 039e 13F0007F 		tst	r3, #33554432
 792 03a2 30D0     		beq	.L114
 486:Vendor_HAL/ST/STM32F4xx_HAL_Driver/Src/stm32f4xx_hal_rcc.c ****         {
 487:Vendor_HAL/ST/STM32F4xx_HAL_Driver/Src/stm32f4xx_hal_rcc.c ****           if((HAL_GetTick() - tickstart ) > PLL_TIMEOUT_VALUE)
 793              		.loc 1 487 11 is_stmt 1 view .LVU240
 794              		.loc 1 487 15 is_stmt 0 view .LVU241
 795 03a4 FFF7FEFF 		bl	HAL_GetTick
 796              	.LVL51:
 797              		.loc 1 487 29 view .LVU242
 798 03a8 401B     		subs	r0, r0, r5
 799              		.loc 1 487 13 view .LVU243
 800 03aa 0228     		cmp	r0, #2
 801 03ac F5D9     		bls	.L58
 488:Vendor_HAL/ST/STM32F4xx_HAL_Driver/Src/stm32f4xx_hal_rcc.c ****           {
 489:Vendor_HAL/ST/STM32F4xx_HAL_Driver/Src/stm32f4xx_hal_rcc.c ****             return HAL_TIMEOUT;
 802              		.loc 1 489 20 view .LVU244
 803 03ae 0320     		movs	r0, #3
 804 03b0 9BE0     		b	.L3
 805              	.LVL52:
 806              	.L107:
 807              	.LBB4:
 458:Vendor_HAL/ST/STM32F4xx_HAL_Driver/Src/stm32f4xx_hal_rcc.c ****     }
 808              		.loc 1 458 7 is_stmt 1 view .LVU245
ARM GAS  C:\Users\katre\AppData\Local\Temp\ccsaao4d.s 			page 25


 809 03b2 494A     		ldr	r2, .L119
 810 03b4 136C     		ldr	r3, [r2, #64]
 811 03b6 23F08053 		bic	r3, r3, #268435456
 812 03ba 1364     		str	r3, [r2, #64]
 813 03bc BDE7     		b	.L35
 814              	.LVL53:
 815              	.L108:
 458:Vendor_HAL/ST/STM32F4xx_HAL_Driver/Src/stm32f4xx_hal_rcc.c ****     }
 816              		.loc 1 458 7 is_stmt 0 view .LVU246
 817              	.LBE4:
 463:Vendor_HAL/ST/STM32F4xx_HAL_Driver/Src/stm32f4xx_hal_rcc.c ****   if ((RCC_OscInitStruct->PLL.PLLState) != RCC_PLL_NONE)
 818              		.loc 1 463 3 discriminator 1 view .LVU247
 819 03be 40F2CF11 		movw	r1, #463
 820 03c2 4748     		ldr	r0, .L119+8
 821 03c4 FFF7FEFF 		bl	assert_failed
 822              	.LVL54:
 823 03c8 BAE7     		b	.L50
 824              	.L109:
 472:Vendor_HAL/ST/STM32F4xx_HAL_Driver/Src/stm32f4xx_hal_rcc.c ****         assert_param(IS_RCC_PLLM_VALUE(RCC_OscInitStruct->PLL.PLLM));
 825              		.loc 1 472 9 discriminator 2 view .LVU248
 826 03ca 4FF4EC71 		mov	r1, #472
 827 03ce 4448     		ldr	r0, .L119+8
 828 03d0 FFF7FEFF 		bl	assert_failed
 829              	.LVL55:
 830 03d4 C6E7     		b	.L53
 831              	.L110:
 473:Vendor_HAL/ST/STM32F4xx_HAL_Driver/Src/stm32f4xx_hal_rcc.c ****         assert_param(IS_RCC_PLLN_VALUE(RCC_OscInitStruct->PLL.PLLN));
 832              		.loc 1 473 9 discriminator 1 view .LVU249
 833 03d6 40F2D911 		movw	r1, #473
 834 03da 4148     		ldr	r0, .L119+8
 835 03dc FFF7FEFF 		bl	assert_failed
 836              	.LVL56:
 837 03e0 C3E7     		b	.L54
 838              	.L111:
 474:Vendor_HAL/ST/STM32F4xx_HAL_Driver/Src/stm32f4xx_hal_rcc.c ****         assert_param(IS_RCC_PLLP_VALUE(RCC_OscInitStruct->PLL.PLLP));
 839              		.loc 1 474 9 discriminator 1 view .LVU250
 840 03e2 4FF4ED71 		mov	r1, #474
 841 03e6 3E48     		ldr	r0, .L119+8
 842 03e8 FFF7FEFF 		bl	assert_failed
 843              	.LVL57:
 844 03ec C2E7     		b	.L55
 845              	.L112:
 475:Vendor_HAL/ST/STM32F4xx_HAL_Driver/Src/stm32f4xx_hal_rcc.c ****         assert_param(IS_RCC_PLLQ_VALUE(RCC_OscInitStruct->PLL.PLLQ));
 846              		.loc 1 475 9 discriminator 4 view .LVU251
 847 03ee 40F2DB11 		movw	r1, #475
 848 03f2 3B48     		ldr	r0, .L119+8
 849 03f4 FFF7FEFF 		bl	assert_failed
 850              	.LVL58:
 851 03f8 C5E7     		b	.L56
 852              	.L113:
 476:Vendor_HAL/ST/STM32F4xx_HAL_Driver/Src/stm32f4xx_hal_rcc.c **** 
 853              		.loc 1 476 9 discriminator 1 view .LVU252
 854 03fa 4FF4EE71 		mov	r1, #476
 855 03fe 3848     		ldr	r0, .L119+8
 856 0400 FFF7FEFF 		bl	assert_failed
 857              	.LVL59:
 858 0404 C3E7     		b	.L57
ARM GAS  C:\Users\katre\AppData\Local\Temp\ccsaao4d.s 			page 26


 859              	.LVL60:
 860              	.L114:
 490:Vendor_HAL/ST/STM32F4xx_HAL_Driver/Src/stm32f4xx_hal_rcc.c ****           }
 491:Vendor_HAL/ST/STM32F4xx_HAL_Driver/Src/stm32f4xx_hal_rcc.c ****         }
 492:Vendor_HAL/ST/STM32F4xx_HAL_Driver/Src/stm32f4xx_hal_rcc.c **** 
 493:Vendor_HAL/ST/STM32F4xx_HAL_Driver/Src/stm32f4xx_hal_rcc.c ****         /* Configure the main PLL clock source, multiplication and division factors. */
 494:Vendor_HAL/ST/STM32F4xx_HAL_Driver/Src/stm32f4xx_hal_rcc.c ****         WRITE_REG(RCC->PLLCFGR, (RCC_OscInitStruct->PLL.PLLSource                                  
 861              		.loc 1 494 9 is_stmt 1 view .LVU253
 862 0406 E369     		ldr	r3, [r4, #28]
 863 0408 226A     		ldr	r2, [r4, #32]
 864 040a 1343     		orrs	r3, r3, r2
 865 040c 626A     		ldr	r2, [r4, #36]
 866 040e 43EA8213 		orr	r3, r3, r2, lsl #6
 867 0412 A26A     		ldr	r2, [r4, #40]
 868 0414 5208     		lsrs	r2, r2, #1
 869 0416 013A     		subs	r2, r2, #1
 870 0418 43EA0243 		orr	r3, r3, r2, lsl #16
 871 041c E26A     		ldr	r2, [r4, #44]
 872 041e 43EA0263 		orr	r3, r3, r2, lsl #24
 873 0422 2D4A     		ldr	r2, .L119
 874 0424 5360     		str	r3, [r2, #4]
 495:Vendor_HAL/ST/STM32F4xx_HAL_Driver/Src/stm32f4xx_hal_rcc.c ****                                  RCC_OscInitStruct->PLL.PLLM                                       
 496:Vendor_HAL/ST/STM32F4xx_HAL_Driver/Src/stm32f4xx_hal_rcc.c ****                                  (RCC_OscInitStruct->PLL.PLLN << RCC_PLLCFGR_PLLN_Pos)             
 497:Vendor_HAL/ST/STM32F4xx_HAL_Driver/Src/stm32f4xx_hal_rcc.c ****                                  (((RCC_OscInitStruct->PLL.PLLP >> 1U) - 1U) << RCC_PLLCFGR_PLLP_Po
 498:Vendor_HAL/ST/STM32F4xx_HAL_Driver/Src/stm32f4xx_hal_rcc.c ****                                  (RCC_OscInitStruct->PLL.PLLQ << RCC_PLLCFGR_PLLQ_Pos)));
 499:Vendor_HAL/ST/STM32F4xx_HAL_Driver/Src/stm32f4xx_hal_rcc.c ****         /* Enable the main PLL. */
 500:Vendor_HAL/ST/STM32F4xx_HAL_Driver/Src/stm32f4xx_hal_rcc.c ****         __HAL_RCC_PLL_ENABLE();
 875              		.loc 1 500 9 view .LVU254
 876 0426 2F4B     		ldr	r3, .L119+12
 877 0428 0122     		movs	r2, #1
 878 042a 1A66     		str	r2, [r3, #96]
 501:Vendor_HAL/ST/STM32F4xx_HAL_Driver/Src/stm32f4xx_hal_rcc.c **** 
 502:Vendor_HAL/ST/STM32F4xx_HAL_Driver/Src/stm32f4xx_hal_rcc.c ****         /* Get Start Tick */
 503:Vendor_HAL/ST/STM32F4xx_HAL_Driver/Src/stm32f4xx_hal_rcc.c ****         tickstart = HAL_GetTick();
 879              		.loc 1 503 9 view .LVU255
 880              		.loc 1 503 21 is_stmt 0 view .LVU256
 881 042c FFF7FEFF 		bl	HAL_GetTick
 882              	.LVL61:
 883 0430 0446     		mov	r4, r0
 884              	.LVL62:
 504:Vendor_HAL/ST/STM32F4xx_HAL_Driver/Src/stm32f4xx_hal_rcc.c **** 
 505:Vendor_HAL/ST/STM32F4xx_HAL_Driver/Src/stm32f4xx_hal_rcc.c ****         /* Wait till PLL is ready */
 506:Vendor_HAL/ST/STM32F4xx_HAL_Driver/Src/stm32f4xx_hal_rcc.c ****         while(__HAL_RCC_GET_FLAG(RCC_FLAG_PLLRDY) == RESET)
 885              		.loc 1 506 9 is_stmt 1 view .LVU257
 886              	.L60:
 887              		.loc 1 506 14 view .LVU258
 888              		.loc 1 506 15 is_stmt 0 view .LVU259
 889 0432 294B     		ldr	r3, .L119
 890 0434 1B68     		ldr	r3, [r3]
 891              		.loc 1 506 14 view .LVU260
 892 0436 13F0007F 		tst	r3, #33554432
 893 043a 06D1     		bne	.L115
 507:Vendor_HAL/ST/STM32F4xx_HAL_Driver/Src/stm32f4xx_hal_rcc.c ****         {
 508:Vendor_HAL/ST/STM32F4xx_HAL_Driver/Src/stm32f4xx_hal_rcc.c ****           if((HAL_GetTick() - tickstart ) > PLL_TIMEOUT_VALUE)
 894              		.loc 1 508 11 is_stmt 1 view .LVU261
 895              		.loc 1 508 15 is_stmt 0 view .LVU262
 896 043c FFF7FEFF 		bl	HAL_GetTick
ARM GAS  C:\Users\katre\AppData\Local\Temp\ccsaao4d.s 			page 27


 897              	.LVL63:
 898              		.loc 1 508 29 view .LVU263
 899 0440 001B     		subs	r0, r0, r4
 900              		.loc 1 508 13 view .LVU264
 901 0442 0228     		cmp	r0, #2
 902 0444 F5D9     		bls	.L60
 509:Vendor_HAL/ST/STM32F4xx_HAL_Driver/Src/stm32f4xx_hal_rcc.c ****           {
 510:Vendor_HAL/ST/STM32F4xx_HAL_Driver/Src/stm32f4xx_hal_rcc.c ****             return HAL_TIMEOUT;
 903              		.loc 1 510 20 view .LVU265
 904 0446 0320     		movs	r0, #3
 905 0448 4FE0     		b	.L3
 906              	.L115:
 511:Vendor_HAL/ST/STM32F4xx_HAL_Driver/Src/stm32f4xx_hal_rcc.c ****           }
 512:Vendor_HAL/ST/STM32F4xx_HAL_Driver/Src/stm32f4xx_hal_rcc.c ****         }
 513:Vendor_HAL/ST/STM32F4xx_HAL_Driver/Src/stm32f4xx_hal_rcc.c ****       }
 514:Vendor_HAL/ST/STM32F4xx_HAL_Driver/Src/stm32f4xx_hal_rcc.c ****       else
 515:Vendor_HAL/ST/STM32F4xx_HAL_Driver/Src/stm32f4xx_hal_rcc.c ****       {
 516:Vendor_HAL/ST/STM32F4xx_HAL_Driver/Src/stm32f4xx_hal_rcc.c ****         /* Disable the main PLL. */
 517:Vendor_HAL/ST/STM32F4xx_HAL_Driver/Src/stm32f4xx_hal_rcc.c ****         __HAL_RCC_PLL_DISABLE();
 518:Vendor_HAL/ST/STM32F4xx_HAL_Driver/Src/stm32f4xx_hal_rcc.c **** 
 519:Vendor_HAL/ST/STM32F4xx_HAL_Driver/Src/stm32f4xx_hal_rcc.c ****         /* Get Start Tick */
 520:Vendor_HAL/ST/STM32F4xx_HAL_Driver/Src/stm32f4xx_hal_rcc.c ****         tickstart = HAL_GetTick();
 521:Vendor_HAL/ST/STM32F4xx_HAL_Driver/Src/stm32f4xx_hal_rcc.c **** 
 522:Vendor_HAL/ST/STM32F4xx_HAL_Driver/Src/stm32f4xx_hal_rcc.c ****         /* Wait till PLL is ready */
 523:Vendor_HAL/ST/STM32F4xx_HAL_Driver/Src/stm32f4xx_hal_rcc.c ****         while(__HAL_RCC_GET_FLAG(RCC_FLAG_PLLRDY) != RESET)
 524:Vendor_HAL/ST/STM32F4xx_HAL_Driver/Src/stm32f4xx_hal_rcc.c ****         {
 525:Vendor_HAL/ST/STM32F4xx_HAL_Driver/Src/stm32f4xx_hal_rcc.c ****           if((HAL_GetTick() - tickstart ) > PLL_TIMEOUT_VALUE)
 526:Vendor_HAL/ST/STM32F4xx_HAL_Driver/Src/stm32f4xx_hal_rcc.c ****           {
 527:Vendor_HAL/ST/STM32F4xx_HAL_Driver/Src/stm32f4xx_hal_rcc.c ****             return HAL_TIMEOUT;
 528:Vendor_HAL/ST/STM32F4xx_HAL_Driver/Src/stm32f4xx_hal_rcc.c ****           }
 529:Vendor_HAL/ST/STM32F4xx_HAL_Driver/Src/stm32f4xx_hal_rcc.c ****         }
 530:Vendor_HAL/ST/STM32F4xx_HAL_Driver/Src/stm32f4xx_hal_rcc.c ****       }
 531:Vendor_HAL/ST/STM32F4xx_HAL_Driver/Src/stm32f4xx_hal_rcc.c ****     }
 532:Vendor_HAL/ST/STM32F4xx_HAL_Driver/Src/stm32f4xx_hal_rcc.c ****     else
 533:Vendor_HAL/ST/STM32F4xx_HAL_Driver/Src/stm32f4xx_hal_rcc.c ****     {
 534:Vendor_HAL/ST/STM32F4xx_HAL_Driver/Src/stm32f4xx_hal_rcc.c ****       /* Check if there is a request to disable the PLL used as System clock source */
 535:Vendor_HAL/ST/STM32F4xx_HAL_Driver/Src/stm32f4xx_hal_rcc.c ****       if((RCC_OscInitStruct->PLL.PLLState) == RCC_PLL_OFF)
 536:Vendor_HAL/ST/STM32F4xx_HAL_Driver/Src/stm32f4xx_hal_rcc.c ****       {
 537:Vendor_HAL/ST/STM32F4xx_HAL_Driver/Src/stm32f4xx_hal_rcc.c ****         return HAL_ERROR;
 538:Vendor_HAL/ST/STM32F4xx_HAL_Driver/Src/stm32f4xx_hal_rcc.c ****       }
 539:Vendor_HAL/ST/STM32F4xx_HAL_Driver/Src/stm32f4xx_hal_rcc.c ****       else
 540:Vendor_HAL/ST/STM32F4xx_HAL_Driver/Src/stm32f4xx_hal_rcc.c ****       {
 541:Vendor_HAL/ST/STM32F4xx_HAL_Driver/Src/stm32f4xx_hal_rcc.c ****         /* Do not return HAL_ERROR if request repeats the current configuration */
 542:Vendor_HAL/ST/STM32F4xx_HAL_Driver/Src/stm32f4xx_hal_rcc.c ****         pll_config = RCC->PLLCFGR;
 543:Vendor_HAL/ST/STM32F4xx_HAL_Driver/Src/stm32f4xx_hal_rcc.c **** #if defined (RCC_PLLCFGR_PLLR)
 544:Vendor_HAL/ST/STM32F4xx_HAL_Driver/Src/stm32f4xx_hal_rcc.c ****         if (((RCC_OscInitStruct->PLL.PLLState) == RCC_PLL_OFF) ||
 545:Vendor_HAL/ST/STM32F4xx_HAL_Driver/Src/stm32f4xx_hal_rcc.c ****             (READ_BIT(pll_config, RCC_PLLCFGR_PLLSRC) != RCC_OscInitStruct->PLL.PLLSource) ||
 546:Vendor_HAL/ST/STM32F4xx_HAL_Driver/Src/stm32f4xx_hal_rcc.c ****             (READ_BIT(pll_config, RCC_PLLCFGR_PLLM) != (RCC_OscInitStruct->PLL.PLLM) << RCC_PLLCFGR
 547:Vendor_HAL/ST/STM32F4xx_HAL_Driver/Src/stm32f4xx_hal_rcc.c ****             (READ_BIT(pll_config, RCC_PLLCFGR_PLLN) != (RCC_OscInitStruct->PLL.PLLN) << RCC_PLLCFGR
 548:Vendor_HAL/ST/STM32F4xx_HAL_Driver/Src/stm32f4xx_hal_rcc.c ****             (READ_BIT(pll_config, RCC_PLLCFGR_PLLP) != (((RCC_OscInitStruct->PLL.PLLP >> 1U) - 1U))
 549:Vendor_HAL/ST/STM32F4xx_HAL_Driver/Src/stm32f4xx_hal_rcc.c ****             (READ_BIT(pll_config, RCC_PLLCFGR_PLLQ) != (RCC_OscInitStruct->PLL.PLLQ << RCC_PLLCFGR_
 550:Vendor_HAL/ST/STM32F4xx_HAL_Driver/Src/stm32f4xx_hal_rcc.c ****             (READ_BIT(pll_config, RCC_PLLCFGR_PLLR) != (RCC_OscInitStruct->PLL.PLLR << RCC_PLLCFGR_
 551:Vendor_HAL/ST/STM32F4xx_HAL_Driver/Src/stm32f4xx_hal_rcc.c **** #else
 552:Vendor_HAL/ST/STM32F4xx_HAL_Driver/Src/stm32f4xx_hal_rcc.c ****         if (((RCC_OscInitStruct->PLL.PLLState) == RCC_PLL_OFF) ||
 553:Vendor_HAL/ST/STM32F4xx_HAL_Driver/Src/stm32f4xx_hal_rcc.c ****             (READ_BIT(pll_config, RCC_PLLCFGR_PLLSRC) != RCC_OscInitStruct->PLL.PLLSource) ||
 554:Vendor_HAL/ST/STM32F4xx_HAL_Driver/Src/stm32f4xx_hal_rcc.c ****             (READ_BIT(pll_config, RCC_PLLCFGR_PLLM) != (RCC_OscInitStruct->PLL.PLLM) << RCC_PLLCFGR
 555:Vendor_HAL/ST/STM32F4xx_HAL_Driver/Src/stm32f4xx_hal_rcc.c ****             (READ_BIT(pll_config, RCC_PLLCFGR_PLLN) != (RCC_OscInitStruct->PLL.PLLN) << RCC_PLLCFGR
ARM GAS  C:\Users\katre\AppData\Local\Temp\ccsaao4d.s 			page 28


 556:Vendor_HAL/ST/STM32F4xx_HAL_Driver/Src/stm32f4xx_hal_rcc.c ****             (READ_BIT(pll_config, RCC_PLLCFGR_PLLP) != (((RCC_OscInitStruct->PLL.PLLP >> 1U) - 1U))
 557:Vendor_HAL/ST/STM32F4xx_HAL_Driver/Src/stm32f4xx_hal_rcc.c ****             (READ_BIT(pll_config, RCC_PLLCFGR_PLLQ) != (RCC_OscInitStruct->PLL.PLLQ << RCC_PLLCFGR_
 558:Vendor_HAL/ST/STM32F4xx_HAL_Driver/Src/stm32f4xx_hal_rcc.c **** #endif
 559:Vendor_HAL/ST/STM32F4xx_HAL_Driver/Src/stm32f4xx_hal_rcc.c ****         {
 560:Vendor_HAL/ST/STM32F4xx_HAL_Driver/Src/stm32f4xx_hal_rcc.c ****           return HAL_ERROR;
 561:Vendor_HAL/ST/STM32F4xx_HAL_Driver/Src/stm32f4xx_hal_rcc.c ****         }
 562:Vendor_HAL/ST/STM32F4xx_HAL_Driver/Src/stm32f4xx_hal_rcc.c ****       }
 563:Vendor_HAL/ST/STM32F4xx_HAL_Driver/Src/stm32f4xx_hal_rcc.c ****     }
 564:Vendor_HAL/ST/STM32F4xx_HAL_Driver/Src/stm32f4xx_hal_rcc.c ****   }
 565:Vendor_HAL/ST/STM32F4xx_HAL_Driver/Src/stm32f4xx_hal_rcc.c ****   return HAL_OK;
 907              		.loc 1 565 10 view .LVU266
 908 044a 0020     		movs	r0, #0
 909 044c 4DE0     		b	.L3
 910              	.LVL64:
 911              	.L52:
 517:Vendor_HAL/ST/STM32F4xx_HAL_Driver/Src/stm32f4xx_hal_rcc.c **** 
 912              		.loc 1 517 9 is_stmt 1 view .LVU267
 913 044e 254B     		ldr	r3, .L119+12
 914 0450 0022     		movs	r2, #0
 915 0452 1A66     		str	r2, [r3, #96]
 520:Vendor_HAL/ST/STM32F4xx_HAL_Driver/Src/stm32f4xx_hal_rcc.c **** 
 916              		.loc 1 520 9 view .LVU268
 520:Vendor_HAL/ST/STM32F4xx_HAL_Driver/Src/stm32f4xx_hal_rcc.c **** 
 917              		.loc 1 520 21 is_stmt 0 view .LVU269
 918 0454 FFF7FEFF 		bl	HAL_GetTick
 919              	.LVL65:
 920 0458 0446     		mov	r4, r0
 921              	.LVL66:
 523:Vendor_HAL/ST/STM32F4xx_HAL_Driver/Src/stm32f4xx_hal_rcc.c ****         {
 922              		.loc 1 523 9 is_stmt 1 view .LVU270
 923              	.L62:
 523:Vendor_HAL/ST/STM32F4xx_HAL_Driver/Src/stm32f4xx_hal_rcc.c ****         {
 924              		.loc 1 523 14 view .LVU271
 523:Vendor_HAL/ST/STM32F4xx_HAL_Driver/Src/stm32f4xx_hal_rcc.c ****         {
 925              		.loc 1 523 15 is_stmt 0 view .LVU272
 926 045a 1F4B     		ldr	r3, .L119
 927 045c 1B68     		ldr	r3, [r3]
 523:Vendor_HAL/ST/STM32F4xx_HAL_Driver/Src/stm32f4xx_hal_rcc.c ****         {
 928              		.loc 1 523 14 view .LVU273
 929 045e 13F0007F 		tst	r3, #33554432
 930 0462 06D0     		beq	.L116
 525:Vendor_HAL/ST/STM32F4xx_HAL_Driver/Src/stm32f4xx_hal_rcc.c ****           {
 931              		.loc 1 525 11 is_stmt 1 view .LVU274
 525:Vendor_HAL/ST/STM32F4xx_HAL_Driver/Src/stm32f4xx_hal_rcc.c ****           {
 932              		.loc 1 525 15 is_stmt 0 view .LVU275
 933 0464 FFF7FEFF 		bl	HAL_GetTick
 934              	.LVL67:
 525:Vendor_HAL/ST/STM32F4xx_HAL_Driver/Src/stm32f4xx_hal_rcc.c ****           {
 935              		.loc 1 525 29 view .LVU276
 936 0468 001B     		subs	r0, r0, r4
 525:Vendor_HAL/ST/STM32F4xx_HAL_Driver/Src/stm32f4xx_hal_rcc.c ****           {
 937              		.loc 1 525 13 view .LVU277
 938 046a 0228     		cmp	r0, #2
 939 046c F5D9     		bls	.L62
 527:Vendor_HAL/ST/STM32F4xx_HAL_Driver/Src/stm32f4xx_hal_rcc.c ****           }
 940              		.loc 1 527 20 view .LVU278
 941 046e 0320     		movs	r0, #3
ARM GAS  C:\Users\katre\AppData\Local\Temp\ccsaao4d.s 			page 29


 942 0470 3BE0     		b	.L3
 943              	.L116:
 944              		.loc 1 565 10 view .LVU279
 945 0472 0020     		movs	r0, #0
 946 0474 39E0     		b	.L3
 947              	.LVL68:
 948              	.L51:
 535:Vendor_HAL/ST/STM32F4xx_HAL_Driver/Src/stm32f4xx_hal_rcc.c ****       {
 949              		.loc 1 535 7 is_stmt 1 view .LVU280
 535:Vendor_HAL/ST/STM32F4xx_HAL_Driver/Src/stm32f4xx_hal_rcc.c ****       {
 950              		.loc 1 535 9 is_stmt 0 view .LVU281
 951 0476 012B     		cmp	r3, #1
 952 0478 39D0     		beq	.L81
 542:Vendor_HAL/ST/STM32F4xx_HAL_Driver/Src/stm32f4xx_hal_rcc.c **** #if defined (RCC_PLLCFGR_PLLR)
 953              		.loc 1 542 9 is_stmt 1 view .LVU282
 542:Vendor_HAL/ST/STM32F4xx_HAL_Driver/Src/stm32f4xx_hal_rcc.c **** #if defined (RCC_PLLCFGR_PLLR)
 954              		.loc 1 542 20 is_stmt 0 view .LVU283
 955 047a 174B     		ldr	r3, .L119
 956 047c 5B68     		ldr	r3, [r3, #4]
 957              	.LVL69:
 544:Vendor_HAL/ST/STM32F4xx_HAL_Driver/Src/stm32f4xx_hal_rcc.c ****             (READ_BIT(pll_config, RCC_PLLCFGR_PLLSRC) != RCC_OscInitStruct->PLL.PLLSource) ||
 958              		.loc 1 544 9 is_stmt 1 view .LVU284
 545:Vendor_HAL/ST/STM32F4xx_HAL_Driver/Src/stm32f4xx_hal_rcc.c ****             (READ_BIT(pll_config, RCC_PLLCFGR_PLLM) != (RCC_OscInitStruct->PLL.PLLM) << RCC_PLLCFGR
 959              		.loc 1 545 14 is_stmt 0 view .LVU285
 960 047e 03F48001 		and	r1, r3, #4194304
 545:Vendor_HAL/ST/STM32F4xx_HAL_Driver/Src/stm32f4xx_hal_rcc.c ****             (READ_BIT(pll_config, RCC_PLLCFGR_PLLM) != (RCC_OscInitStruct->PLL.PLLM) << RCC_PLLCFGR
 961              		.loc 1 545 80 view .LVU286
 962 0482 E269     		ldr	r2, [r4, #28]
 544:Vendor_HAL/ST/STM32F4xx_HAL_Driver/Src/stm32f4xx_hal_rcc.c ****             (READ_BIT(pll_config, RCC_PLLCFGR_PLLSRC) != RCC_OscInitStruct->PLL.PLLSource) ||
 963              		.loc 1 544 64 view .LVU287
 964 0484 9142     		cmp	r1, r2
 965 0486 34D1     		bne	.L82
 546:Vendor_HAL/ST/STM32F4xx_HAL_Driver/Src/stm32f4xx_hal_rcc.c ****             (READ_BIT(pll_config, RCC_PLLCFGR_PLLN) != (RCC_OscInitStruct->PLL.PLLN) << RCC_PLLCFGR
 966              		.loc 1 546 14 view .LVU288
 967 0488 03F03F02 		and	r2, r3, #63
 546:Vendor_HAL/ST/STM32F4xx_HAL_Driver/Src/stm32f4xx_hal_rcc.c ****             (READ_BIT(pll_config, RCC_PLLCFGR_PLLN) != (RCC_OscInitStruct->PLL.PLLN) << RCC_PLLCFGR
 968              		.loc 1 546 86 view .LVU289
 969 048c 216A     		ldr	r1, [r4, #32]
 545:Vendor_HAL/ST/STM32F4xx_HAL_Driver/Src/stm32f4xx_hal_rcc.c ****             (READ_BIT(pll_config, RCC_PLLCFGR_PLLM) != (RCC_OscInitStruct->PLL.PLLM) << RCC_PLLCFGR
 970              		.loc 1 545 92 view .LVU290
 971 048e 8A42     		cmp	r2, r1
 972 0490 31D1     		bne	.L83
 547:Vendor_HAL/ST/STM32F4xx_HAL_Driver/Src/stm32f4xx_hal_rcc.c ****             (READ_BIT(pll_config, RCC_PLLCFGR_PLLP) != (((RCC_OscInitStruct->PLL.PLLP >> 1U) - 1U))
 973              		.loc 1 547 79 view .LVU291
 974 0492 616A     		ldr	r1, [r4, #36]
 546:Vendor_HAL/ST/STM32F4xx_HAL_Driver/Src/stm32f4xx_hal_rcc.c ****             (READ_BIT(pll_config, RCC_PLLCFGR_PLLN) != (RCC_OscInitStruct->PLL.PLLN) << RCC_PLLCFGR
 975              		.loc 1 546 111 view .LVU292
 976 0494 47F6C072 		movw	r2, #32704
 977 0498 1A40     		ands	r2, r2, r3
 978 049a B2EB811F 		cmp	r2, r1, lsl #6
 979 049e 2CD1     		bne	.L84
 548:Vendor_HAL/ST/STM32F4xx_HAL_Driver/Src/stm32f4xx_hal_rcc.c ****             (READ_BIT(pll_config, RCC_PLLCFGR_PLLQ) != (RCC_OscInitStruct->PLL.PLLQ << RCC_PLLCFGR_
 980              		.loc 1 548 14 view .LVU293
 981 04a0 03F44031 		and	r1, r3, #196608
 548:Vendor_HAL/ST/STM32F4xx_HAL_Driver/Src/stm32f4xx_hal_rcc.c ****             (READ_BIT(pll_config, RCC_PLLCFGR_PLLQ) != (RCC_OscInitStruct->PLL.PLLQ << RCC_PLLCFGR_
 982              		.loc 1 548 81 view .LVU294
 983 04a4 A26A     		ldr	r2, [r4, #40]
ARM GAS  C:\Users\katre\AppData\Local\Temp\ccsaao4d.s 			page 30


 548:Vendor_HAL/ST/STM32F4xx_HAL_Driver/Src/stm32f4xx_hal_rcc.c ****             (READ_BIT(pll_config, RCC_PLLCFGR_PLLQ) != (RCC_OscInitStruct->PLL.PLLQ << RCC_PLLCFGR_
 984              		.loc 1 548 87 view .LVU295
 985 04a6 5208     		lsrs	r2, r2, #1
 548:Vendor_HAL/ST/STM32F4xx_HAL_Driver/Src/stm32f4xx_hal_rcc.c ****             (READ_BIT(pll_config, RCC_PLLCFGR_PLLQ) != (RCC_OscInitStruct->PLL.PLLQ << RCC_PLLCFGR_
 986              		.loc 1 548 94 view .LVU296
 987 04a8 013A     		subs	r2, r2, #1
 547:Vendor_HAL/ST/STM32F4xx_HAL_Driver/Src/stm32f4xx_hal_rcc.c ****             (READ_BIT(pll_config, RCC_PLLCFGR_PLLP) != (((RCC_OscInitStruct->PLL.PLLP >> 1U) - 1U))
 988              		.loc 1 547 111 view .LVU297
 989 04aa B1EB024F 		cmp	r1, r2, lsl #16
 990 04ae 26D1     		bne	.L85
 549:Vendor_HAL/ST/STM32F4xx_HAL_Driver/Src/stm32f4xx_hal_rcc.c ****             (READ_BIT(pll_config, RCC_PLLCFGR_PLLR) != (RCC_OscInitStruct->PLL.PLLR << RCC_PLLCFGR_
 991              		.loc 1 549 14 view .LVU298
 992 04b0 03F07062 		and	r2, r3, #251658240
 549:Vendor_HAL/ST/STM32F4xx_HAL_Driver/Src/stm32f4xx_hal_rcc.c ****             (READ_BIT(pll_config, RCC_PLLCFGR_PLLR) != (RCC_OscInitStruct->PLL.PLLR << RCC_PLLCFGR_
 993              		.loc 1 549 79 view .LVU299
 994 04b4 E16A     		ldr	r1, [r4, #44]
 548:Vendor_HAL/ST/STM32F4xx_HAL_Driver/Src/stm32f4xx_hal_rcc.c ****             (READ_BIT(pll_config, RCC_PLLCFGR_PLLQ) != (RCC_OscInitStruct->PLL.PLLQ << RCC_PLLCFGR_
 995              		.loc 1 548 126 view .LVU300
 996 04b6 B2EB016F 		cmp	r2, r1, lsl #24
 997 04ba 22D1     		bne	.L86
 550:Vendor_HAL/ST/STM32F4xx_HAL_Driver/Src/stm32f4xx_hal_rcc.c **** #else
 998              		.loc 1 550 14 view .LVU301
 999 04bc 03F0E043 		and	r3, r3, #1879048192
 1000              	.LVL70:
 550:Vendor_HAL/ST/STM32F4xx_HAL_Driver/Src/stm32f4xx_hal_rcc.c **** #else
 1001              		.loc 1 550 79 view .LVU302
 1002 04c0 226B     		ldr	r2, [r4, #48]
 549:Vendor_HAL/ST/STM32F4xx_HAL_Driver/Src/stm32f4xx_hal_rcc.c ****             (READ_BIT(pll_config, RCC_PLLCFGR_PLLR) != (RCC_OscInitStruct->PLL.PLLR << RCC_PLLCFGR_
 1003              		.loc 1 549 111 view .LVU303
 1004 04c2 B3EB027F 		cmp	r3, r2, lsl #28
 1005 04c6 1ED1     		bne	.L87
 1006              		.loc 1 565 10 view .LVU304
 1007 04c8 0020     		movs	r0, #0
 1008 04ca 0EE0     		b	.L3
 1009              	.LVL71:
 1010              	.L64:
 1011              	.LCFI2:
 1012              		.cfi_def_cfa_offset 0
 1013              		.cfi_restore 4
 1014              		.cfi_restore 5
 1015              		.cfi_restore 6
 1016              		.cfi_restore 14
 228:Vendor_HAL/ST/STM32F4xx_HAL_Driver/Src/stm32f4xx_hal_rcc.c ****   }
 1017              		.loc 1 228 12 view .LVU305
 1018 04cc 0120     		movs	r0, #1
 1019              	.LVL72:
 566:Vendor_HAL/ST/STM32F4xx_HAL_Driver/Src/stm32f4xx_hal_rcc.c **** }
 1020              		.loc 1 566 1 view .LVU306
 1021 04ce 7047     		bx	lr
 1022              	.LVL73:
 1023              	.L97:
 1024              	.LCFI3:
 1025              		.cfi_def_cfa_offset 24
 1026              		.cfi_offset 4, -16
 1027              		.cfi_offset 5, -12
 1028              		.cfi_offset 6, -8
 1029              		.cfi_offset 14, -4
ARM GAS  C:\Users\katre\AppData\Local\Temp\ccsaao4d.s 			page 31


 244:Vendor_HAL/ST/STM32F4xx_HAL_Driver/Src/stm32f4xx_hal_rcc.c ****       }
 1030              		.loc 1 244 16 view .LVU307
 1031 04d0 0120     		movs	r0, #1
 1032 04d2 0AE0     		b	.L3
 1033              	.L68:
 297:Vendor_HAL/ST/STM32F4xx_HAL_Driver/Src/stm32f4xx_hal_rcc.c ****       }
 1034              		.loc 1 297 16 view .LVU308
 1035 04d4 0120     		movs	r0, #1
 1036 04d6 08E0     		b	.L3
 1037              	.L120:
 1038              		.align	2
 1039              	.L119:
 1040 04d8 00380240 		.word	1073887232
 1041 04dc 00700040 		.word	1073770496
 1042 04e0 00000000 		.word	.LC0
 1043 04e4 00004742 		.word	1111949312
 1044              	.L77:
 565:Vendor_HAL/ST/STM32F4xx_HAL_Driver/Src/stm32f4xx_hal_rcc.c **** }
 1045              		.loc 1 565 10 view .LVU309
 1046 04e8 0020     		movs	r0, #0
 1047              	.LVL74:
 1048              	.L3:
 1049              		.loc 1 566 1 view .LVU310
 1050 04ea 02B0     		add	sp, sp, #8
 1051              	.LCFI4:
 1052              		.cfi_remember_state
 1053              		.cfi_def_cfa_offset 16
 1054              		@ sp needed
 1055 04ec 70BD     		pop	{r4, r5, r6, pc}
 1056              	.LVL75:
 1057              	.L81:
 1058              	.LCFI5:
 1059              		.cfi_restore_state
 537:Vendor_HAL/ST/STM32F4xx_HAL_Driver/Src/stm32f4xx_hal_rcc.c ****       }
 1060              		.loc 1 537 16 view .LVU311
 1061 04ee 0120     		movs	r0, #1
 1062 04f0 FBE7     		b	.L3
 1063              	.LVL76:
 1064              	.L82:
 560:Vendor_HAL/ST/STM32F4xx_HAL_Driver/Src/stm32f4xx_hal_rcc.c ****         }
 1065              		.loc 1 560 18 view .LVU312
 1066 04f2 0120     		movs	r0, #1
 1067 04f4 F9E7     		b	.L3
 1068              	.L83:
 1069 04f6 0120     		movs	r0, #1
 1070 04f8 F7E7     		b	.L3
 1071              	.L84:
 1072 04fa 0120     		movs	r0, #1
 1073 04fc F5E7     		b	.L3
 1074              	.L85:
 1075 04fe 0120     		movs	r0, #1
 1076 0500 F3E7     		b	.L3
 1077              	.L86:
 1078 0502 0120     		movs	r0, #1
 1079 0504 F1E7     		b	.L3
 1080              	.LVL77:
 1081              	.L87:
ARM GAS  C:\Users\katre\AppData\Local\Temp\ccsaao4d.s 			page 32


 560:Vendor_HAL/ST/STM32F4xx_HAL_Driver/Src/stm32f4xx_hal_rcc.c ****         }
 1082              		.loc 1 560 18 view .LVU313
 1083 0506 0120     		movs	r0, #1
 1084 0508 EFE7     		b	.L3
 1085              		.cfi_endproc
 1086              	.LFE131:
 1088 050a 00BF     		.section	.text.HAL_RCC_MCOConfig,"ax",%progbits
 1089              		.align	1
 1090              		.global	HAL_RCC_MCOConfig
 1091              		.syntax unified
 1092              		.thumb
 1093              		.thumb_func
 1095              	HAL_RCC_MCOConfig:
 1096              	.LVL78:
 1097              	.LFB133:
 567:Vendor_HAL/ST/STM32F4xx_HAL_Driver/Src/stm32f4xx_hal_rcc.c **** 
 568:Vendor_HAL/ST/STM32F4xx_HAL_Driver/Src/stm32f4xx_hal_rcc.c **** /**
 569:Vendor_HAL/ST/STM32F4xx_HAL_Driver/Src/stm32f4xx_hal_rcc.c ****   * @brief  Initializes the CPU, AHB and APB busses clocks according to the specified
 570:Vendor_HAL/ST/STM32F4xx_HAL_Driver/Src/stm32f4xx_hal_rcc.c ****   *         parameters in the RCC_ClkInitStruct.
 571:Vendor_HAL/ST/STM32F4xx_HAL_Driver/Src/stm32f4xx_hal_rcc.c ****   * @param  RCC_ClkInitStruct pointer to an RCC_OscInitTypeDef structure that
 572:Vendor_HAL/ST/STM32F4xx_HAL_Driver/Src/stm32f4xx_hal_rcc.c ****   *         contains the configuration information for the RCC peripheral.
 573:Vendor_HAL/ST/STM32F4xx_HAL_Driver/Src/stm32f4xx_hal_rcc.c ****   * @param  FLatency FLASH Latency, this parameter depend on device selected
 574:Vendor_HAL/ST/STM32F4xx_HAL_Driver/Src/stm32f4xx_hal_rcc.c ****   *
 575:Vendor_HAL/ST/STM32F4xx_HAL_Driver/Src/stm32f4xx_hal_rcc.c ****   * @note   The SystemCoreClock CMSIS variable is used to store System Clock Frequency
 576:Vendor_HAL/ST/STM32F4xx_HAL_Driver/Src/stm32f4xx_hal_rcc.c ****   *         and updated by HAL_RCC_GetHCLKFreq() function called within this function
 577:Vendor_HAL/ST/STM32F4xx_HAL_Driver/Src/stm32f4xx_hal_rcc.c ****   *
 578:Vendor_HAL/ST/STM32F4xx_HAL_Driver/Src/stm32f4xx_hal_rcc.c ****   * @note   The HSI is used (enabled by hardware) as system clock source after
 579:Vendor_HAL/ST/STM32F4xx_HAL_Driver/Src/stm32f4xx_hal_rcc.c ****   *         startup from Reset, wake-up from STOP and STANDBY mode, or in case
 580:Vendor_HAL/ST/STM32F4xx_HAL_Driver/Src/stm32f4xx_hal_rcc.c ****   *         of failure of the HSE used directly or indirectly as system clock
 581:Vendor_HAL/ST/STM32F4xx_HAL_Driver/Src/stm32f4xx_hal_rcc.c ****   *         (if the Clock Security System CSS is enabled).
 582:Vendor_HAL/ST/STM32F4xx_HAL_Driver/Src/stm32f4xx_hal_rcc.c ****   *
 583:Vendor_HAL/ST/STM32F4xx_HAL_Driver/Src/stm32f4xx_hal_rcc.c ****   * @note   A switch from one clock source to another occurs only if the target
 584:Vendor_HAL/ST/STM32F4xx_HAL_Driver/Src/stm32f4xx_hal_rcc.c ****   *         clock source is ready (clock stable after startup delay or PLL locked).
 585:Vendor_HAL/ST/STM32F4xx_HAL_Driver/Src/stm32f4xx_hal_rcc.c ****   *         If a clock source which is not yet ready is selected, the switch will
 586:Vendor_HAL/ST/STM32F4xx_HAL_Driver/Src/stm32f4xx_hal_rcc.c ****   *         occur when the clock source will be ready.
 587:Vendor_HAL/ST/STM32F4xx_HAL_Driver/Src/stm32f4xx_hal_rcc.c ****   *
 588:Vendor_HAL/ST/STM32F4xx_HAL_Driver/Src/stm32f4xx_hal_rcc.c ****   * @note   Depending on the device voltage range, the software has to set correctly
 589:Vendor_HAL/ST/STM32F4xx_HAL_Driver/Src/stm32f4xx_hal_rcc.c ****   *         HPRE[3:0] bits to ensure that HCLK not exceed the maximum allowed frequency
 590:Vendor_HAL/ST/STM32F4xx_HAL_Driver/Src/stm32f4xx_hal_rcc.c ****   *         (for more details refer to section above "Initialization/de-initialization functions")
 591:Vendor_HAL/ST/STM32F4xx_HAL_Driver/Src/stm32f4xx_hal_rcc.c ****   * @retval None
 592:Vendor_HAL/ST/STM32F4xx_HAL_Driver/Src/stm32f4xx_hal_rcc.c ****   */
 593:Vendor_HAL/ST/STM32F4xx_HAL_Driver/Src/stm32f4xx_hal_rcc.c **** HAL_StatusTypeDef HAL_RCC_ClockConfig(RCC_ClkInitTypeDef  *RCC_ClkInitStruct, uint32_t FLatency)
 594:Vendor_HAL/ST/STM32F4xx_HAL_Driver/Src/stm32f4xx_hal_rcc.c **** {
 595:Vendor_HAL/ST/STM32F4xx_HAL_Driver/Src/stm32f4xx_hal_rcc.c ****   uint32_t tickstart;
 596:Vendor_HAL/ST/STM32F4xx_HAL_Driver/Src/stm32f4xx_hal_rcc.c **** 
 597:Vendor_HAL/ST/STM32F4xx_HAL_Driver/Src/stm32f4xx_hal_rcc.c ****   /* Check Null pointer */
 598:Vendor_HAL/ST/STM32F4xx_HAL_Driver/Src/stm32f4xx_hal_rcc.c ****   if(RCC_ClkInitStruct == NULL)
 599:Vendor_HAL/ST/STM32F4xx_HAL_Driver/Src/stm32f4xx_hal_rcc.c ****   {
 600:Vendor_HAL/ST/STM32F4xx_HAL_Driver/Src/stm32f4xx_hal_rcc.c ****     return HAL_ERROR;
 601:Vendor_HAL/ST/STM32F4xx_HAL_Driver/Src/stm32f4xx_hal_rcc.c ****   }
 602:Vendor_HAL/ST/STM32F4xx_HAL_Driver/Src/stm32f4xx_hal_rcc.c **** 
 603:Vendor_HAL/ST/STM32F4xx_HAL_Driver/Src/stm32f4xx_hal_rcc.c ****   /* Check the parameters */
 604:Vendor_HAL/ST/STM32F4xx_HAL_Driver/Src/stm32f4xx_hal_rcc.c ****   assert_param(IS_RCC_CLOCKTYPE(RCC_ClkInitStruct->ClockType));
 605:Vendor_HAL/ST/STM32F4xx_HAL_Driver/Src/stm32f4xx_hal_rcc.c ****   assert_param(IS_FLASH_LATENCY(FLatency));
 606:Vendor_HAL/ST/STM32F4xx_HAL_Driver/Src/stm32f4xx_hal_rcc.c **** 
 607:Vendor_HAL/ST/STM32F4xx_HAL_Driver/Src/stm32f4xx_hal_rcc.c ****   /* To correctly read data from FLASH memory, the number of wait states (LATENCY)
 608:Vendor_HAL/ST/STM32F4xx_HAL_Driver/Src/stm32f4xx_hal_rcc.c ****     must be correctly programmed according to the frequency of the CPU clock
ARM GAS  C:\Users\katre\AppData\Local\Temp\ccsaao4d.s 			page 33


 609:Vendor_HAL/ST/STM32F4xx_HAL_Driver/Src/stm32f4xx_hal_rcc.c ****     (HCLK) and the supply voltage of the device. */
 610:Vendor_HAL/ST/STM32F4xx_HAL_Driver/Src/stm32f4xx_hal_rcc.c **** 
 611:Vendor_HAL/ST/STM32F4xx_HAL_Driver/Src/stm32f4xx_hal_rcc.c ****   /* Increasing the number of wait states because of higher CPU frequency */
 612:Vendor_HAL/ST/STM32F4xx_HAL_Driver/Src/stm32f4xx_hal_rcc.c ****   if(FLatency > __HAL_FLASH_GET_LATENCY())
 613:Vendor_HAL/ST/STM32F4xx_HAL_Driver/Src/stm32f4xx_hal_rcc.c ****   {
 614:Vendor_HAL/ST/STM32F4xx_HAL_Driver/Src/stm32f4xx_hal_rcc.c ****     /* Program the new number of wait states to the LATENCY bits in the FLASH_ACR register */
 615:Vendor_HAL/ST/STM32F4xx_HAL_Driver/Src/stm32f4xx_hal_rcc.c ****     __HAL_FLASH_SET_LATENCY(FLatency);
 616:Vendor_HAL/ST/STM32F4xx_HAL_Driver/Src/stm32f4xx_hal_rcc.c **** 
 617:Vendor_HAL/ST/STM32F4xx_HAL_Driver/Src/stm32f4xx_hal_rcc.c ****     /* Check that the new number of wait states is taken into account to access the Flash
 618:Vendor_HAL/ST/STM32F4xx_HAL_Driver/Src/stm32f4xx_hal_rcc.c ****     memory by reading the FLASH_ACR register */
 619:Vendor_HAL/ST/STM32F4xx_HAL_Driver/Src/stm32f4xx_hal_rcc.c ****     if(__HAL_FLASH_GET_LATENCY() != FLatency)
 620:Vendor_HAL/ST/STM32F4xx_HAL_Driver/Src/stm32f4xx_hal_rcc.c ****     {
 621:Vendor_HAL/ST/STM32F4xx_HAL_Driver/Src/stm32f4xx_hal_rcc.c ****       return HAL_ERROR;
 622:Vendor_HAL/ST/STM32F4xx_HAL_Driver/Src/stm32f4xx_hal_rcc.c ****     }
 623:Vendor_HAL/ST/STM32F4xx_HAL_Driver/Src/stm32f4xx_hal_rcc.c ****   }
 624:Vendor_HAL/ST/STM32F4xx_HAL_Driver/Src/stm32f4xx_hal_rcc.c **** 
 625:Vendor_HAL/ST/STM32F4xx_HAL_Driver/Src/stm32f4xx_hal_rcc.c ****   /*-------------------------- HCLK Configuration --------------------------*/
 626:Vendor_HAL/ST/STM32F4xx_HAL_Driver/Src/stm32f4xx_hal_rcc.c ****   if(((RCC_ClkInitStruct->ClockType) & RCC_CLOCKTYPE_HCLK) == RCC_CLOCKTYPE_HCLK)
 627:Vendor_HAL/ST/STM32F4xx_HAL_Driver/Src/stm32f4xx_hal_rcc.c ****   {
 628:Vendor_HAL/ST/STM32F4xx_HAL_Driver/Src/stm32f4xx_hal_rcc.c ****     /* Set the highest APBx dividers in order to ensure that we do not go through
 629:Vendor_HAL/ST/STM32F4xx_HAL_Driver/Src/stm32f4xx_hal_rcc.c ****        a non-spec phase whatever we decrease or increase HCLK. */
 630:Vendor_HAL/ST/STM32F4xx_HAL_Driver/Src/stm32f4xx_hal_rcc.c ****     if(((RCC_ClkInitStruct->ClockType) & RCC_CLOCKTYPE_PCLK1) == RCC_CLOCKTYPE_PCLK1)
 631:Vendor_HAL/ST/STM32F4xx_HAL_Driver/Src/stm32f4xx_hal_rcc.c ****     {
 632:Vendor_HAL/ST/STM32F4xx_HAL_Driver/Src/stm32f4xx_hal_rcc.c ****       MODIFY_REG(RCC->CFGR, RCC_CFGR_PPRE1, RCC_HCLK_DIV16);
 633:Vendor_HAL/ST/STM32F4xx_HAL_Driver/Src/stm32f4xx_hal_rcc.c ****     }
 634:Vendor_HAL/ST/STM32F4xx_HAL_Driver/Src/stm32f4xx_hal_rcc.c **** 
 635:Vendor_HAL/ST/STM32F4xx_HAL_Driver/Src/stm32f4xx_hal_rcc.c ****     if(((RCC_ClkInitStruct->ClockType) & RCC_CLOCKTYPE_PCLK2) == RCC_CLOCKTYPE_PCLK2)
 636:Vendor_HAL/ST/STM32F4xx_HAL_Driver/Src/stm32f4xx_hal_rcc.c ****     {
 637:Vendor_HAL/ST/STM32F4xx_HAL_Driver/Src/stm32f4xx_hal_rcc.c ****       MODIFY_REG(RCC->CFGR, RCC_CFGR_PPRE2, (RCC_HCLK_DIV16 << 3));
 638:Vendor_HAL/ST/STM32F4xx_HAL_Driver/Src/stm32f4xx_hal_rcc.c ****     }
 639:Vendor_HAL/ST/STM32F4xx_HAL_Driver/Src/stm32f4xx_hal_rcc.c **** 
 640:Vendor_HAL/ST/STM32F4xx_HAL_Driver/Src/stm32f4xx_hal_rcc.c ****     assert_param(IS_RCC_HCLK(RCC_ClkInitStruct->AHBCLKDivider));
 641:Vendor_HAL/ST/STM32F4xx_HAL_Driver/Src/stm32f4xx_hal_rcc.c ****     MODIFY_REG(RCC->CFGR, RCC_CFGR_HPRE, RCC_ClkInitStruct->AHBCLKDivider);
 642:Vendor_HAL/ST/STM32F4xx_HAL_Driver/Src/stm32f4xx_hal_rcc.c ****   }
 643:Vendor_HAL/ST/STM32F4xx_HAL_Driver/Src/stm32f4xx_hal_rcc.c **** 
 644:Vendor_HAL/ST/STM32F4xx_HAL_Driver/Src/stm32f4xx_hal_rcc.c ****   /*------------------------- SYSCLK Configuration ---------------------------*/
 645:Vendor_HAL/ST/STM32F4xx_HAL_Driver/Src/stm32f4xx_hal_rcc.c ****   if(((RCC_ClkInitStruct->ClockType) & RCC_CLOCKTYPE_SYSCLK) == RCC_CLOCKTYPE_SYSCLK)
 646:Vendor_HAL/ST/STM32F4xx_HAL_Driver/Src/stm32f4xx_hal_rcc.c ****   {
 647:Vendor_HAL/ST/STM32F4xx_HAL_Driver/Src/stm32f4xx_hal_rcc.c ****     assert_param(IS_RCC_SYSCLKSOURCE(RCC_ClkInitStruct->SYSCLKSource));
 648:Vendor_HAL/ST/STM32F4xx_HAL_Driver/Src/stm32f4xx_hal_rcc.c **** 
 649:Vendor_HAL/ST/STM32F4xx_HAL_Driver/Src/stm32f4xx_hal_rcc.c ****     /* HSE is selected as System Clock Source */
 650:Vendor_HAL/ST/STM32F4xx_HAL_Driver/Src/stm32f4xx_hal_rcc.c ****     if(RCC_ClkInitStruct->SYSCLKSource == RCC_SYSCLKSOURCE_HSE)
 651:Vendor_HAL/ST/STM32F4xx_HAL_Driver/Src/stm32f4xx_hal_rcc.c ****     {
 652:Vendor_HAL/ST/STM32F4xx_HAL_Driver/Src/stm32f4xx_hal_rcc.c ****       /* Check the HSE ready flag */
 653:Vendor_HAL/ST/STM32F4xx_HAL_Driver/Src/stm32f4xx_hal_rcc.c ****       if(__HAL_RCC_GET_FLAG(RCC_FLAG_HSERDY) == RESET)
 654:Vendor_HAL/ST/STM32F4xx_HAL_Driver/Src/stm32f4xx_hal_rcc.c ****       {
 655:Vendor_HAL/ST/STM32F4xx_HAL_Driver/Src/stm32f4xx_hal_rcc.c ****         return HAL_ERROR;
 656:Vendor_HAL/ST/STM32F4xx_HAL_Driver/Src/stm32f4xx_hal_rcc.c ****       }
 657:Vendor_HAL/ST/STM32F4xx_HAL_Driver/Src/stm32f4xx_hal_rcc.c ****     }
 658:Vendor_HAL/ST/STM32F4xx_HAL_Driver/Src/stm32f4xx_hal_rcc.c ****     /* PLL is selected as System Clock Source */
 659:Vendor_HAL/ST/STM32F4xx_HAL_Driver/Src/stm32f4xx_hal_rcc.c ****     else if((RCC_ClkInitStruct->SYSCLKSource == RCC_SYSCLKSOURCE_PLLCLK)   ||
 660:Vendor_HAL/ST/STM32F4xx_HAL_Driver/Src/stm32f4xx_hal_rcc.c ****             (RCC_ClkInitStruct->SYSCLKSource == RCC_SYSCLKSOURCE_PLLRCLK))
 661:Vendor_HAL/ST/STM32F4xx_HAL_Driver/Src/stm32f4xx_hal_rcc.c ****     {
 662:Vendor_HAL/ST/STM32F4xx_HAL_Driver/Src/stm32f4xx_hal_rcc.c ****       /* Check the PLL ready flag */
 663:Vendor_HAL/ST/STM32F4xx_HAL_Driver/Src/stm32f4xx_hal_rcc.c ****       if(__HAL_RCC_GET_FLAG(RCC_FLAG_PLLRDY) == RESET)
 664:Vendor_HAL/ST/STM32F4xx_HAL_Driver/Src/stm32f4xx_hal_rcc.c ****       {
 665:Vendor_HAL/ST/STM32F4xx_HAL_Driver/Src/stm32f4xx_hal_rcc.c ****         return HAL_ERROR;
ARM GAS  C:\Users\katre\AppData\Local\Temp\ccsaao4d.s 			page 34


 666:Vendor_HAL/ST/STM32F4xx_HAL_Driver/Src/stm32f4xx_hal_rcc.c ****       }
 667:Vendor_HAL/ST/STM32F4xx_HAL_Driver/Src/stm32f4xx_hal_rcc.c ****     }
 668:Vendor_HAL/ST/STM32F4xx_HAL_Driver/Src/stm32f4xx_hal_rcc.c ****     /* HSI is selected as System Clock Source */
 669:Vendor_HAL/ST/STM32F4xx_HAL_Driver/Src/stm32f4xx_hal_rcc.c ****     else
 670:Vendor_HAL/ST/STM32F4xx_HAL_Driver/Src/stm32f4xx_hal_rcc.c ****     {
 671:Vendor_HAL/ST/STM32F4xx_HAL_Driver/Src/stm32f4xx_hal_rcc.c ****       /* Check the HSI ready flag */
 672:Vendor_HAL/ST/STM32F4xx_HAL_Driver/Src/stm32f4xx_hal_rcc.c ****       if(__HAL_RCC_GET_FLAG(RCC_FLAG_HSIRDY) == RESET)
 673:Vendor_HAL/ST/STM32F4xx_HAL_Driver/Src/stm32f4xx_hal_rcc.c ****       {
 674:Vendor_HAL/ST/STM32F4xx_HAL_Driver/Src/stm32f4xx_hal_rcc.c ****         return HAL_ERROR;
 675:Vendor_HAL/ST/STM32F4xx_HAL_Driver/Src/stm32f4xx_hal_rcc.c ****       }
 676:Vendor_HAL/ST/STM32F4xx_HAL_Driver/Src/stm32f4xx_hal_rcc.c ****     }
 677:Vendor_HAL/ST/STM32F4xx_HAL_Driver/Src/stm32f4xx_hal_rcc.c **** 
 678:Vendor_HAL/ST/STM32F4xx_HAL_Driver/Src/stm32f4xx_hal_rcc.c ****     __HAL_RCC_SYSCLK_CONFIG(RCC_ClkInitStruct->SYSCLKSource);
 679:Vendor_HAL/ST/STM32F4xx_HAL_Driver/Src/stm32f4xx_hal_rcc.c **** 
 680:Vendor_HAL/ST/STM32F4xx_HAL_Driver/Src/stm32f4xx_hal_rcc.c ****     /* Get Start Tick */
 681:Vendor_HAL/ST/STM32F4xx_HAL_Driver/Src/stm32f4xx_hal_rcc.c ****     tickstart = HAL_GetTick();
 682:Vendor_HAL/ST/STM32F4xx_HAL_Driver/Src/stm32f4xx_hal_rcc.c **** 
 683:Vendor_HAL/ST/STM32F4xx_HAL_Driver/Src/stm32f4xx_hal_rcc.c ****     while (__HAL_RCC_GET_SYSCLK_SOURCE() != (RCC_ClkInitStruct->SYSCLKSource << RCC_CFGR_SWS_Pos))
 684:Vendor_HAL/ST/STM32F4xx_HAL_Driver/Src/stm32f4xx_hal_rcc.c ****     {
 685:Vendor_HAL/ST/STM32F4xx_HAL_Driver/Src/stm32f4xx_hal_rcc.c ****       if ((HAL_GetTick() - tickstart) > CLOCKSWITCH_TIMEOUT_VALUE)
 686:Vendor_HAL/ST/STM32F4xx_HAL_Driver/Src/stm32f4xx_hal_rcc.c ****       {
 687:Vendor_HAL/ST/STM32F4xx_HAL_Driver/Src/stm32f4xx_hal_rcc.c ****         return HAL_TIMEOUT;
 688:Vendor_HAL/ST/STM32F4xx_HAL_Driver/Src/stm32f4xx_hal_rcc.c ****       }
 689:Vendor_HAL/ST/STM32F4xx_HAL_Driver/Src/stm32f4xx_hal_rcc.c ****     }
 690:Vendor_HAL/ST/STM32F4xx_HAL_Driver/Src/stm32f4xx_hal_rcc.c ****   }
 691:Vendor_HAL/ST/STM32F4xx_HAL_Driver/Src/stm32f4xx_hal_rcc.c **** 
 692:Vendor_HAL/ST/STM32F4xx_HAL_Driver/Src/stm32f4xx_hal_rcc.c ****   /* Decreasing the number of wait states because of lower CPU frequency */
 693:Vendor_HAL/ST/STM32F4xx_HAL_Driver/Src/stm32f4xx_hal_rcc.c ****   if(FLatency < __HAL_FLASH_GET_LATENCY())
 694:Vendor_HAL/ST/STM32F4xx_HAL_Driver/Src/stm32f4xx_hal_rcc.c ****   {
 695:Vendor_HAL/ST/STM32F4xx_HAL_Driver/Src/stm32f4xx_hal_rcc.c ****      /* Program the new number of wait states to the LATENCY bits in the FLASH_ACR register */
 696:Vendor_HAL/ST/STM32F4xx_HAL_Driver/Src/stm32f4xx_hal_rcc.c ****     __HAL_FLASH_SET_LATENCY(FLatency);
 697:Vendor_HAL/ST/STM32F4xx_HAL_Driver/Src/stm32f4xx_hal_rcc.c **** 
 698:Vendor_HAL/ST/STM32F4xx_HAL_Driver/Src/stm32f4xx_hal_rcc.c ****     /* Check that the new number of wait states is taken into account to access the Flash
 699:Vendor_HAL/ST/STM32F4xx_HAL_Driver/Src/stm32f4xx_hal_rcc.c ****     memory by reading the FLASH_ACR register */
 700:Vendor_HAL/ST/STM32F4xx_HAL_Driver/Src/stm32f4xx_hal_rcc.c ****     if(__HAL_FLASH_GET_LATENCY() != FLatency)
 701:Vendor_HAL/ST/STM32F4xx_HAL_Driver/Src/stm32f4xx_hal_rcc.c ****     {
 702:Vendor_HAL/ST/STM32F4xx_HAL_Driver/Src/stm32f4xx_hal_rcc.c ****       return HAL_ERROR;
 703:Vendor_HAL/ST/STM32F4xx_HAL_Driver/Src/stm32f4xx_hal_rcc.c ****     }
 704:Vendor_HAL/ST/STM32F4xx_HAL_Driver/Src/stm32f4xx_hal_rcc.c ****   }
 705:Vendor_HAL/ST/STM32F4xx_HAL_Driver/Src/stm32f4xx_hal_rcc.c **** 
 706:Vendor_HAL/ST/STM32F4xx_HAL_Driver/Src/stm32f4xx_hal_rcc.c ****   /*-------------------------- PCLK1 Configuration ---------------------------*/
 707:Vendor_HAL/ST/STM32F4xx_HAL_Driver/Src/stm32f4xx_hal_rcc.c ****   if(((RCC_ClkInitStruct->ClockType) & RCC_CLOCKTYPE_PCLK1) == RCC_CLOCKTYPE_PCLK1)
 708:Vendor_HAL/ST/STM32F4xx_HAL_Driver/Src/stm32f4xx_hal_rcc.c ****   {
 709:Vendor_HAL/ST/STM32F4xx_HAL_Driver/Src/stm32f4xx_hal_rcc.c ****     assert_param(IS_RCC_PCLK(RCC_ClkInitStruct->APB1CLKDivider));
 710:Vendor_HAL/ST/STM32F4xx_HAL_Driver/Src/stm32f4xx_hal_rcc.c ****     MODIFY_REG(RCC->CFGR, RCC_CFGR_PPRE1, RCC_ClkInitStruct->APB1CLKDivider);
 711:Vendor_HAL/ST/STM32F4xx_HAL_Driver/Src/stm32f4xx_hal_rcc.c ****   }
 712:Vendor_HAL/ST/STM32F4xx_HAL_Driver/Src/stm32f4xx_hal_rcc.c **** 
 713:Vendor_HAL/ST/STM32F4xx_HAL_Driver/Src/stm32f4xx_hal_rcc.c ****   /*-------------------------- PCLK2 Configuration ---------------------------*/
 714:Vendor_HAL/ST/STM32F4xx_HAL_Driver/Src/stm32f4xx_hal_rcc.c ****   if(((RCC_ClkInitStruct->ClockType) & RCC_CLOCKTYPE_PCLK2) == RCC_CLOCKTYPE_PCLK2)
 715:Vendor_HAL/ST/STM32F4xx_HAL_Driver/Src/stm32f4xx_hal_rcc.c ****   {
 716:Vendor_HAL/ST/STM32F4xx_HAL_Driver/Src/stm32f4xx_hal_rcc.c ****     assert_param(IS_RCC_PCLK(RCC_ClkInitStruct->APB2CLKDivider));
 717:Vendor_HAL/ST/STM32F4xx_HAL_Driver/Src/stm32f4xx_hal_rcc.c ****     MODIFY_REG(RCC->CFGR, RCC_CFGR_PPRE2, ((RCC_ClkInitStruct->APB2CLKDivider) << 3U));
 718:Vendor_HAL/ST/STM32F4xx_HAL_Driver/Src/stm32f4xx_hal_rcc.c ****   }
 719:Vendor_HAL/ST/STM32F4xx_HAL_Driver/Src/stm32f4xx_hal_rcc.c **** 
 720:Vendor_HAL/ST/STM32F4xx_HAL_Driver/Src/stm32f4xx_hal_rcc.c ****   /* Update the SystemCoreClock global variable */
 721:Vendor_HAL/ST/STM32F4xx_HAL_Driver/Src/stm32f4xx_hal_rcc.c ****   SystemCoreClock = HAL_RCC_GetSysClockFreq() >> AHBPrescTable[(RCC->CFGR & RCC_CFGR_HPRE)>> RCC_CF
 722:Vendor_HAL/ST/STM32F4xx_HAL_Driver/Src/stm32f4xx_hal_rcc.c **** 
ARM GAS  C:\Users\katre\AppData\Local\Temp\ccsaao4d.s 			page 35


 723:Vendor_HAL/ST/STM32F4xx_HAL_Driver/Src/stm32f4xx_hal_rcc.c ****   /* Configure the source of time base considering new system clocks settings */
 724:Vendor_HAL/ST/STM32F4xx_HAL_Driver/Src/stm32f4xx_hal_rcc.c ****   HAL_InitTick (uwTickPrio);
 725:Vendor_HAL/ST/STM32F4xx_HAL_Driver/Src/stm32f4xx_hal_rcc.c **** 
 726:Vendor_HAL/ST/STM32F4xx_HAL_Driver/Src/stm32f4xx_hal_rcc.c ****   return HAL_OK;
 727:Vendor_HAL/ST/STM32F4xx_HAL_Driver/Src/stm32f4xx_hal_rcc.c **** }
 728:Vendor_HAL/ST/STM32F4xx_HAL_Driver/Src/stm32f4xx_hal_rcc.c **** 
 729:Vendor_HAL/ST/STM32F4xx_HAL_Driver/Src/stm32f4xx_hal_rcc.c **** /**
 730:Vendor_HAL/ST/STM32F4xx_HAL_Driver/Src/stm32f4xx_hal_rcc.c ****   * @}
 731:Vendor_HAL/ST/STM32F4xx_HAL_Driver/Src/stm32f4xx_hal_rcc.c ****   */
 732:Vendor_HAL/ST/STM32F4xx_HAL_Driver/Src/stm32f4xx_hal_rcc.c **** 
 733:Vendor_HAL/ST/STM32F4xx_HAL_Driver/Src/stm32f4xx_hal_rcc.c **** /** @defgroup RCC_Exported_Functions_Group2 Peripheral Control functions
 734:Vendor_HAL/ST/STM32F4xx_HAL_Driver/Src/stm32f4xx_hal_rcc.c ****  *  @brief   RCC clocks control functions
 735:Vendor_HAL/ST/STM32F4xx_HAL_Driver/Src/stm32f4xx_hal_rcc.c ****  *
 736:Vendor_HAL/ST/STM32F4xx_HAL_Driver/Src/stm32f4xx_hal_rcc.c **** @verbatim
 737:Vendor_HAL/ST/STM32F4xx_HAL_Driver/Src/stm32f4xx_hal_rcc.c ****  ===============================================================================
 738:Vendor_HAL/ST/STM32F4xx_HAL_Driver/Src/stm32f4xx_hal_rcc.c ****                       ##### Peripheral Control functions #####
 739:Vendor_HAL/ST/STM32F4xx_HAL_Driver/Src/stm32f4xx_hal_rcc.c ****  ===============================================================================
 740:Vendor_HAL/ST/STM32F4xx_HAL_Driver/Src/stm32f4xx_hal_rcc.c ****     [..]
 741:Vendor_HAL/ST/STM32F4xx_HAL_Driver/Src/stm32f4xx_hal_rcc.c ****     This subsection provides a set of functions allowing to control the RCC Clocks
 742:Vendor_HAL/ST/STM32F4xx_HAL_Driver/Src/stm32f4xx_hal_rcc.c ****     frequencies.
 743:Vendor_HAL/ST/STM32F4xx_HAL_Driver/Src/stm32f4xx_hal_rcc.c **** 
 744:Vendor_HAL/ST/STM32F4xx_HAL_Driver/Src/stm32f4xx_hal_rcc.c **** @endverbatim
 745:Vendor_HAL/ST/STM32F4xx_HAL_Driver/Src/stm32f4xx_hal_rcc.c ****   * @{
 746:Vendor_HAL/ST/STM32F4xx_HAL_Driver/Src/stm32f4xx_hal_rcc.c ****   */
 747:Vendor_HAL/ST/STM32F4xx_HAL_Driver/Src/stm32f4xx_hal_rcc.c **** 
 748:Vendor_HAL/ST/STM32F4xx_HAL_Driver/Src/stm32f4xx_hal_rcc.c **** /**
 749:Vendor_HAL/ST/STM32F4xx_HAL_Driver/Src/stm32f4xx_hal_rcc.c ****   * @brief  Selects the clock source to output on MCO1 pin(PA8) or on MCO2 pin(PC9).
 750:Vendor_HAL/ST/STM32F4xx_HAL_Driver/Src/stm32f4xx_hal_rcc.c ****   * @note   PA8/PC9 should be configured in alternate function mode.
 751:Vendor_HAL/ST/STM32F4xx_HAL_Driver/Src/stm32f4xx_hal_rcc.c ****   * @param  RCC_MCOx specifies the output direction for the clock source.
 752:Vendor_HAL/ST/STM32F4xx_HAL_Driver/Src/stm32f4xx_hal_rcc.c ****   *          This parameter can be one of the following values:
 753:Vendor_HAL/ST/STM32F4xx_HAL_Driver/Src/stm32f4xx_hal_rcc.c ****   *            @arg RCC_MCO1: Clock source to output on MCO1 pin(PA8).
 754:Vendor_HAL/ST/STM32F4xx_HAL_Driver/Src/stm32f4xx_hal_rcc.c ****   *            @arg RCC_MCO2: Clock source to output on MCO2 pin(PC9).
 755:Vendor_HAL/ST/STM32F4xx_HAL_Driver/Src/stm32f4xx_hal_rcc.c ****   * @param  RCC_MCOSource specifies the clock source to output.
 756:Vendor_HAL/ST/STM32F4xx_HAL_Driver/Src/stm32f4xx_hal_rcc.c ****   *          This parameter can be one of the following values:
 757:Vendor_HAL/ST/STM32F4xx_HAL_Driver/Src/stm32f4xx_hal_rcc.c ****   *            @arg RCC_MCO1SOURCE_HSI: HSI clock selected as MCO1 source
 758:Vendor_HAL/ST/STM32F4xx_HAL_Driver/Src/stm32f4xx_hal_rcc.c ****   *            @arg RCC_MCO1SOURCE_LSE: LSE clock selected as MCO1 source
 759:Vendor_HAL/ST/STM32F4xx_HAL_Driver/Src/stm32f4xx_hal_rcc.c ****   *            @arg RCC_MCO1SOURCE_HSE: HSE clock selected as MCO1 source
 760:Vendor_HAL/ST/STM32F4xx_HAL_Driver/Src/stm32f4xx_hal_rcc.c ****   *            @arg RCC_MCO1SOURCE_PLLCLK: main PLL clock selected as MCO1 source
 761:Vendor_HAL/ST/STM32F4xx_HAL_Driver/Src/stm32f4xx_hal_rcc.c ****   *            @arg RCC_MCO2SOURCE_SYSCLK: System clock (SYSCLK) selected as MCO2 source
 762:Vendor_HAL/ST/STM32F4xx_HAL_Driver/Src/stm32f4xx_hal_rcc.c ****   *            @arg RCC_MCO2SOURCE_PLLI2SCLK: PLLI2S clock selected as MCO2 source, available for a
 763:Vendor_HAL/ST/STM32F4xx_HAL_Driver/Src/stm32f4xx_hal_rcc.c ****   *            @arg RCC_MCO2SOURCE_I2SCLK: I2SCLK clock selected as MCO2 source, available only for
 764:Vendor_HAL/ST/STM32F4xx_HAL_Driver/Src/stm32f4xx_hal_rcc.c ****   *            @arg RCC_MCO2SOURCE_HSE: HSE clock selected as MCO2 source
 765:Vendor_HAL/ST/STM32F4xx_HAL_Driver/Src/stm32f4xx_hal_rcc.c ****   *            @arg RCC_MCO2SOURCE_PLLCLK: main PLL clock selected as MCO2 source
 766:Vendor_HAL/ST/STM32F4xx_HAL_Driver/Src/stm32f4xx_hal_rcc.c ****   * @param  RCC_MCODiv specifies the MCOx prescaler.
 767:Vendor_HAL/ST/STM32F4xx_HAL_Driver/Src/stm32f4xx_hal_rcc.c ****   *          This parameter can be one of the following values:
 768:Vendor_HAL/ST/STM32F4xx_HAL_Driver/Src/stm32f4xx_hal_rcc.c ****   *            @arg RCC_MCODIV_1: no division applied to MCOx clock
 769:Vendor_HAL/ST/STM32F4xx_HAL_Driver/Src/stm32f4xx_hal_rcc.c ****   *            @arg RCC_MCODIV_2: division by 2 applied to MCOx clock
 770:Vendor_HAL/ST/STM32F4xx_HAL_Driver/Src/stm32f4xx_hal_rcc.c ****   *            @arg RCC_MCODIV_3: division by 3 applied to MCOx clock
 771:Vendor_HAL/ST/STM32F4xx_HAL_Driver/Src/stm32f4xx_hal_rcc.c ****   *            @arg RCC_MCODIV_4: division by 4 applied to MCOx clock
 772:Vendor_HAL/ST/STM32F4xx_HAL_Driver/Src/stm32f4xx_hal_rcc.c ****   *            @arg RCC_MCODIV_5: division by 5 applied to MCOx clock
 773:Vendor_HAL/ST/STM32F4xx_HAL_Driver/Src/stm32f4xx_hal_rcc.c ****   * @note  For STM32F410Rx devices to output I2SCLK clock on MCO2 you should have
 774:Vendor_HAL/ST/STM32F4xx_HAL_Driver/Src/stm32f4xx_hal_rcc.c ****   *        at last one of the SPI clocks enabled (SPI1, SPI2 or SPI5).
 775:Vendor_HAL/ST/STM32F4xx_HAL_Driver/Src/stm32f4xx_hal_rcc.c ****   * @retval None
 776:Vendor_HAL/ST/STM32F4xx_HAL_Driver/Src/stm32f4xx_hal_rcc.c ****   */
 777:Vendor_HAL/ST/STM32F4xx_HAL_Driver/Src/stm32f4xx_hal_rcc.c **** void HAL_RCC_MCOConfig(uint32_t RCC_MCOx, uint32_t RCC_MCOSource, uint32_t RCC_MCODiv)
 778:Vendor_HAL/ST/STM32F4xx_HAL_Driver/Src/stm32f4xx_hal_rcc.c **** {
 1098              		.loc 1 778 1 is_stmt 1 view -0
ARM GAS  C:\Users\katre\AppData\Local\Temp\ccsaao4d.s 			page 36


 1099              		.cfi_startproc
 1100              		@ args = 0, pretend = 0, frame = 32
 1101              		@ frame_needed = 0, uses_anonymous_args = 0
 1102              		.loc 1 778 1 is_stmt 0 view .LVU315
 1103 0000 70B5     		push	{r4, r5, r6, lr}
 1104              	.LCFI6:
 1105              		.cfi_def_cfa_offset 16
 1106              		.cfi_offset 4, -16
 1107              		.cfi_offset 5, -12
 1108              		.cfi_offset 6, -8
 1109              		.cfi_offset 14, -4
 1110 0002 88B0     		sub	sp, sp, #32
 1111              	.LCFI7:
 1112              		.cfi_def_cfa_offset 48
 1113 0004 0646     		mov	r6, r0
 1114 0006 0D46     		mov	r5, r1
 1115 0008 1446     		mov	r4, r2
 779:Vendor_HAL/ST/STM32F4xx_HAL_Driver/Src/stm32f4xx_hal_rcc.c ****   GPIO_InitTypeDef GPIO_InitStruct;
 1116              		.loc 1 779 3 is_stmt 1 view .LVU316
 780:Vendor_HAL/ST/STM32F4xx_HAL_Driver/Src/stm32f4xx_hal_rcc.c ****   /* Check the parameters */
 781:Vendor_HAL/ST/STM32F4xx_HAL_Driver/Src/stm32f4xx_hal_rcc.c ****   assert_param(IS_RCC_MCO(RCC_MCOx));
 1117              		.loc 1 781 3 view .LVU317
 1118 000a 0128     		cmp	r0, #1
 1119 000c 39D8     		bhi	.L129
 1120              	.LVL79:
 1121              	.L122:
 782:Vendor_HAL/ST/STM32F4xx_HAL_Driver/Src/stm32f4xx_hal_rcc.c ****   assert_param(IS_RCC_MCODIV(RCC_MCODiv));
 1122              		.loc 1 782 3 view .LVU318
 1123 000e 5CB1     		cbz	r4, .L123
 1124              		.loc 1 782 3 is_stmt 0 discriminator 1 view .LVU319
 1125 0010 B4F1806F 		cmp	r4, #67108864
 1126 0014 08D0     		beq	.L123
 1127              		.loc 1 782 3 discriminator 2 view .LVU320
 1128 0016 B4F1A06F 		cmp	r4, #83886080
 1129 001a 05D0     		beq	.L123
 1130              		.loc 1 782 3 discriminator 3 view .LVU321
 1131 001c B4F1C06F 		cmp	r4, #100663296
 1132 0020 02D0     		beq	.L123
 1133              		.loc 1 782 3 discriminator 4 view .LVU322
 1134 0022 B4F1E06F 		cmp	r4, #117440512
 1135 0026 32D1     		bne	.L130
 1136              	.L123:
 783:Vendor_HAL/ST/STM32F4xx_HAL_Driver/Src/stm32f4xx_hal_rcc.c ****   /* RCC_MCO1 */
 784:Vendor_HAL/ST/STM32F4xx_HAL_Driver/Src/stm32f4xx_hal_rcc.c ****   if(RCC_MCOx == RCC_MCO1)
 1137              		.loc 1 784 3 is_stmt 1 view .LVU323
 1138              		.loc 1 784 5 is_stmt 0 view .LVU324
 1139 0028 002E     		cmp	r6, #0
 1140 002a 3CD1     		bne	.L124
 785:Vendor_HAL/ST/STM32F4xx_HAL_Driver/Src/stm32f4xx_hal_rcc.c ****   {
 786:Vendor_HAL/ST/STM32F4xx_HAL_Driver/Src/stm32f4xx_hal_rcc.c ****     assert_param(IS_RCC_MCO1SOURCE(RCC_MCOSource));
 1141              		.loc 1 786 5 is_stmt 1 view .LVU325
 1142 002c 45B1     		cbz	r5, .L125
 1143              		.loc 1 786 5 is_stmt 0 discriminator 1 view .LVU326
 1144 002e B5F5001F 		cmp	r5, #2097152
 1145 0032 05D0     		beq	.L125
 1146              		.loc 1 786 5 discriminator 2 view .LVU327
 1147 0034 B5F5800F 		cmp	r5, #4194304
ARM GAS  C:\Users\katre\AppData\Local\Temp\ccsaao4d.s 			page 37


 1148 0038 02D0     		beq	.L125
 1149              		.loc 1 786 5 discriminator 3 view .LVU328
 1150 003a B5F5C00F 		cmp	r5, #6291456
 1151 003e 2CD1     		bne	.L131
 1152              	.L125:
 787:Vendor_HAL/ST/STM32F4xx_HAL_Driver/Src/stm32f4xx_hal_rcc.c **** 
 788:Vendor_HAL/ST/STM32F4xx_HAL_Driver/Src/stm32f4xx_hal_rcc.c ****     /* MCO1 Clock Enable */
 789:Vendor_HAL/ST/STM32F4xx_HAL_Driver/Src/stm32f4xx_hal_rcc.c ****     __MCO1_CLK_ENABLE();
 1153              		.loc 1 789 5 is_stmt 1 view .LVU329
 1154              	.LBB5:
 1155              		.loc 1 789 5 view .LVU330
 1156 0040 0023     		movs	r3, #0
 1157 0042 0193     		str	r3, [sp, #4]
 1158              		.loc 1 789 5 view .LVU331
 1159 0044 304E     		ldr	r6, .L133
 1160              	.LVL80:
 1161              		.loc 1 789 5 is_stmt 0 view .LVU332
 1162 0046 326B     		ldr	r2, [r6, #48]
 1163 0048 42F00102 		orr	r2, r2, #1
 1164 004c 3263     		str	r2, [r6, #48]
 1165              		.loc 1 789 5 is_stmt 1 view .LVU333
 1166 004e 326B     		ldr	r2, [r6, #48]
 1167 0050 02F00102 		and	r2, r2, #1
 1168 0054 0192     		str	r2, [sp, #4]
 1169              		.loc 1 789 5 view .LVU334
 1170 0056 019A     		ldr	r2, [sp, #4]
 1171              	.LBE5:
 1172              		.loc 1 789 5 view .LVU335
 790:Vendor_HAL/ST/STM32F4xx_HAL_Driver/Src/stm32f4xx_hal_rcc.c **** 
 791:Vendor_HAL/ST/STM32F4xx_HAL_Driver/Src/stm32f4xx_hal_rcc.c ****     /* Configure the MCO1 pin in alternate function mode */
 792:Vendor_HAL/ST/STM32F4xx_HAL_Driver/Src/stm32f4xx_hal_rcc.c ****     GPIO_InitStruct.Pin = MCO1_PIN;
 1173              		.loc 1 792 5 view .LVU336
 1174              		.loc 1 792 25 is_stmt 0 view .LVU337
 1175 0058 4FF48072 		mov	r2, #256
 1176 005c 0392     		str	r2, [sp, #12]
 793:Vendor_HAL/ST/STM32F4xx_HAL_Driver/Src/stm32f4xx_hal_rcc.c ****     GPIO_InitStruct.Mode = GPIO_MODE_AF_PP;
 1177              		.loc 1 793 5 is_stmt 1 view .LVU338
 1178              		.loc 1 793 26 is_stmt 0 view .LVU339
 1179 005e 0222     		movs	r2, #2
 1180 0060 0492     		str	r2, [sp, #16]
 794:Vendor_HAL/ST/STM32F4xx_HAL_Driver/Src/stm32f4xx_hal_rcc.c ****     GPIO_InitStruct.Speed = GPIO_SPEED_FREQ_VERY_HIGH;
 1181              		.loc 1 794 5 is_stmt 1 view .LVU340
 1182              		.loc 1 794 27 is_stmt 0 view .LVU341
 1183 0062 0322     		movs	r2, #3
 1184 0064 0692     		str	r2, [sp, #24]
 795:Vendor_HAL/ST/STM32F4xx_HAL_Driver/Src/stm32f4xx_hal_rcc.c ****     GPIO_InitStruct.Pull = GPIO_NOPULL;
 1185              		.loc 1 795 5 is_stmt 1 view .LVU342
 1186              		.loc 1 795 26 is_stmt 0 view .LVU343
 1187 0066 0593     		str	r3, [sp, #20]
 796:Vendor_HAL/ST/STM32F4xx_HAL_Driver/Src/stm32f4xx_hal_rcc.c ****     GPIO_InitStruct.Alternate = GPIO_AF0_MCO;
 1188              		.loc 1 796 5 is_stmt 1 view .LVU344
 1189              		.loc 1 796 31 is_stmt 0 view .LVU345
 1190 0068 0793     		str	r3, [sp, #28]
 797:Vendor_HAL/ST/STM32F4xx_HAL_Driver/Src/stm32f4xx_hal_rcc.c ****     HAL_GPIO_Init(MCO1_GPIO_PORT, &GPIO_InitStruct);
 1191              		.loc 1 797 5 is_stmt 1 view .LVU346
 1192 006a 03A9     		add	r1, sp, #12
 1193 006c 2748     		ldr	r0, .L133+4
ARM GAS  C:\Users\katre\AppData\Local\Temp\ccsaao4d.s 			page 38


 1194 006e FFF7FEFF 		bl	HAL_GPIO_Init
 1195              	.LVL81:
 798:Vendor_HAL/ST/STM32F4xx_HAL_Driver/Src/stm32f4xx_hal_rcc.c **** 
 799:Vendor_HAL/ST/STM32F4xx_HAL_Driver/Src/stm32f4xx_hal_rcc.c ****     /* Mask MCO1 and MCO1PRE[2:0] bits then Select MCO1 clock source and prescaler */
 800:Vendor_HAL/ST/STM32F4xx_HAL_Driver/Src/stm32f4xx_hal_rcc.c ****     MODIFY_REG(RCC->CFGR, (RCC_CFGR_MCO1 | RCC_CFGR_MCO1PRE), (RCC_MCOSource | RCC_MCODiv));
 1196              		.loc 1 800 5 view .LVU347
 1197 0072 B368     		ldr	r3, [r6, #8]
 1198 0074 23F0EC63 		bic	r3, r3, #123731968
 1199 0078 2C43     		orrs	r4, r4, r5
 1200              	.LVL82:
 1201              		.loc 1 800 5 is_stmt 0 view .LVU348
 1202 007a 1C43     		orrs	r4, r4, r3
 1203 007c B460     		str	r4, [r6, #8]
 1204              	.L121:
 801:Vendor_HAL/ST/STM32F4xx_HAL_Driver/Src/stm32f4xx_hal_rcc.c **** 
 802:Vendor_HAL/ST/STM32F4xx_HAL_Driver/Src/stm32f4xx_hal_rcc.c ****    /* This RCC MCO1 enable feature is available only on STM32F410xx devices */
 803:Vendor_HAL/ST/STM32F4xx_HAL_Driver/Src/stm32f4xx_hal_rcc.c **** #if defined(RCC_CFGR_MCO1EN)
 804:Vendor_HAL/ST/STM32F4xx_HAL_Driver/Src/stm32f4xx_hal_rcc.c ****     __HAL_RCC_MCO1_ENABLE();
 805:Vendor_HAL/ST/STM32F4xx_HAL_Driver/Src/stm32f4xx_hal_rcc.c **** #endif /* RCC_CFGR_MCO1EN */
 806:Vendor_HAL/ST/STM32F4xx_HAL_Driver/Src/stm32f4xx_hal_rcc.c ****   }
 807:Vendor_HAL/ST/STM32F4xx_HAL_Driver/Src/stm32f4xx_hal_rcc.c **** #if defined(RCC_CFGR_MCO2)
 808:Vendor_HAL/ST/STM32F4xx_HAL_Driver/Src/stm32f4xx_hal_rcc.c ****   else
 809:Vendor_HAL/ST/STM32F4xx_HAL_Driver/Src/stm32f4xx_hal_rcc.c ****   {
 810:Vendor_HAL/ST/STM32F4xx_HAL_Driver/Src/stm32f4xx_hal_rcc.c ****     assert_param(IS_RCC_MCO2SOURCE(RCC_MCOSource));
 811:Vendor_HAL/ST/STM32F4xx_HAL_Driver/Src/stm32f4xx_hal_rcc.c **** 
 812:Vendor_HAL/ST/STM32F4xx_HAL_Driver/Src/stm32f4xx_hal_rcc.c ****     /* MCO2 Clock Enable */
 813:Vendor_HAL/ST/STM32F4xx_HAL_Driver/Src/stm32f4xx_hal_rcc.c ****     __MCO2_CLK_ENABLE();
 814:Vendor_HAL/ST/STM32F4xx_HAL_Driver/Src/stm32f4xx_hal_rcc.c **** 
 815:Vendor_HAL/ST/STM32F4xx_HAL_Driver/Src/stm32f4xx_hal_rcc.c ****     /* Configure the MCO2 pin in alternate function mode */
 816:Vendor_HAL/ST/STM32F4xx_HAL_Driver/Src/stm32f4xx_hal_rcc.c ****     GPIO_InitStruct.Pin = MCO2_PIN;
 817:Vendor_HAL/ST/STM32F4xx_HAL_Driver/Src/stm32f4xx_hal_rcc.c ****     GPIO_InitStruct.Mode = GPIO_MODE_AF_PP;
 818:Vendor_HAL/ST/STM32F4xx_HAL_Driver/Src/stm32f4xx_hal_rcc.c ****     GPIO_InitStruct.Speed = GPIO_SPEED_FREQ_VERY_HIGH;
 819:Vendor_HAL/ST/STM32F4xx_HAL_Driver/Src/stm32f4xx_hal_rcc.c ****     GPIO_InitStruct.Pull = GPIO_NOPULL;
 820:Vendor_HAL/ST/STM32F4xx_HAL_Driver/Src/stm32f4xx_hal_rcc.c ****     GPIO_InitStruct.Alternate = GPIO_AF0_MCO;
 821:Vendor_HAL/ST/STM32F4xx_HAL_Driver/Src/stm32f4xx_hal_rcc.c ****     HAL_GPIO_Init(MCO2_GPIO_PORT, &GPIO_InitStruct);
 822:Vendor_HAL/ST/STM32F4xx_HAL_Driver/Src/stm32f4xx_hal_rcc.c **** 
 823:Vendor_HAL/ST/STM32F4xx_HAL_Driver/Src/stm32f4xx_hal_rcc.c ****     /* Mask MCO2 and MCO2PRE[2:0] bits then Select MCO2 clock source and prescaler */
 824:Vendor_HAL/ST/STM32F4xx_HAL_Driver/Src/stm32f4xx_hal_rcc.c ****     MODIFY_REG(RCC->CFGR, (RCC_CFGR_MCO2 | RCC_CFGR_MCO2PRE), (RCC_MCOSource | (RCC_MCODiv << 3U)))
 825:Vendor_HAL/ST/STM32F4xx_HAL_Driver/Src/stm32f4xx_hal_rcc.c **** 
 826:Vendor_HAL/ST/STM32F4xx_HAL_Driver/Src/stm32f4xx_hal_rcc.c ****    /* This RCC MCO2 enable feature is available only on STM32F410Rx devices */
 827:Vendor_HAL/ST/STM32F4xx_HAL_Driver/Src/stm32f4xx_hal_rcc.c **** #if defined(RCC_CFGR_MCO2EN)
 828:Vendor_HAL/ST/STM32F4xx_HAL_Driver/Src/stm32f4xx_hal_rcc.c ****     __HAL_RCC_MCO2_ENABLE();
 829:Vendor_HAL/ST/STM32F4xx_HAL_Driver/Src/stm32f4xx_hal_rcc.c **** #endif /* RCC_CFGR_MCO2EN */
 830:Vendor_HAL/ST/STM32F4xx_HAL_Driver/Src/stm32f4xx_hal_rcc.c ****   }
 831:Vendor_HAL/ST/STM32F4xx_HAL_Driver/Src/stm32f4xx_hal_rcc.c **** #endif /* RCC_CFGR_MCO2 */
 832:Vendor_HAL/ST/STM32F4xx_HAL_Driver/Src/stm32f4xx_hal_rcc.c **** }
 1205              		.loc 1 832 1 view .LVU349
 1206 007e 08B0     		add	sp, sp, #32
 1207              	.LCFI8:
 1208              		.cfi_remember_state
 1209              		.cfi_def_cfa_offset 16
 1210              		@ sp needed
 1211 0080 70BD     		pop	{r4, r5, r6, pc}
 1212              	.LVL83:
 1213              	.L129:
 1214              	.LCFI9:
 1215              		.cfi_restore_state
ARM GAS  C:\Users\katre\AppData\Local\Temp\ccsaao4d.s 			page 39


 781:Vendor_HAL/ST/STM32F4xx_HAL_Driver/Src/stm32f4xx_hal_rcc.c ****   assert_param(IS_RCC_MCODIV(RCC_MCODiv));
 1216              		.loc 1 781 3 discriminator 1 view .LVU350
 1217 0082 40F20D31 		movw	r1, #781
 1218              	.LVL84:
 781:Vendor_HAL/ST/STM32F4xx_HAL_Driver/Src/stm32f4xx_hal_rcc.c ****   assert_param(IS_RCC_MCODIV(RCC_MCODiv));
 1219              		.loc 1 781 3 discriminator 1 view .LVU351
 1220 0086 2248     		ldr	r0, .L133+8
 1221              	.LVL85:
 781:Vendor_HAL/ST/STM32F4xx_HAL_Driver/Src/stm32f4xx_hal_rcc.c ****   assert_param(IS_RCC_MCODIV(RCC_MCODiv));
 1222              		.loc 1 781 3 discriminator 1 view .LVU352
 1223 0088 FFF7FEFF 		bl	assert_failed
 1224              	.LVL86:
 781:Vendor_HAL/ST/STM32F4xx_HAL_Driver/Src/stm32f4xx_hal_rcc.c ****   assert_param(IS_RCC_MCODIV(RCC_MCODiv));
 1225              		.loc 1 781 3 discriminator 1 view .LVU353
 1226 008c BFE7     		b	.L122
 1227              	.L130:
 782:Vendor_HAL/ST/STM32F4xx_HAL_Driver/Src/stm32f4xx_hal_rcc.c ****   /* RCC_MCO1 */
 1228              		.loc 1 782 3 discriminator 5 view .LVU354
 1229 008e 40F20E31 		movw	r1, #782
 1230 0092 1F48     		ldr	r0, .L133+8
 1231 0094 FFF7FEFF 		bl	assert_failed
 1232              	.LVL87:
 1233 0098 C6E7     		b	.L123
 1234              	.L131:
 786:Vendor_HAL/ST/STM32F4xx_HAL_Driver/Src/stm32f4xx_hal_rcc.c **** 
 1235              		.loc 1 786 5 discriminator 4 view .LVU355
 1236 009a 40F21231 		movw	r1, #786
 1237 009e 1C48     		ldr	r0, .L133+8
 1238 00a0 FFF7FEFF 		bl	assert_failed
 1239              	.LVL88:
 1240 00a4 CCE7     		b	.L125
 1241              	.L124:
 810:Vendor_HAL/ST/STM32F4xx_HAL_Driver/Src/stm32f4xx_hal_rcc.c **** 
 1242              		.loc 1 810 5 is_stmt 1 view .LVU356
 1243 00a6 45B1     		cbz	r5, .L127
 810:Vendor_HAL/ST/STM32F4xx_HAL_Driver/Src/stm32f4xx_hal_rcc.c **** 
 1244              		.loc 1 810 5 is_stmt 0 discriminator 1 view .LVU357
 1245 00a8 B5F1804F 		cmp	r5, #1073741824
 1246 00ac 05D0     		beq	.L127
 810:Vendor_HAL/ST/STM32F4xx_HAL_Driver/Src/stm32f4xx_hal_rcc.c **** 
 1247              		.loc 1 810 5 discriminator 2 view .LVU358
 1248 00ae B5F1004F 		cmp	r5, #-2147483648
 1249 00b2 02D0     		beq	.L127
 810:Vendor_HAL/ST/STM32F4xx_HAL_Driver/Src/stm32f4xx_hal_rcc.c **** 
 1250              		.loc 1 810 5 discriminator 3 view .LVU359
 1251 00b4 B5F1404F 		cmp	r5, #-1073741824
 1252 00b8 20D1     		bne	.L132
 1253              	.L127:
 813:Vendor_HAL/ST/STM32F4xx_HAL_Driver/Src/stm32f4xx_hal_rcc.c **** 
 1254              		.loc 1 813 5 is_stmt 1 view .LVU360
 1255              	.LBB6:
 813:Vendor_HAL/ST/STM32F4xx_HAL_Driver/Src/stm32f4xx_hal_rcc.c **** 
 1256              		.loc 1 813 5 view .LVU361
 1257 00ba 0023     		movs	r3, #0
 1258 00bc 0293     		str	r3, [sp, #8]
 813:Vendor_HAL/ST/STM32F4xx_HAL_Driver/Src/stm32f4xx_hal_rcc.c **** 
 1259              		.loc 1 813 5 view .LVU362
ARM GAS  C:\Users\katre\AppData\Local\Temp\ccsaao4d.s 			page 40


 1260 00be 124E     		ldr	r6, .L133
 1261              	.LVL89:
 813:Vendor_HAL/ST/STM32F4xx_HAL_Driver/Src/stm32f4xx_hal_rcc.c **** 
 1262              		.loc 1 813 5 is_stmt 0 view .LVU363
 1263 00c0 326B     		ldr	r2, [r6, #48]
 1264 00c2 42F00402 		orr	r2, r2, #4
 1265 00c6 3263     		str	r2, [r6, #48]
 813:Vendor_HAL/ST/STM32F4xx_HAL_Driver/Src/stm32f4xx_hal_rcc.c **** 
 1266              		.loc 1 813 5 is_stmt 1 view .LVU364
 1267 00c8 326B     		ldr	r2, [r6, #48]
 1268 00ca 02F00402 		and	r2, r2, #4
 1269 00ce 0292     		str	r2, [sp, #8]
 813:Vendor_HAL/ST/STM32F4xx_HAL_Driver/Src/stm32f4xx_hal_rcc.c **** 
 1270              		.loc 1 813 5 view .LVU365
 1271 00d0 029A     		ldr	r2, [sp, #8]
 1272              	.LBE6:
 813:Vendor_HAL/ST/STM32F4xx_HAL_Driver/Src/stm32f4xx_hal_rcc.c **** 
 1273              		.loc 1 813 5 view .LVU366
 816:Vendor_HAL/ST/STM32F4xx_HAL_Driver/Src/stm32f4xx_hal_rcc.c ****     GPIO_InitStruct.Mode = GPIO_MODE_AF_PP;
 1274              		.loc 1 816 5 view .LVU367
 816:Vendor_HAL/ST/STM32F4xx_HAL_Driver/Src/stm32f4xx_hal_rcc.c ****     GPIO_InitStruct.Mode = GPIO_MODE_AF_PP;
 1275              		.loc 1 816 25 is_stmt 0 view .LVU368
 1276 00d2 4FF40072 		mov	r2, #512
 1277 00d6 0392     		str	r2, [sp, #12]
 817:Vendor_HAL/ST/STM32F4xx_HAL_Driver/Src/stm32f4xx_hal_rcc.c ****     GPIO_InitStruct.Speed = GPIO_SPEED_FREQ_VERY_HIGH;
 1278              		.loc 1 817 5 is_stmt 1 view .LVU369
 817:Vendor_HAL/ST/STM32F4xx_HAL_Driver/Src/stm32f4xx_hal_rcc.c ****     GPIO_InitStruct.Speed = GPIO_SPEED_FREQ_VERY_HIGH;
 1279              		.loc 1 817 26 is_stmt 0 view .LVU370
 1280 00d8 0222     		movs	r2, #2
 1281 00da 0492     		str	r2, [sp, #16]
 818:Vendor_HAL/ST/STM32F4xx_HAL_Driver/Src/stm32f4xx_hal_rcc.c ****     GPIO_InitStruct.Pull = GPIO_NOPULL;
 1282              		.loc 1 818 5 is_stmt 1 view .LVU371
 818:Vendor_HAL/ST/STM32F4xx_HAL_Driver/Src/stm32f4xx_hal_rcc.c ****     GPIO_InitStruct.Pull = GPIO_NOPULL;
 1283              		.loc 1 818 27 is_stmt 0 view .LVU372
 1284 00dc 0322     		movs	r2, #3
 1285 00de 0692     		str	r2, [sp, #24]
 819:Vendor_HAL/ST/STM32F4xx_HAL_Driver/Src/stm32f4xx_hal_rcc.c ****     GPIO_InitStruct.Alternate = GPIO_AF0_MCO;
 1286              		.loc 1 819 5 is_stmt 1 view .LVU373
 819:Vendor_HAL/ST/STM32F4xx_HAL_Driver/Src/stm32f4xx_hal_rcc.c ****     GPIO_InitStruct.Alternate = GPIO_AF0_MCO;
 1287              		.loc 1 819 26 is_stmt 0 view .LVU374
 1288 00e0 0593     		str	r3, [sp, #20]
 820:Vendor_HAL/ST/STM32F4xx_HAL_Driver/Src/stm32f4xx_hal_rcc.c ****     HAL_GPIO_Init(MCO2_GPIO_PORT, &GPIO_InitStruct);
 1289              		.loc 1 820 5 is_stmt 1 view .LVU375
 820:Vendor_HAL/ST/STM32F4xx_HAL_Driver/Src/stm32f4xx_hal_rcc.c ****     HAL_GPIO_Init(MCO2_GPIO_PORT, &GPIO_InitStruct);
 1290              		.loc 1 820 31 is_stmt 0 view .LVU376
 1291 00e2 0793     		str	r3, [sp, #28]
 821:Vendor_HAL/ST/STM32F4xx_HAL_Driver/Src/stm32f4xx_hal_rcc.c **** 
 1292              		.loc 1 821 5 is_stmt 1 view .LVU377
 1293 00e4 03A9     		add	r1, sp, #12
 1294 00e6 0B48     		ldr	r0, .L133+12
 1295 00e8 FFF7FEFF 		bl	HAL_GPIO_Init
 1296              	.LVL90:
 824:Vendor_HAL/ST/STM32F4xx_HAL_Driver/Src/stm32f4xx_hal_rcc.c **** 
 1297              		.loc 1 824 5 view .LVU378
 1298 00ec B268     		ldr	r2, [r6, #8]
 1299 00ee 22F07842 		bic	r2, r2, #-134217728
 1300 00f2 45EAC404 		orr	r4, r5, r4, lsl #3
ARM GAS  C:\Users\katre\AppData\Local\Temp\ccsaao4d.s 			page 41


 1301              	.LVL91:
 824:Vendor_HAL/ST/STM32F4xx_HAL_Driver/Src/stm32f4xx_hal_rcc.c **** 
 1302              		.loc 1 824 5 is_stmt 0 view .LVU379
 1303 00f6 1443     		orrs	r4, r4, r2
 1304 00f8 B460     		str	r4, [r6, #8]
 1305              		.loc 1 832 1 view .LVU380
 1306 00fa C0E7     		b	.L121
 1307              	.LVL92:
 1308              	.L132:
 810:Vendor_HAL/ST/STM32F4xx_HAL_Driver/Src/stm32f4xx_hal_rcc.c **** 
 1309              		.loc 1 810 5 discriminator 4 view .LVU381
 1310 00fc 40F22A31 		movw	r1, #810
 1311 0100 0348     		ldr	r0, .L133+8
 1312 0102 FFF7FEFF 		bl	assert_failed
 1313              	.LVL93:
 1314 0106 D8E7     		b	.L127
 1315              	.L134:
 1316              		.align	2
 1317              	.L133:
 1318 0108 00380240 		.word	1073887232
 1319 010c 00000240 		.word	1073872896
 1320 0110 00000000 		.word	.LC0
 1321 0114 00080240 		.word	1073874944
 1322              		.cfi_endproc
 1323              	.LFE133:
 1325              		.section	.text.HAL_RCC_EnableCSS,"ax",%progbits
 1326              		.align	1
 1327              		.global	HAL_RCC_EnableCSS
 1328              		.syntax unified
 1329              		.thumb
 1330              		.thumb_func
 1332              	HAL_RCC_EnableCSS:
 1333              	.LFB134:
 833:Vendor_HAL/ST/STM32F4xx_HAL_Driver/Src/stm32f4xx_hal_rcc.c **** 
 834:Vendor_HAL/ST/STM32F4xx_HAL_Driver/Src/stm32f4xx_hal_rcc.c **** /**
 835:Vendor_HAL/ST/STM32F4xx_HAL_Driver/Src/stm32f4xx_hal_rcc.c ****   * @brief  Enables the Clock Security System.
 836:Vendor_HAL/ST/STM32F4xx_HAL_Driver/Src/stm32f4xx_hal_rcc.c ****   * @note   If a failure is detected on the HSE oscillator clock, this oscillator
 837:Vendor_HAL/ST/STM32F4xx_HAL_Driver/Src/stm32f4xx_hal_rcc.c ****   *         is automatically disabled and an interrupt is generated to inform the
 838:Vendor_HAL/ST/STM32F4xx_HAL_Driver/Src/stm32f4xx_hal_rcc.c ****   *         software about the failure (Clock Security System Interrupt, CSSI),
 839:Vendor_HAL/ST/STM32F4xx_HAL_Driver/Src/stm32f4xx_hal_rcc.c ****   *         allowing the MCU to perform rescue operations. The CSSI is linked to
 840:Vendor_HAL/ST/STM32F4xx_HAL_Driver/Src/stm32f4xx_hal_rcc.c ****   *         the Cortex-M4 NMI (Non-Maskable Interrupt) exception vector.
 841:Vendor_HAL/ST/STM32F4xx_HAL_Driver/Src/stm32f4xx_hal_rcc.c ****   * @retval None
 842:Vendor_HAL/ST/STM32F4xx_HAL_Driver/Src/stm32f4xx_hal_rcc.c ****   */
 843:Vendor_HAL/ST/STM32F4xx_HAL_Driver/Src/stm32f4xx_hal_rcc.c **** void HAL_RCC_EnableCSS(void)
 844:Vendor_HAL/ST/STM32F4xx_HAL_Driver/Src/stm32f4xx_hal_rcc.c **** {
 1334              		.loc 1 844 1 is_stmt 1 view -0
 1335              		.cfi_startproc
 1336              		@ args = 0, pretend = 0, frame = 0
 1337              		@ frame_needed = 0, uses_anonymous_args = 0
 1338              		@ link register save eliminated.
 845:Vendor_HAL/ST/STM32F4xx_HAL_Driver/Src/stm32f4xx_hal_rcc.c ****   *(__IO uint32_t *) RCC_CR_CSSON_BB = (uint32_t)ENABLE;
 1339              		.loc 1 845 3 view .LVU383
 1340              		.loc 1 845 38 is_stmt 0 view .LVU384
 1341 0000 014B     		ldr	r3, .L136
 1342 0002 0122     		movs	r2, #1
 1343 0004 DA64     		str	r2, [r3, #76]
 846:Vendor_HAL/ST/STM32F4xx_HAL_Driver/Src/stm32f4xx_hal_rcc.c **** }
ARM GAS  C:\Users\katre\AppData\Local\Temp\ccsaao4d.s 			page 42


 1344              		.loc 1 846 1 view .LVU385
 1345 0006 7047     		bx	lr
 1346              	.L137:
 1347              		.align	2
 1348              	.L136:
 1349 0008 00004742 		.word	1111949312
 1350              		.cfi_endproc
 1351              	.LFE134:
 1353              		.section	.text.HAL_RCC_DisableCSS,"ax",%progbits
 1354              		.align	1
 1355              		.global	HAL_RCC_DisableCSS
 1356              		.syntax unified
 1357              		.thumb
 1358              		.thumb_func
 1360              	HAL_RCC_DisableCSS:
 1361              	.LFB135:
 847:Vendor_HAL/ST/STM32F4xx_HAL_Driver/Src/stm32f4xx_hal_rcc.c **** 
 848:Vendor_HAL/ST/STM32F4xx_HAL_Driver/Src/stm32f4xx_hal_rcc.c **** /**
 849:Vendor_HAL/ST/STM32F4xx_HAL_Driver/Src/stm32f4xx_hal_rcc.c ****   * @brief  Disables the Clock Security System.
 850:Vendor_HAL/ST/STM32F4xx_HAL_Driver/Src/stm32f4xx_hal_rcc.c ****   * @retval None
 851:Vendor_HAL/ST/STM32F4xx_HAL_Driver/Src/stm32f4xx_hal_rcc.c ****   */
 852:Vendor_HAL/ST/STM32F4xx_HAL_Driver/Src/stm32f4xx_hal_rcc.c **** void HAL_RCC_DisableCSS(void)
 853:Vendor_HAL/ST/STM32F4xx_HAL_Driver/Src/stm32f4xx_hal_rcc.c **** {
 1362              		.loc 1 853 1 is_stmt 1 view -0
 1363              		.cfi_startproc
 1364              		@ args = 0, pretend = 0, frame = 0
 1365              		@ frame_needed = 0, uses_anonymous_args = 0
 1366              		@ link register save eliminated.
 854:Vendor_HAL/ST/STM32F4xx_HAL_Driver/Src/stm32f4xx_hal_rcc.c ****   *(__IO uint32_t *) RCC_CR_CSSON_BB = (uint32_t)DISABLE;
 1367              		.loc 1 854 3 view .LVU387
 1368              		.loc 1 854 38 is_stmt 0 view .LVU388
 1369 0000 014B     		ldr	r3, .L139
 1370 0002 0022     		movs	r2, #0
 1371 0004 DA64     		str	r2, [r3, #76]
 855:Vendor_HAL/ST/STM32F4xx_HAL_Driver/Src/stm32f4xx_hal_rcc.c **** }
 1372              		.loc 1 855 1 view .LVU389
 1373 0006 7047     		bx	lr
 1374              	.L140:
 1375              		.align	2
 1376              	.L139:
 1377 0008 00004742 		.word	1111949312
 1378              		.cfi_endproc
 1379              	.LFE135:
 1381              		.global	__aeabi_uldivmod
 1382              		.section	.text.HAL_RCC_GetSysClockFreq,"ax",%progbits
 1383              		.align	1
 1384              		.weak	HAL_RCC_GetSysClockFreq
 1385              		.syntax unified
 1386              		.thumb
 1387              		.thumb_func
 1389              	HAL_RCC_GetSysClockFreq:
 1390              	.LFB136:
 856:Vendor_HAL/ST/STM32F4xx_HAL_Driver/Src/stm32f4xx_hal_rcc.c **** 
 857:Vendor_HAL/ST/STM32F4xx_HAL_Driver/Src/stm32f4xx_hal_rcc.c **** /**
 858:Vendor_HAL/ST/STM32F4xx_HAL_Driver/Src/stm32f4xx_hal_rcc.c ****   * @brief  Returns the SYSCLK frequency
 859:Vendor_HAL/ST/STM32F4xx_HAL_Driver/Src/stm32f4xx_hal_rcc.c ****   *
 860:Vendor_HAL/ST/STM32F4xx_HAL_Driver/Src/stm32f4xx_hal_rcc.c ****   * @note   The system frequency computed by this function is not the real
ARM GAS  C:\Users\katre\AppData\Local\Temp\ccsaao4d.s 			page 43


 861:Vendor_HAL/ST/STM32F4xx_HAL_Driver/Src/stm32f4xx_hal_rcc.c ****   *         frequency in the chip. It is calculated based on the predefined
 862:Vendor_HAL/ST/STM32F4xx_HAL_Driver/Src/stm32f4xx_hal_rcc.c ****   *         constant and the selected clock source:
 863:Vendor_HAL/ST/STM32F4xx_HAL_Driver/Src/stm32f4xx_hal_rcc.c ****   * @note     If SYSCLK source is HSI, function returns values based on HSI_VALUE(*)
 864:Vendor_HAL/ST/STM32F4xx_HAL_Driver/Src/stm32f4xx_hal_rcc.c ****   * @note     If SYSCLK source is HSE, function returns values based on HSE_VALUE(**)
 865:Vendor_HAL/ST/STM32F4xx_HAL_Driver/Src/stm32f4xx_hal_rcc.c ****   * @note     If SYSCLK source is PLL, function returns values based on HSE_VALUE(**)
 866:Vendor_HAL/ST/STM32F4xx_HAL_Driver/Src/stm32f4xx_hal_rcc.c ****   *           or HSI_VALUE(*) multiplied/divided by the PLL factors.
 867:Vendor_HAL/ST/STM32F4xx_HAL_Driver/Src/stm32f4xx_hal_rcc.c ****   * @note     (*) HSI_VALUE is a constant defined in stm32f4xx_hal_conf.h file (default value
 868:Vendor_HAL/ST/STM32F4xx_HAL_Driver/Src/stm32f4xx_hal_rcc.c ****   *               16 MHz) but the real value may vary depending on the variations
 869:Vendor_HAL/ST/STM32F4xx_HAL_Driver/Src/stm32f4xx_hal_rcc.c ****   *               in voltage and temperature.
 870:Vendor_HAL/ST/STM32F4xx_HAL_Driver/Src/stm32f4xx_hal_rcc.c ****   * @note     (**) HSE_VALUE is a constant defined in stm32f4xx_hal_conf.h file (default value
 871:Vendor_HAL/ST/STM32F4xx_HAL_Driver/Src/stm32f4xx_hal_rcc.c ****   *                25 MHz), user has to ensure that HSE_VALUE is same as the real
 872:Vendor_HAL/ST/STM32F4xx_HAL_Driver/Src/stm32f4xx_hal_rcc.c ****   *                frequency of the crystal used. Otherwise, this function may
 873:Vendor_HAL/ST/STM32F4xx_HAL_Driver/Src/stm32f4xx_hal_rcc.c ****   *                have wrong result.
 874:Vendor_HAL/ST/STM32F4xx_HAL_Driver/Src/stm32f4xx_hal_rcc.c ****   *
 875:Vendor_HAL/ST/STM32F4xx_HAL_Driver/Src/stm32f4xx_hal_rcc.c ****   * @note   The result of this function could be not correct when using fractional
 876:Vendor_HAL/ST/STM32F4xx_HAL_Driver/Src/stm32f4xx_hal_rcc.c ****   *         value for HSE crystal.
 877:Vendor_HAL/ST/STM32F4xx_HAL_Driver/Src/stm32f4xx_hal_rcc.c ****   *
 878:Vendor_HAL/ST/STM32F4xx_HAL_Driver/Src/stm32f4xx_hal_rcc.c ****   * @note   This function can be used by the user application to compute the
 879:Vendor_HAL/ST/STM32F4xx_HAL_Driver/Src/stm32f4xx_hal_rcc.c ****   *         baudrate for the communication peripherals or configure other parameters.
 880:Vendor_HAL/ST/STM32F4xx_HAL_Driver/Src/stm32f4xx_hal_rcc.c ****   *
 881:Vendor_HAL/ST/STM32F4xx_HAL_Driver/Src/stm32f4xx_hal_rcc.c ****   * @note   Each time SYSCLK changes, this function must be called to update the
 882:Vendor_HAL/ST/STM32F4xx_HAL_Driver/Src/stm32f4xx_hal_rcc.c ****   *         right SYSCLK value. Otherwise, any configuration based on this function will be incorre
 883:Vendor_HAL/ST/STM32F4xx_HAL_Driver/Src/stm32f4xx_hal_rcc.c ****   *
 884:Vendor_HAL/ST/STM32F4xx_HAL_Driver/Src/stm32f4xx_hal_rcc.c ****   *
 885:Vendor_HAL/ST/STM32F4xx_HAL_Driver/Src/stm32f4xx_hal_rcc.c ****   * @retval SYSCLK frequency
 886:Vendor_HAL/ST/STM32F4xx_HAL_Driver/Src/stm32f4xx_hal_rcc.c ****   */
 887:Vendor_HAL/ST/STM32F4xx_HAL_Driver/Src/stm32f4xx_hal_rcc.c **** __weak uint32_t HAL_RCC_GetSysClockFreq(void)
 888:Vendor_HAL/ST/STM32F4xx_HAL_Driver/Src/stm32f4xx_hal_rcc.c **** {
 1391              		.loc 1 888 1 is_stmt 1 view -0
 1392              		.cfi_startproc
 1393              		@ args = 0, pretend = 0, frame = 0
 1394              		@ frame_needed = 0, uses_anonymous_args = 0
 1395 0000 08B5     		push	{r3, lr}
 1396              	.LCFI10:
 1397              		.cfi_def_cfa_offset 8
 1398              		.cfi_offset 3, -8
 1399              		.cfi_offset 14, -4
 889:Vendor_HAL/ST/STM32F4xx_HAL_Driver/Src/stm32f4xx_hal_rcc.c ****   uint32_t pllm = 0U, pllvco = 0U, pllp = 0U;
 1400              		.loc 1 889 3 view .LVU391
 1401              	.LVL94:
 890:Vendor_HAL/ST/STM32F4xx_HAL_Driver/Src/stm32f4xx_hal_rcc.c ****   uint32_t sysclockfreq = 0U;
 1402              		.loc 1 890 3 view .LVU392
 891:Vendor_HAL/ST/STM32F4xx_HAL_Driver/Src/stm32f4xx_hal_rcc.c **** 
 892:Vendor_HAL/ST/STM32F4xx_HAL_Driver/Src/stm32f4xx_hal_rcc.c ****   /* Get SYSCLK source -------------------------------------------------------*/
 893:Vendor_HAL/ST/STM32F4xx_HAL_Driver/Src/stm32f4xx_hal_rcc.c ****   switch (RCC->CFGR & RCC_CFGR_SWS)
 1403              		.loc 1 893 3 view .LVU393
 1404              		.loc 1 893 14 is_stmt 0 view .LVU394
 1405 0002 254B     		ldr	r3, .L148
 1406 0004 9B68     		ldr	r3, [r3, #8]
 1407              		.loc 1 893 21 view .LVU395
 1408 0006 03F00C03 		and	r3, r3, #12
 1409              		.loc 1 893 3 view .LVU396
 1410 000a 042B     		cmp	r3, #4
 1411 000c 3FD0     		beq	.L145
 1412 000e 082B     		cmp	r3, #8
 1413 0010 3FD1     		bne	.L146
 894:Vendor_HAL/ST/STM32F4xx_HAL_Driver/Src/stm32f4xx_hal_rcc.c ****   {
ARM GAS  C:\Users\katre\AppData\Local\Temp\ccsaao4d.s 			page 44


 895:Vendor_HAL/ST/STM32F4xx_HAL_Driver/Src/stm32f4xx_hal_rcc.c ****     case RCC_CFGR_SWS_HSI:  /* HSI used as system clock source */
 896:Vendor_HAL/ST/STM32F4xx_HAL_Driver/Src/stm32f4xx_hal_rcc.c ****     {
 897:Vendor_HAL/ST/STM32F4xx_HAL_Driver/Src/stm32f4xx_hal_rcc.c ****       sysclockfreq = HSI_VALUE;
 898:Vendor_HAL/ST/STM32F4xx_HAL_Driver/Src/stm32f4xx_hal_rcc.c ****        break;
 899:Vendor_HAL/ST/STM32F4xx_HAL_Driver/Src/stm32f4xx_hal_rcc.c ****     }
 900:Vendor_HAL/ST/STM32F4xx_HAL_Driver/Src/stm32f4xx_hal_rcc.c ****     case RCC_CFGR_SWS_HSE:  /* HSE used as system clock  source */
 901:Vendor_HAL/ST/STM32F4xx_HAL_Driver/Src/stm32f4xx_hal_rcc.c ****     {
 902:Vendor_HAL/ST/STM32F4xx_HAL_Driver/Src/stm32f4xx_hal_rcc.c ****       sysclockfreq = HSE_VALUE;
 903:Vendor_HAL/ST/STM32F4xx_HAL_Driver/Src/stm32f4xx_hal_rcc.c ****       break;
 904:Vendor_HAL/ST/STM32F4xx_HAL_Driver/Src/stm32f4xx_hal_rcc.c ****     }
 905:Vendor_HAL/ST/STM32F4xx_HAL_Driver/Src/stm32f4xx_hal_rcc.c ****     case RCC_CFGR_SWS_PLL:  /* PLL used as system clock  source */
 906:Vendor_HAL/ST/STM32F4xx_HAL_Driver/Src/stm32f4xx_hal_rcc.c ****     {
 907:Vendor_HAL/ST/STM32F4xx_HAL_Driver/Src/stm32f4xx_hal_rcc.c ****       /* PLL_VCO = (HSE_VALUE or HSI_VALUE / PLLM) * PLLN
 908:Vendor_HAL/ST/STM32F4xx_HAL_Driver/Src/stm32f4xx_hal_rcc.c ****       SYSCLK = PLL_VCO / PLLP */
 909:Vendor_HAL/ST/STM32F4xx_HAL_Driver/Src/stm32f4xx_hal_rcc.c ****       pllm = RCC->PLLCFGR & RCC_PLLCFGR_PLLM;
 1414              		.loc 1 909 7 is_stmt 1 view .LVU397
 1415              		.loc 1 909 17 is_stmt 0 view .LVU398
 1416 0012 214B     		ldr	r3, .L148
 1417 0014 5A68     		ldr	r2, [r3, #4]
 1418              		.loc 1 909 12 view .LVU399
 1419 0016 02F03F02 		and	r2, r2, #63
 1420              	.LVL95:
 910:Vendor_HAL/ST/STM32F4xx_HAL_Driver/Src/stm32f4xx_hal_rcc.c ****       if(__HAL_RCC_GET_PLL_OSCSOURCE() != RCC_PLLSOURCE_HSI)
 1421              		.loc 1 910 7 is_stmt 1 view .LVU400
 1422              		.loc 1 910 10 is_stmt 0 view .LVU401
 1423 001a 5B68     		ldr	r3, [r3, #4]
 1424              		.loc 1 910 9 view .LVU402
 1425 001c 13F4800F 		tst	r3, #4194304
 1426 0020 12D0     		beq	.L143
 911:Vendor_HAL/ST/STM32F4xx_HAL_Driver/Src/stm32f4xx_hal_rcc.c ****       {
 912:Vendor_HAL/ST/STM32F4xx_HAL_Driver/Src/stm32f4xx_hal_rcc.c ****         /* HSE used as PLL clock source */
 913:Vendor_HAL/ST/STM32F4xx_HAL_Driver/Src/stm32f4xx_hal_rcc.c ****         pllvco = (uint32_t) ((((uint64_t) HSE_VALUE * ((uint64_t) ((RCC->PLLCFGR & RCC_PLLCFGR_PLLN
 1427              		.loc 1 913 9 is_stmt 1 view .LVU403
 1428              		.loc 1 913 72 is_stmt 0 view .LVU404
 1429 0022 1D4B     		ldr	r3, .L148
 1430 0024 5968     		ldr	r1, [r3, #4]
 1431              		.loc 1 913 56 view .LVU405
 1432 0026 C1F38811 		ubfx	r1, r1, #6, #9
 1433              		.loc 1 913 53 view .LVU406
 1434 002a 1C48     		ldr	r0, .L148+4
 1435              		.loc 1 913 130 view .LVU407
 1436 002c 0023     		movs	r3, #0
 1437 002e A1FB0001 		umull	r0, r1, r1, r0
 1438 0032 FFF7FEFF 		bl	__aeabi_uldivmod
 1439              	.LVL96:
 1440              	.L144:
 914:Vendor_HAL/ST/STM32F4xx_HAL_Driver/Src/stm32f4xx_hal_rcc.c ****       }
 915:Vendor_HAL/ST/STM32F4xx_HAL_Driver/Src/stm32f4xx_hal_rcc.c ****       else
 916:Vendor_HAL/ST/STM32F4xx_HAL_Driver/Src/stm32f4xx_hal_rcc.c ****       {
 917:Vendor_HAL/ST/STM32F4xx_HAL_Driver/Src/stm32f4xx_hal_rcc.c ****         /* HSI used as PLL clock source */
 918:Vendor_HAL/ST/STM32F4xx_HAL_Driver/Src/stm32f4xx_hal_rcc.c ****         pllvco = (uint32_t) ((((uint64_t) HSI_VALUE * ((uint64_t) ((RCC->PLLCFGR & RCC_PLLCFGR_PLLN
 919:Vendor_HAL/ST/STM32F4xx_HAL_Driver/Src/stm32f4xx_hal_rcc.c ****       }
 920:Vendor_HAL/ST/STM32F4xx_HAL_Driver/Src/stm32f4xx_hal_rcc.c ****       pllp = ((((RCC->PLLCFGR & RCC_PLLCFGR_PLLP) >> RCC_PLLCFGR_PLLP_Pos) + 1U) *2U);
 1441              		.loc 1 920 7 is_stmt 1 view .LVU408
 1442              		.loc 1 920 21 is_stmt 0 view .LVU409
 1443 0036 184B     		ldr	r3, .L148
 1444 0038 5B68     		ldr	r3, [r3, #4]
ARM GAS  C:\Users\katre\AppData\Local\Temp\ccsaao4d.s 			page 45


 1445              		.loc 1 920 51 view .LVU410
 1446 003a C3F30143 		ubfx	r3, r3, #16, #2
 1447              		.loc 1 920 76 view .LVU411
 1448 003e 0133     		adds	r3, r3, #1
 1449              		.loc 1 920 12 view .LVU412
 1450 0040 5B00     		lsls	r3, r3, #1
 1451              	.LVL97:
 921:Vendor_HAL/ST/STM32F4xx_HAL_Driver/Src/stm32f4xx_hal_rcc.c **** 
 922:Vendor_HAL/ST/STM32F4xx_HAL_Driver/Src/stm32f4xx_hal_rcc.c ****       sysclockfreq = pllvco/pllp;
 1452              		.loc 1 922 7 is_stmt 1 view .LVU413
 1453              		.loc 1 922 20 is_stmt 0 view .LVU414
 1454 0042 B0FBF3F0 		udiv	r0, r0, r3
 1455              	.LVL98:
 923:Vendor_HAL/ST/STM32F4xx_HAL_Driver/Src/stm32f4xx_hal_rcc.c ****       break;
 1456              		.loc 1 923 7 is_stmt 1 view .LVU415
 1457 0046 25E0     		b	.L141
 1458              	.LVL99:
 1459              	.L143:
 918:Vendor_HAL/ST/STM32F4xx_HAL_Driver/Src/stm32f4xx_hal_rcc.c ****       }
 1460              		.loc 1 918 9 view .LVU416
 918:Vendor_HAL/ST/STM32F4xx_HAL_Driver/Src/stm32f4xx_hal_rcc.c ****       }
 1461              		.loc 1 918 72 is_stmt 0 view .LVU417
 1462 0048 134B     		ldr	r3, .L148
 1463 004a 5968     		ldr	r1, [r3, #4]
 918:Vendor_HAL/ST/STM32F4xx_HAL_Driver/Src/stm32f4xx_hal_rcc.c ****       }
 1464              		.loc 1 918 56 view .LVU418
 1465 004c C1F3881C 		ubfx	ip, r1, #6, #9
 918:Vendor_HAL/ST/STM32F4xx_HAL_Driver/Src/stm32f4xx_hal_rcc.c ****       }
 1466              		.loc 1 918 53 view .LVU419
 1467 0050 4FEA4C11 		lsl	r1, ip, #5
 1468 0054 B1EB0C00 		subs	r0, r1, ip
 1469 0058 6EEB0E0E 		sbc	lr, lr, lr
 1470 005c 4FEA8E13 		lsl	r3, lr, #6
 1471 0060 43EA9063 		orr	r3, r3, r0, lsr #26
 1472 0064 8101     		lsls	r1, r0, #6
 1473 0066 091A     		subs	r1, r1, r0
 1474 0068 63EB0E03 		sbc	r3, r3, lr
 1475 006c DB00     		lsls	r3, r3, #3
 1476 006e 43EA5173 		orr	r3, r3, r1, lsr #29
 1477 0072 C900     		lsls	r1, r1, #3
 1478 0074 11EB0C0C 		adds	ip, r1, ip
 1479 0078 43F10003 		adc	r3, r3, #0
 1480 007c 9902     		lsls	r1, r3, #10
 918:Vendor_HAL/ST/STM32F4xx_HAL_Driver/Src/stm32f4xx_hal_rcc.c ****       }
 1481              		.loc 1 918 130 view .LVU420
 1482 007e 0023     		movs	r3, #0
 1483 0080 4FEA8C20 		lsl	r0, ip, #10
 1484 0084 41EA9C51 		orr	r1, r1, ip, lsr #22
 1485 0088 FFF7FEFF 		bl	__aeabi_uldivmod
 1486              	.LVL100:
 918:Vendor_HAL/ST/STM32F4xx_HAL_Driver/Src/stm32f4xx_hal_rcc.c ****       }
 1487              		.loc 1 918 130 view .LVU421
 1488 008c D3E7     		b	.L144
 1489              	.LVL101:
 1490              	.L145:
 902:Vendor_HAL/ST/STM32F4xx_HAL_Driver/Src/stm32f4xx_hal_rcc.c ****       break;
 1491              		.loc 1 902 20 view .LVU422
ARM GAS  C:\Users\katre\AppData\Local\Temp\ccsaao4d.s 			page 46


 1492 008e 0348     		ldr	r0, .L148+4
 1493 0090 00E0     		b	.L141
 1494              	.L146:
 893:Vendor_HAL/ST/STM32F4xx_HAL_Driver/Src/stm32f4xx_hal_rcc.c ****   {
 1495              		.loc 1 893 3 view .LVU423
 1496 0092 0348     		ldr	r0, .L148+8
 1497              	.LVL102:
 924:Vendor_HAL/ST/STM32F4xx_HAL_Driver/Src/stm32f4xx_hal_rcc.c ****     }
 925:Vendor_HAL/ST/STM32F4xx_HAL_Driver/Src/stm32f4xx_hal_rcc.c ****     default:
 926:Vendor_HAL/ST/STM32F4xx_HAL_Driver/Src/stm32f4xx_hal_rcc.c ****     {
 927:Vendor_HAL/ST/STM32F4xx_HAL_Driver/Src/stm32f4xx_hal_rcc.c ****       sysclockfreq = HSI_VALUE;
 928:Vendor_HAL/ST/STM32F4xx_HAL_Driver/Src/stm32f4xx_hal_rcc.c ****       break;
 929:Vendor_HAL/ST/STM32F4xx_HAL_Driver/Src/stm32f4xx_hal_rcc.c ****     }
 930:Vendor_HAL/ST/STM32F4xx_HAL_Driver/Src/stm32f4xx_hal_rcc.c ****   }
 931:Vendor_HAL/ST/STM32F4xx_HAL_Driver/Src/stm32f4xx_hal_rcc.c ****   return sysclockfreq;
 1498              		.loc 1 931 3 is_stmt 1 view .LVU424
 1499              	.L141:
 932:Vendor_HAL/ST/STM32F4xx_HAL_Driver/Src/stm32f4xx_hal_rcc.c **** }
 1500              		.loc 1 932 1 is_stmt 0 view .LVU425
 1501 0094 08BD     		pop	{r3, pc}
 1502              	.L149:
 1503 0096 00BF     		.align	2
 1504              	.L148:
 1505 0098 00380240 		.word	1073887232
 1506 009c 40787D01 		.word	25000000
 1507 00a0 0024F400 		.word	16000000
 1508              		.cfi_endproc
 1509              	.LFE136:
 1511              		.section	.text.HAL_RCC_ClockConfig,"ax",%progbits
 1512              		.align	1
 1513              		.global	HAL_RCC_ClockConfig
 1514              		.syntax unified
 1515              		.thumb
 1516              		.thumb_func
 1518              	HAL_RCC_ClockConfig:
 1519              	.LVL103:
 1520              	.LFB132:
 594:Vendor_HAL/ST/STM32F4xx_HAL_Driver/Src/stm32f4xx_hal_rcc.c ****   uint32_t tickstart;
 1521              		.loc 1 594 1 is_stmt 1 view -0
 1522              		.cfi_startproc
 1523              		@ args = 0, pretend = 0, frame = 0
 1524              		@ frame_needed = 0, uses_anonymous_args = 0
 595:Vendor_HAL/ST/STM32F4xx_HAL_Driver/Src/stm32f4xx_hal_rcc.c **** 
 1525              		.loc 1 595 3 view .LVU427
 598:Vendor_HAL/ST/STM32F4xx_HAL_Driver/Src/stm32f4xx_hal_rcc.c ****   {
 1526              		.loc 1 598 3 view .LVU428
 598:Vendor_HAL/ST/STM32F4xx_HAL_Driver/Src/stm32f4xx_hal_rcc.c ****   {
 1527              		.loc 1 598 5 is_stmt 0 view .LVU429
 1528 0000 0028     		cmp	r0, #0
 1529 0002 00F0F780 		beq	.L171
 594:Vendor_HAL/ST/STM32F4xx_HAL_Driver/Src/stm32f4xx_hal_rcc.c ****   uint32_t tickstart;
 1530              		.loc 1 594 1 view .LVU430
 1531 0006 70B5     		push	{r4, r5, r6, lr}
 1532              	.LCFI11:
 1533              		.cfi_def_cfa_offset 16
 1534              		.cfi_offset 4, -16
 1535              		.cfi_offset 5, -12
ARM GAS  C:\Users\katre\AppData\Local\Temp\ccsaao4d.s 			page 47


 1536              		.cfi_offset 6, -8
 1537              		.cfi_offset 14, -4
 1538 0008 0D46     		mov	r5, r1
 1539 000a 0446     		mov	r4, r0
 604:Vendor_HAL/ST/STM32F4xx_HAL_Driver/Src/stm32f4xx_hal_rcc.c ****   assert_param(IS_FLASH_LATENCY(FLatency));
 1540              		.loc 1 604 3 is_stmt 1 view .LVU431
 1541 000c 0368     		ldr	r3, [r0]
 1542 000e 013B     		subs	r3, r3, #1
 1543 0010 0E2B     		cmp	r3, #14
 1544 0012 6BD8     		bhi	.L182
 1545              	.LVL104:
 1546              	.L152:
 605:Vendor_HAL/ST/STM32F4xx_HAL_Driver/Src/stm32f4xx_hal_rcc.c **** 
 1547              		.loc 1 605 3 view .LVU432
 1548 0014 0F2D     		cmp	r5, #15
 1549 0016 6FD8     		bhi	.L183
 1550              	.L153:
 612:Vendor_HAL/ST/STM32F4xx_HAL_Driver/Src/stm32f4xx_hal_rcc.c ****   {
 1551              		.loc 1 612 3 view .LVU433
 612:Vendor_HAL/ST/STM32F4xx_HAL_Driver/Src/stm32f4xx_hal_rcc.c ****   {
 1552              		.loc 1 612 17 is_stmt 0 view .LVU434
 1553 0018 7A4B     		ldr	r3, .L190
 1554 001a 1B68     		ldr	r3, [r3]
 1555 001c 03F00F03 		and	r3, r3, #15
 612:Vendor_HAL/ST/STM32F4xx_HAL_Driver/Src/stm32f4xx_hal_rcc.c ****   {
 1556              		.loc 1 612 5 view .LVU435
 1557 0020 AB42     		cmp	r3, r5
 1558 0022 08D2     		bcs	.L154
 615:Vendor_HAL/ST/STM32F4xx_HAL_Driver/Src/stm32f4xx_hal_rcc.c **** 
 1559              		.loc 1 615 5 is_stmt 1 view .LVU436
 1560 0024 EBB2     		uxtb	r3, r5
 1561 0026 774A     		ldr	r2, .L190
 1562 0028 1370     		strb	r3, [r2]
 619:Vendor_HAL/ST/STM32F4xx_HAL_Driver/Src/stm32f4xx_hal_rcc.c ****     {
 1563              		.loc 1 619 5 view .LVU437
 619:Vendor_HAL/ST/STM32F4xx_HAL_Driver/Src/stm32f4xx_hal_rcc.c ****     {
 1564              		.loc 1 619 8 is_stmt 0 view .LVU438
 1565 002a 1368     		ldr	r3, [r2]
 1566 002c 03F00F03 		and	r3, r3, #15
 619:Vendor_HAL/ST/STM32F4xx_HAL_Driver/Src/stm32f4xx_hal_rcc.c ****     {
 1567              		.loc 1 619 7 view .LVU439
 1568 0030 AB42     		cmp	r3, r5
 1569 0032 40F0E180 		bne	.L172
 1570              	.L154:
 626:Vendor_HAL/ST/STM32F4xx_HAL_Driver/Src/stm32f4xx_hal_rcc.c ****   {
 1571              		.loc 1 626 3 is_stmt 1 view .LVU440
 626:Vendor_HAL/ST/STM32F4xx_HAL_Driver/Src/stm32f4xx_hal_rcc.c ****   {
 1572              		.loc 1 626 25 is_stmt 0 view .LVU441
 1573 0036 2368     		ldr	r3, [r4]
 626:Vendor_HAL/ST/STM32F4xx_HAL_Driver/Src/stm32f4xx_hal_rcc.c ****   {
 1574              		.loc 1 626 5 view .LVU442
 1575 0038 13F0020F 		tst	r3, #2
 1576 003c 29D0     		beq	.L155
 630:Vendor_HAL/ST/STM32F4xx_HAL_Driver/Src/stm32f4xx_hal_rcc.c ****     {
 1577              		.loc 1 630 5 is_stmt 1 view .LVU443
 630:Vendor_HAL/ST/STM32F4xx_HAL_Driver/Src/stm32f4xx_hal_rcc.c ****     {
 1578              		.loc 1 630 7 is_stmt 0 view .LVU444
ARM GAS  C:\Users\katre\AppData\Local\Temp\ccsaao4d.s 			page 48


 1579 003e 13F0040F 		tst	r3, #4
 1580 0042 04D0     		beq	.L156
 632:Vendor_HAL/ST/STM32F4xx_HAL_Driver/Src/stm32f4xx_hal_rcc.c ****     }
 1581              		.loc 1 632 7 is_stmt 1 view .LVU445
 1582 0044 704A     		ldr	r2, .L190+4
 1583 0046 9368     		ldr	r3, [r2, #8]
 1584 0048 43F4E053 		orr	r3, r3, #7168
 1585 004c 9360     		str	r3, [r2, #8]
 1586              	.L156:
 635:Vendor_HAL/ST/STM32F4xx_HAL_Driver/Src/stm32f4xx_hal_rcc.c ****     {
 1587              		.loc 1 635 5 view .LVU446
 635:Vendor_HAL/ST/STM32F4xx_HAL_Driver/Src/stm32f4xx_hal_rcc.c ****     {
 1588              		.loc 1 635 27 is_stmt 0 view .LVU447
 1589 004e 2368     		ldr	r3, [r4]
 635:Vendor_HAL/ST/STM32F4xx_HAL_Driver/Src/stm32f4xx_hal_rcc.c ****     {
 1590              		.loc 1 635 7 view .LVU448
 1591 0050 13F0080F 		tst	r3, #8
 1592 0054 04D0     		beq	.L157
 637:Vendor_HAL/ST/STM32F4xx_HAL_Driver/Src/stm32f4xx_hal_rcc.c ****     }
 1593              		.loc 1 637 7 is_stmt 1 view .LVU449
 1594 0056 6C4A     		ldr	r2, .L190+4
 1595 0058 9368     		ldr	r3, [r2, #8]
 1596 005a 43F46043 		orr	r3, r3, #57344
 1597 005e 9360     		str	r3, [r2, #8]
 1598              	.L157:
 640:Vendor_HAL/ST/STM32F4xx_HAL_Driver/Src/stm32f4xx_hal_rcc.c ****     MODIFY_REG(RCC->CFGR, RCC_CFGR_HPRE, RCC_ClkInitStruct->AHBCLKDivider);
 1599              		.loc 1 640 5 view .LVU450
 1600 0060 A368     		ldr	r3, [r4, #8]
 1601 0062 7BB1     		cbz	r3, .L158
 640:Vendor_HAL/ST/STM32F4xx_HAL_Driver/Src/stm32f4xx_hal_rcc.c ****     MODIFY_REG(RCC->CFGR, RCC_CFGR_HPRE, RCC_ClkInitStruct->AHBCLKDivider);
 1602              		.loc 1 640 5 is_stmt 0 discriminator 1 view .LVU451
 1603 0064 802B     		cmp	r3, #128
 1604 0066 0DD0     		beq	.L158
 640:Vendor_HAL/ST/STM32F4xx_HAL_Driver/Src/stm32f4xx_hal_rcc.c ****     MODIFY_REG(RCC->CFGR, RCC_CFGR_HPRE, RCC_ClkInitStruct->AHBCLKDivider);
 1605              		.loc 1 640 5 discriminator 2 view .LVU452
 1606 0068 902B     		cmp	r3, #144
 1607 006a 0BD0     		beq	.L158
 640:Vendor_HAL/ST/STM32F4xx_HAL_Driver/Src/stm32f4xx_hal_rcc.c ****     MODIFY_REG(RCC->CFGR, RCC_CFGR_HPRE, RCC_ClkInitStruct->AHBCLKDivider);
 1608              		.loc 1 640 5 discriminator 3 view .LVU453
 1609 006c A02B     		cmp	r3, #160
 1610 006e 09D0     		beq	.L158
 640:Vendor_HAL/ST/STM32F4xx_HAL_Driver/Src/stm32f4xx_hal_rcc.c ****     MODIFY_REG(RCC->CFGR, RCC_CFGR_HPRE, RCC_ClkInitStruct->AHBCLKDivider);
 1611              		.loc 1 640 5 discriminator 4 view .LVU454
 1612 0070 B02B     		cmp	r3, #176
 1613 0072 07D0     		beq	.L158
 640:Vendor_HAL/ST/STM32F4xx_HAL_Driver/Src/stm32f4xx_hal_rcc.c ****     MODIFY_REG(RCC->CFGR, RCC_CFGR_HPRE, RCC_ClkInitStruct->AHBCLKDivider);
 1614              		.loc 1 640 5 discriminator 5 view .LVU455
 1615 0074 C02B     		cmp	r3, #192
 1616 0076 05D0     		beq	.L158
 640:Vendor_HAL/ST/STM32F4xx_HAL_Driver/Src/stm32f4xx_hal_rcc.c ****     MODIFY_REG(RCC->CFGR, RCC_CFGR_HPRE, RCC_ClkInitStruct->AHBCLKDivider);
 1617              		.loc 1 640 5 discriminator 6 view .LVU456
 1618 0078 D02B     		cmp	r3, #208
 1619 007a 03D0     		beq	.L158
 640:Vendor_HAL/ST/STM32F4xx_HAL_Driver/Src/stm32f4xx_hal_rcc.c ****     MODIFY_REG(RCC->CFGR, RCC_CFGR_HPRE, RCC_ClkInitStruct->AHBCLKDivider);
 1620              		.loc 1 640 5 discriminator 7 view .LVU457
 1621 007c E02B     		cmp	r3, #224
 1622 007e 01D0     		beq	.L158
ARM GAS  C:\Users\katre\AppData\Local\Temp\ccsaao4d.s 			page 49


 640:Vendor_HAL/ST/STM32F4xx_HAL_Driver/Src/stm32f4xx_hal_rcc.c ****     MODIFY_REG(RCC->CFGR, RCC_CFGR_HPRE, RCC_ClkInitStruct->AHBCLKDivider);
 1623              		.loc 1 640 5 discriminator 8 view .LVU458
 1624 0080 F02B     		cmp	r3, #240
 1625 0082 3FD1     		bne	.L184
 1626              	.L158:
 641:Vendor_HAL/ST/STM32F4xx_HAL_Driver/Src/stm32f4xx_hal_rcc.c ****   }
 1627              		.loc 1 641 5 is_stmt 1 view .LVU459
 1628 0084 604A     		ldr	r2, .L190+4
 1629 0086 9368     		ldr	r3, [r2, #8]
 1630 0088 23F0F003 		bic	r3, r3, #240
 1631 008c A168     		ldr	r1, [r4, #8]
 1632 008e 0B43     		orrs	r3, r3, r1
 1633 0090 9360     		str	r3, [r2, #8]
 1634              	.L155:
 645:Vendor_HAL/ST/STM32F4xx_HAL_Driver/Src/stm32f4xx_hal_rcc.c ****   {
 1635              		.loc 1 645 3 view .LVU460
 645:Vendor_HAL/ST/STM32F4xx_HAL_Driver/Src/stm32f4xx_hal_rcc.c ****   {
 1636              		.loc 1 645 25 is_stmt 0 view .LVU461
 1637 0092 2368     		ldr	r3, [r4]
 645:Vendor_HAL/ST/STM32F4xx_HAL_Driver/Src/stm32f4xx_hal_rcc.c ****   {
 1638              		.loc 1 645 5 view .LVU462
 1639 0094 13F0010F 		tst	r3, #1
 1640 0098 4ED0     		beq	.L159
 647:Vendor_HAL/ST/STM32F4xx_HAL_Driver/Src/stm32f4xx_hal_rcc.c **** 
 1641              		.loc 1 647 5 is_stmt 1 view .LVU463
 1642 009a 6368     		ldr	r3, [r4, #4]
 1643 009c 032B     		cmp	r3, #3
 1644 009e 37D8     		bhi	.L185
 1645              	.L160:
 650:Vendor_HAL/ST/STM32F4xx_HAL_Driver/Src/stm32f4xx_hal_rcc.c ****     {
 1646              		.loc 1 650 5 view .LVU464
 650:Vendor_HAL/ST/STM32F4xx_HAL_Driver/Src/stm32f4xx_hal_rcc.c ****     {
 1647              		.loc 1 650 25 is_stmt 0 view .LVU465
 1648 00a0 6368     		ldr	r3, [r4, #4]
 650:Vendor_HAL/ST/STM32F4xx_HAL_Driver/Src/stm32f4xx_hal_rcc.c ****     {
 1649              		.loc 1 650 7 view .LVU466
 1650 00a2 012B     		cmp	r3, #1
 1651 00a4 3AD0     		beq	.L186
 659:Vendor_HAL/ST/STM32F4xx_HAL_Driver/Src/stm32f4xx_hal_rcc.c ****             (RCC_ClkInitStruct->SYSCLKSource == RCC_SYSCLKSOURCE_PLLRCLK))
 1652              		.loc 1 659 10 is_stmt 1 view .LVU467
 659:Vendor_HAL/ST/STM32F4xx_HAL_Driver/Src/stm32f4xx_hal_rcc.c ****             (RCC_ClkInitStruct->SYSCLKSource == RCC_SYSCLKSOURCE_PLLRCLK))
 1653              		.loc 1 659 76 is_stmt 0 view .LVU468
 1654 00a6 9A1E     		subs	r2, r3, #2
 659:Vendor_HAL/ST/STM32F4xx_HAL_Driver/Src/stm32f4xx_hal_rcc.c ****             (RCC_ClkInitStruct->SYSCLKSource == RCC_SYSCLKSOURCE_PLLRCLK))
 1655              		.loc 1 659 12 view .LVU469
 1656 00a8 012A     		cmp	r2, #1
 1657 00aa 3ED9     		bls	.L187
 672:Vendor_HAL/ST/STM32F4xx_HAL_Driver/Src/stm32f4xx_hal_rcc.c ****       {
 1658              		.loc 1 672 7 is_stmt 1 view .LVU470
 672:Vendor_HAL/ST/STM32F4xx_HAL_Driver/Src/stm32f4xx_hal_rcc.c ****       {
 1659              		.loc 1 672 10 is_stmt 0 view .LVU471
 1660 00ac 564A     		ldr	r2, .L190+4
 1661 00ae 1268     		ldr	r2, [r2]
 672:Vendor_HAL/ST/STM32F4xx_HAL_Driver/Src/stm32f4xx_hal_rcc.c ****       {
 1662              		.loc 1 672 9 view .LVU472
 1663 00b0 12F0020F 		tst	r2, #2
 1664 00b4 00F0A280 		beq	.L175
ARM GAS  C:\Users\katre\AppData\Local\Temp\ccsaao4d.s 			page 50


 1665              	.L162:
 678:Vendor_HAL/ST/STM32F4xx_HAL_Driver/Src/stm32f4xx_hal_rcc.c **** 
 1666              		.loc 1 678 5 is_stmt 1 view .LVU473
 1667 00b8 5349     		ldr	r1, .L190+4
 1668 00ba 8A68     		ldr	r2, [r1, #8]
 1669 00bc 22F00302 		bic	r2, r2, #3
 1670 00c0 1343     		orrs	r3, r3, r2
 1671 00c2 8B60     		str	r3, [r1, #8]
 681:Vendor_HAL/ST/STM32F4xx_HAL_Driver/Src/stm32f4xx_hal_rcc.c **** 
 1672              		.loc 1 681 5 view .LVU474
 681:Vendor_HAL/ST/STM32F4xx_HAL_Driver/Src/stm32f4xx_hal_rcc.c **** 
 1673              		.loc 1 681 17 is_stmt 0 view .LVU475
 1674 00c4 FFF7FEFF 		bl	HAL_GetTick
 1675              	.LVL105:
 1676 00c8 0646     		mov	r6, r0
 1677              	.LVL106:
 683:Vendor_HAL/ST/STM32F4xx_HAL_Driver/Src/stm32f4xx_hal_rcc.c ****     {
 1678              		.loc 1 683 5 is_stmt 1 view .LVU476
 1679              	.L164:
 683:Vendor_HAL/ST/STM32F4xx_HAL_Driver/Src/stm32f4xx_hal_rcc.c ****     {
 1680              		.loc 1 683 11 view .LVU477
 683:Vendor_HAL/ST/STM32F4xx_HAL_Driver/Src/stm32f4xx_hal_rcc.c ****     {
 1681              		.loc 1 683 12 is_stmt 0 view .LVU478
 1682 00ca 4F4B     		ldr	r3, .L190+4
 1683 00cc 9B68     		ldr	r3, [r3, #8]
 1684 00ce 03F00C03 		and	r3, r3, #12
 683:Vendor_HAL/ST/STM32F4xx_HAL_Driver/Src/stm32f4xx_hal_rcc.c ****     {
 1685              		.loc 1 683 63 view .LVU479
 1686 00d2 6268     		ldr	r2, [r4, #4]
 683:Vendor_HAL/ST/STM32F4xx_HAL_Driver/Src/stm32f4xx_hal_rcc.c ****     {
 1687              		.loc 1 683 11 view .LVU480
 1688 00d4 B3EB820F 		cmp	r3, r2, lsl #2
 1689 00d8 2ED0     		beq	.L159
 685:Vendor_HAL/ST/STM32F4xx_HAL_Driver/Src/stm32f4xx_hal_rcc.c ****       {
 1690              		.loc 1 685 7 is_stmt 1 view .LVU481
 685:Vendor_HAL/ST/STM32F4xx_HAL_Driver/Src/stm32f4xx_hal_rcc.c ****       {
 1691              		.loc 1 685 12 is_stmt 0 view .LVU482
 1692 00da FFF7FEFF 		bl	HAL_GetTick
 1693              	.LVL107:
 685:Vendor_HAL/ST/STM32F4xx_HAL_Driver/Src/stm32f4xx_hal_rcc.c ****       {
 1694              		.loc 1 685 26 view .LVU483
 1695 00de 801B     		subs	r0, r0, r6
 685:Vendor_HAL/ST/STM32F4xx_HAL_Driver/Src/stm32f4xx_hal_rcc.c ****       {
 1696              		.loc 1 685 10 view .LVU484
 1697 00e0 41F28833 		movw	r3, #5000
 1698 00e4 9842     		cmp	r0, r3
 1699 00e6 F0D9     		bls	.L164
 687:Vendor_HAL/ST/STM32F4xx_HAL_Driver/Src/stm32f4xx_hal_rcc.c ****       }
 1700              		.loc 1 687 16 view .LVU485
 1701 00e8 0320     		movs	r0, #3
 1702 00ea 76E0     		b	.L151
 1703              	.LVL108:
 1704              	.L182:
 604:Vendor_HAL/ST/STM32F4xx_HAL_Driver/Src/stm32f4xx_hal_rcc.c ****   assert_param(IS_FLASH_LATENCY(FLatency));
 1705              		.loc 1 604 3 discriminator 1 view .LVU486
 1706 00ec 4FF41771 		mov	r1, #604
 1707              	.LVL109:
ARM GAS  C:\Users\katre\AppData\Local\Temp\ccsaao4d.s 			page 51


 604:Vendor_HAL/ST/STM32F4xx_HAL_Driver/Src/stm32f4xx_hal_rcc.c ****   assert_param(IS_FLASH_LATENCY(FLatency));
 1708              		.loc 1 604 3 discriminator 1 view .LVU487
 1709 00f0 4648     		ldr	r0, .L190+8
 1710              	.LVL110:
 604:Vendor_HAL/ST/STM32F4xx_HAL_Driver/Src/stm32f4xx_hal_rcc.c ****   assert_param(IS_FLASH_LATENCY(FLatency));
 1711              		.loc 1 604 3 discriminator 1 view .LVU488
 1712 00f2 FFF7FEFF 		bl	assert_failed
 1713              	.LVL111:
 1714 00f6 8DE7     		b	.L152
 1715              	.L183:
 605:Vendor_HAL/ST/STM32F4xx_HAL_Driver/Src/stm32f4xx_hal_rcc.c **** 
 1716              		.loc 1 605 3 discriminator 1 view .LVU489
 1717 00f8 40F25D21 		movw	r1, #605
 1718 00fc 4348     		ldr	r0, .L190+8
 1719 00fe FFF7FEFF 		bl	assert_failed
 1720              	.LVL112:
 1721 0102 89E7     		b	.L153
 1722              	.L184:
 640:Vendor_HAL/ST/STM32F4xx_HAL_Driver/Src/stm32f4xx_hal_rcc.c ****     MODIFY_REG(RCC->CFGR, RCC_CFGR_HPRE, RCC_ClkInitStruct->AHBCLKDivider);
 1723              		.loc 1 640 5 discriminator 9 view .LVU490
 1724 0104 4FF42071 		mov	r1, #640
 1725 0108 4048     		ldr	r0, .L190+8
 1726 010a FFF7FEFF 		bl	assert_failed
 1727              	.LVL113:
 1728 010e B9E7     		b	.L158
 1729              	.L185:
 647:Vendor_HAL/ST/STM32F4xx_HAL_Driver/Src/stm32f4xx_hal_rcc.c **** 
 1730              		.loc 1 647 5 discriminator 1 view .LVU491
 1731 0110 40F28721 		movw	r1, #647
 1732 0114 3D48     		ldr	r0, .L190+8
 1733 0116 FFF7FEFF 		bl	assert_failed
 1734              	.LVL114:
 1735 011a C1E7     		b	.L160
 1736              	.L186:
 653:Vendor_HAL/ST/STM32F4xx_HAL_Driver/Src/stm32f4xx_hal_rcc.c ****       {
 1737              		.loc 1 653 7 is_stmt 1 view .LVU492
 653:Vendor_HAL/ST/STM32F4xx_HAL_Driver/Src/stm32f4xx_hal_rcc.c ****       {
 1738              		.loc 1 653 10 is_stmt 0 view .LVU493
 1739 011c 3A4A     		ldr	r2, .L190+4
 1740 011e 1268     		ldr	r2, [r2]
 653:Vendor_HAL/ST/STM32F4xx_HAL_Driver/Src/stm32f4xx_hal_rcc.c ****       {
 1741              		.loc 1 653 9 view .LVU494
 1742 0120 12F4003F 		tst	r2, #131072
 1743 0124 C8D1     		bne	.L162
 655:Vendor_HAL/ST/STM32F4xx_HAL_Driver/Src/stm32f4xx_hal_rcc.c ****       }
 1744              		.loc 1 655 16 view .LVU495
 1745 0126 0120     		movs	r0, #1
 1746 0128 57E0     		b	.L151
 1747              	.L187:
 663:Vendor_HAL/ST/STM32F4xx_HAL_Driver/Src/stm32f4xx_hal_rcc.c ****       {
 1748              		.loc 1 663 7 is_stmt 1 view .LVU496
 663:Vendor_HAL/ST/STM32F4xx_HAL_Driver/Src/stm32f4xx_hal_rcc.c ****       {
 1749              		.loc 1 663 10 is_stmt 0 view .LVU497
 1750 012a 374A     		ldr	r2, .L190+4
 1751 012c 1268     		ldr	r2, [r2]
 663:Vendor_HAL/ST/STM32F4xx_HAL_Driver/Src/stm32f4xx_hal_rcc.c ****       {
 1752              		.loc 1 663 9 view .LVU498
ARM GAS  C:\Users\katre\AppData\Local\Temp\ccsaao4d.s 			page 52


 1753 012e 12F0007F 		tst	r2, #33554432
 1754 0132 C1D1     		bne	.L162
 665:Vendor_HAL/ST/STM32F4xx_HAL_Driver/Src/stm32f4xx_hal_rcc.c ****       }
 1755              		.loc 1 665 16 view .LVU499
 1756 0134 0120     		movs	r0, #1
 1757 0136 50E0     		b	.L151
 1758              	.L159:
 693:Vendor_HAL/ST/STM32F4xx_HAL_Driver/Src/stm32f4xx_hal_rcc.c ****   {
 1759              		.loc 1 693 3 is_stmt 1 view .LVU500
 693:Vendor_HAL/ST/STM32F4xx_HAL_Driver/Src/stm32f4xx_hal_rcc.c ****   {
 1760              		.loc 1 693 17 is_stmt 0 view .LVU501
 1761 0138 324B     		ldr	r3, .L190
 1762 013a 1B68     		ldr	r3, [r3]
 1763 013c 03F00F03 		and	r3, r3, #15
 693:Vendor_HAL/ST/STM32F4xx_HAL_Driver/Src/stm32f4xx_hal_rcc.c ****   {
 1764              		.loc 1 693 5 view .LVU502
 1765 0140 AB42     		cmp	r3, r5
 1766 0142 07D9     		bls	.L166
 696:Vendor_HAL/ST/STM32F4xx_HAL_Driver/Src/stm32f4xx_hal_rcc.c **** 
 1767              		.loc 1 696 5 is_stmt 1 view .LVU503
 1768 0144 EAB2     		uxtb	r2, r5
 1769 0146 2F4B     		ldr	r3, .L190
 1770 0148 1A70     		strb	r2, [r3]
 700:Vendor_HAL/ST/STM32F4xx_HAL_Driver/Src/stm32f4xx_hal_rcc.c ****     {
 1771              		.loc 1 700 5 view .LVU504
 700:Vendor_HAL/ST/STM32F4xx_HAL_Driver/Src/stm32f4xx_hal_rcc.c ****     {
 1772              		.loc 1 700 8 is_stmt 0 view .LVU505
 1773 014a 1B68     		ldr	r3, [r3]
 1774 014c 03F00F03 		and	r3, r3, #15
 700:Vendor_HAL/ST/STM32F4xx_HAL_Driver/Src/stm32f4xx_hal_rcc.c ****     {
 1775              		.loc 1 700 7 view .LVU506
 1776 0150 AB42     		cmp	r3, r5
 1777 0152 55D1     		bne	.L177
 1778              	.L166:
 707:Vendor_HAL/ST/STM32F4xx_HAL_Driver/Src/stm32f4xx_hal_rcc.c ****   {
 1779              		.loc 1 707 3 is_stmt 1 view .LVU507
 707:Vendor_HAL/ST/STM32F4xx_HAL_Driver/Src/stm32f4xx_hal_rcc.c ****   {
 1780              		.loc 1 707 25 is_stmt 0 view .LVU508
 1781 0154 2368     		ldr	r3, [r4]
 707:Vendor_HAL/ST/STM32F4xx_HAL_Driver/Src/stm32f4xx_hal_rcc.c ****   {
 1782              		.loc 1 707 5 view .LVU509
 1783 0156 13F0040F 		tst	r3, #4
 1784 015a 14D0     		beq	.L167
 709:Vendor_HAL/ST/STM32F4xx_HAL_Driver/Src/stm32f4xx_hal_rcc.c ****     MODIFY_REG(RCC->CFGR, RCC_CFGR_PPRE1, RCC_ClkInitStruct->APB1CLKDivider);
 1785              		.loc 1 709 5 is_stmt 1 view .LVU510
 1786 015c E368     		ldr	r3, [r4, #12]
 1787 015e 5BB1     		cbz	r3, .L168
 709:Vendor_HAL/ST/STM32F4xx_HAL_Driver/Src/stm32f4xx_hal_rcc.c ****     MODIFY_REG(RCC->CFGR, RCC_CFGR_PPRE1, RCC_ClkInitStruct->APB1CLKDivider);
 1788              		.loc 1 709 5 is_stmt 0 discriminator 1 view .LVU511
 1789 0160 B3F5805F 		cmp	r3, #4096
 1790 0164 08D0     		beq	.L168
 709:Vendor_HAL/ST/STM32F4xx_HAL_Driver/Src/stm32f4xx_hal_rcc.c ****     MODIFY_REG(RCC->CFGR, RCC_CFGR_PPRE1, RCC_ClkInitStruct->APB1CLKDivider);
 1791              		.loc 1 709 5 discriminator 2 view .LVU512
 1792 0166 B3F5A05F 		cmp	r3, #5120
 1793 016a 05D0     		beq	.L168
 709:Vendor_HAL/ST/STM32F4xx_HAL_Driver/Src/stm32f4xx_hal_rcc.c ****     MODIFY_REG(RCC->CFGR, RCC_CFGR_PPRE1, RCC_ClkInitStruct->APB1CLKDivider);
 1794              		.loc 1 709 5 discriminator 3 view .LVU513
ARM GAS  C:\Users\katre\AppData\Local\Temp\ccsaao4d.s 			page 53


 1795 016c B3F5C05F 		cmp	r3, #6144
 1796 0170 02D0     		beq	.L168
 709:Vendor_HAL/ST/STM32F4xx_HAL_Driver/Src/stm32f4xx_hal_rcc.c ****     MODIFY_REG(RCC->CFGR, RCC_CFGR_PPRE1, RCC_ClkInitStruct->APB1CLKDivider);
 1797              		.loc 1 709 5 discriminator 4 view .LVU514
 1798 0172 B3F5E05F 		cmp	r3, #7168
 1799 0176 31D1     		bne	.L188
 1800              	.L168:
 710:Vendor_HAL/ST/STM32F4xx_HAL_Driver/Src/stm32f4xx_hal_rcc.c ****   }
 1801              		.loc 1 710 5 is_stmt 1 view .LVU515
 1802 0178 234A     		ldr	r2, .L190+4
 1803 017a 9368     		ldr	r3, [r2, #8]
 1804 017c 23F4E053 		bic	r3, r3, #7168
 1805 0180 E168     		ldr	r1, [r4, #12]
 1806 0182 0B43     		orrs	r3, r3, r1
 1807 0184 9360     		str	r3, [r2, #8]
 1808              	.L167:
 714:Vendor_HAL/ST/STM32F4xx_HAL_Driver/Src/stm32f4xx_hal_rcc.c ****   {
 1809              		.loc 1 714 3 view .LVU516
 714:Vendor_HAL/ST/STM32F4xx_HAL_Driver/Src/stm32f4xx_hal_rcc.c ****   {
 1810              		.loc 1 714 25 is_stmt 0 view .LVU517
 1811 0186 2368     		ldr	r3, [r4]
 714:Vendor_HAL/ST/STM32F4xx_HAL_Driver/Src/stm32f4xx_hal_rcc.c ****   {
 1812              		.loc 1 714 5 view .LVU518
 1813 0188 13F0080F 		tst	r3, #8
 1814 018c 15D0     		beq	.L169
 716:Vendor_HAL/ST/STM32F4xx_HAL_Driver/Src/stm32f4xx_hal_rcc.c ****     MODIFY_REG(RCC->CFGR, RCC_CFGR_PPRE2, ((RCC_ClkInitStruct->APB2CLKDivider) << 3U));
 1815              		.loc 1 716 5 is_stmt 1 view .LVU519
 1816 018e 2369     		ldr	r3, [r4, #16]
 1817 0190 5BB1     		cbz	r3, .L170
 716:Vendor_HAL/ST/STM32F4xx_HAL_Driver/Src/stm32f4xx_hal_rcc.c ****     MODIFY_REG(RCC->CFGR, RCC_CFGR_PPRE2, ((RCC_ClkInitStruct->APB2CLKDivider) << 3U));
 1818              		.loc 1 716 5 is_stmt 0 discriminator 1 view .LVU520
 1819 0192 B3F5805F 		cmp	r3, #4096
 1820 0196 08D0     		beq	.L170
 716:Vendor_HAL/ST/STM32F4xx_HAL_Driver/Src/stm32f4xx_hal_rcc.c ****     MODIFY_REG(RCC->CFGR, RCC_CFGR_PPRE2, ((RCC_ClkInitStruct->APB2CLKDivider) << 3U));
 1821              		.loc 1 716 5 discriminator 2 view .LVU521
 1822 0198 B3F5A05F 		cmp	r3, #5120
 1823 019c 05D0     		beq	.L170
 716:Vendor_HAL/ST/STM32F4xx_HAL_Driver/Src/stm32f4xx_hal_rcc.c ****     MODIFY_REG(RCC->CFGR, RCC_CFGR_PPRE2, ((RCC_ClkInitStruct->APB2CLKDivider) << 3U));
 1824              		.loc 1 716 5 discriminator 3 view .LVU522
 1825 019e B3F5C05F 		cmp	r3, #6144
 1826 01a2 02D0     		beq	.L170
 716:Vendor_HAL/ST/STM32F4xx_HAL_Driver/Src/stm32f4xx_hal_rcc.c ****     MODIFY_REG(RCC->CFGR, RCC_CFGR_PPRE2, ((RCC_ClkInitStruct->APB2CLKDivider) << 3U));
 1827              		.loc 1 716 5 discriminator 4 view .LVU523
 1828 01a4 B3F5E05F 		cmp	r3, #7168
 1829 01a8 1ED1     		bne	.L189
 1830              	.L170:
 717:Vendor_HAL/ST/STM32F4xx_HAL_Driver/Src/stm32f4xx_hal_rcc.c ****   }
 1831              		.loc 1 717 5 is_stmt 1 view .LVU524
 1832 01aa 174A     		ldr	r2, .L190+4
 1833 01ac 9368     		ldr	r3, [r2, #8]
 1834 01ae 23F46043 		bic	r3, r3, #57344
 1835 01b2 2169     		ldr	r1, [r4, #16]
 1836 01b4 43EAC103 		orr	r3, r3, r1, lsl #3
 1837 01b8 9360     		str	r3, [r2, #8]
 1838              	.L169:
 721:Vendor_HAL/ST/STM32F4xx_HAL_Driver/Src/stm32f4xx_hal_rcc.c **** 
 1839              		.loc 1 721 3 view .LVU525
ARM GAS  C:\Users\katre\AppData\Local\Temp\ccsaao4d.s 			page 54


 721:Vendor_HAL/ST/STM32F4xx_HAL_Driver/Src/stm32f4xx_hal_rcc.c **** 
 1840              		.loc 1 721 21 is_stmt 0 view .LVU526
 1841 01ba FFF7FEFF 		bl	HAL_RCC_GetSysClockFreq
 1842              	.LVL115:
 721:Vendor_HAL/ST/STM32F4xx_HAL_Driver/Src/stm32f4xx_hal_rcc.c **** 
 1843              		.loc 1 721 68 view .LVU527
 1844 01be 124B     		ldr	r3, .L190+4
 1845 01c0 9B68     		ldr	r3, [r3, #8]
 721:Vendor_HAL/ST/STM32F4xx_HAL_Driver/Src/stm32f4xx_hal_rcc.c **** 
 1846              		.loc 1 721 91 view .LVU528
 1847 01c2 C3F30313 		ubfx	r3, r3, #4, #4
 721:Vendor_HAL/ST/STM32F4xx_HAL_Driver/Src/stm32f4xx_hal_rcc.c **** 
 1848              		.loc 1 721 63 view .LVU529
 1849 01c6 124A     		ldr	r2, .L190+12
 1850 01c8 D35C     		ldrb	r3, [r2, r3]	@ zero_extendqisi2
 721:Vendor_HAL/ST/STM32F4xx_HAL_Driver/Src/stm32f4xx_hal_rcc.c **** 
 1851              		.loc 1 721 47 view .LVU530
 1852 01ca D840     		lsrs	r0, r0, r3
 721:Vendor_HAL/ST/STM32F4xx_HAL_Driver/Src/stm32f4xx_hal_rcc.c **** 
 1853              		.loc 1 721 19 view .LVU531
 1854 01cc 114B     		ldr	r3, .L190+16
 1855 01ce 1860     		str	r0, [r3]
 724:Vendor_HAL/ST/STM32F4xx_HAL_Driver/Src/stm32f4xx_hal_rcc.c **** 
 1856              		.loc 1 724 3 is_stmt 1 view .LVU532
 1857 01d0 114B     		ldr	r3, .L190+20
 1858 01d2 1868     		ldr	r0, [r3]
 1859 01d4 FFF7FEFF 		bl	HAL_InitTick
 1860              	.LVL116:
 726:Vendor_HAL/ST/STM32F4xx_HAL_Driver/Src/stm32f4xx_hal_rcc.c **** }
 1861              		.loc 1 726 3 view .LVU533
 726:Vendor_HAL/ST/STM32F4xx_HAL_Driver/Src/stm32f4xx_hal_rcc.c **** }
 1862              		.loc 1 726 10 is_stmt 0 view .LVU534
 1863 01d8 0020     		movs	r0, #0
 1864              	.L151:
 727:Vendor_HAL/ST/STM32F4xx_HAL_Driver/Src/stm32f4xx_hal_rcc.c **** 
 1865              		.loc 1 727 1 view .LVU535
 1866 01da 70BD     		pop	{r4, r5, r6, pc}
 1867              	.LVL117:
 1868              	.L188:
 709:Vendor_HAL/ST/STM32F4xx_HAL_Driver/Src/stm32f4xx_hal_rcc.c ****     MODIFY_REG(RCC->CFGR, RCC_CFGR_PPRE1, RCC_ClkInitStruct->APB1CLKDivider);
 1869              		.loc 1 709 5 discriminator 5 view .LVU536
 1870 01dc 40F2C521 		movw	r1, #709
 1871 01e0 0A48     		ldr	r0, .L190+8
 1872 01e2 FFF7FEFF 		bl	assert_failed
 1873              	.LVL118:
 1874 01e6 C7E7     		b	.L168
 1875              	.L189:
 716:Vendor_HAL/ST/STM32F4xx_HAL_Driver/Src/stm32f4xx_hal_rcc.c ****     MODIFY_REG(RCC->CFGR, RCC_CFGR_PPRE2, ((RCC_ClkInitStruct->APB2CLKDivider) << 3U));
 1876              		.loc 1 716 5 discriminator 5 view .LVU537
 1877 01e8 4FF43371 		mov	r1, #716
 1878 01ec 0748     		ldr	r0, .L190+8
 1879 01ee FFF7FEFF 		bl	assert_failed
 1880              	.LVL119:
 1881 01f2 DAE7     		b	.L170
 1882              	.LVL120:
 1883              	.L171:
 1884              	.LCFI12:
ARM GAS  C:\Users\katre\AppData\Local\Temp\ccsaao4d.s 			page 55


 1885              		.cfi_def_cfa_offset 0
 1886              		.cfi_restore 4
 1887              		.cfi_restore 5
 1888              		.cfi_restore 6
 1889              		.cfi_restore 14
 600:Vendor_HAL/ST/STM32F4xx_HAL_Driver/Src/stm32f4xx_hal_rcc.c ****   }
 1890              		.loc 1 600 12 view .LVU538
 1891 01f4 0120     		movs	r0, #1
 1892              	.LVL121:
 727:Vendor_HAL/ST/STM32F4xx_HAL_Driver/Src/stm32f4xx_hal_rcc.c **** 
 1893              		.loc 1 727 1 view .LVU539
 1894 01f6 7047     		bx	lr
 1895              	.LVL122:
 1896              	.L172:
 1897              	.LCFI13:
 1898              		.cfi_def_cfa_offset 16
 1899              		.cfi_offset 4, -16
 1900              		.cfi_offset 5, -12
 1901              		.cfi_offset 6, -8
 1902              		.cfi_offset 14, -4
 621:Vendor_HAL/ST/STM32F4xx_HAL_Driver/Src/stm32f4xx_hal_rcc.c ****     }
 1903              		.loc 1 621 14 view .LVU540
 1904 01f8 0120     		movs	r0, #1
 1905 01fa EEE7     		b	.L151
 1906              	.L175:
 674:Vendor_HAL/ST/STM32F4xx_HAL_Driver/Src/stm32f4xx_hal_rcc.c ****       }
 1907              		.loc 1 674 16 view .LVU541
 1908 01fc 0120     		movs	r0, #1
 1909 01fe ECE7     		b	.L151
 1910              	.L177:
 702:Vendor_HAL/ST/STM32F4xx_HAL_Driver/Src/stm32f4xx_hal_rcc.c ****     }
 1911              		.loc 1 702 14 view .LVU542
 1912 0200 0120     		movs	r0, #1
 1913 0202 EAE7     		b	.L151
 1914              	.L191:
 1915              		.align	2
 1916              	.L190:
 1917 0204 003C0240 		.word	1073888256
 1918 0208 00380240 		.word	1073887232
 1919 020c 00000000 		.word	.LC0
 1920 0210 00000000 		.word	AHBPrescTable
 1921 0214 00000000 		.word	SystemCoreClock
 1922 0218 00000000 		.word	uwTickPrio
 1923              		.cfi_endproc
 1924              	.LFE132:
 1926              		.section	.text.HAL_RCC_GetHCLKFreq,"ax",%progbits
 1927              		.align	1
 1928              		.global	HAL_RCC_GetHCLKFreq
 1929              		.syntax unified
 1930              		.thumb
 1931              		.thumb_func
 1933              	HAL_RCC_GetHCLKFreq:
 1934              	.LFB137:
 933:Vendor_HAL/ST/STM32F4xx_HAL_Driver/Src/stm32f4xx_hal_rcc.c **** 
 934:Vendor_HAL/ST/STM32F4xx_HAL_Driver/Src/stm32f4xx_hal_rcc.c **** /**
 935:Vendor_HAL/ST/STM32F4xx_HAL_Driver/Src/stm32f4xx_hal_rcc.c ****   * @brief  Returns the HCLK frequency
 936:Vendor_HAL/ST/STM32F4xx_HAL_Driver/Src/stm32f4xx_hal_rcc.c ****   * @note   Each time HCLK changes, this function must be called to update the
ARM GAS  C:\Users\katre\AppData\Local\Temp\ccsaao4d.s 			page 56


 937:Vendor_HAL/ST/STM32F4xx_HAL_Driver/Src/stm32f4xx_hal_rcc.c ****   *         right HCLK value. Otherwise, any configuration based on this function will be incorrect
 938:Vendor_HAL/ST/STM32F4xx_HAL_Driver/Src/stm32f4xx_hal_rcc.c ****   *
 939:Vendor_HAL/ST/STM32F4xx_HAL_Driver/Src/stm32f4xx_hal_rcc.c ****   * @note   The SystemCoreClock CMSIS variable is used to store System Clock Frequency
 940:Vendor_HAL/ST/STM32F4xx_HAL_Driver/Src/stm32f4xx_hal_rcc.c ****   *         and updated within this function
 941:Vendor_HAL/ST/STM32F4xx_HAL_Driver/Src/stm32f4xx_hal_rcc.c ****   * @retval HCLK frequency
 942:Vendor_HAL/ST/STM32F4xx_HAL_Driver/Src/stm32f4xx_hal_rcc.c ****   */
 943:Vendor_HAL/ST/STM32F4xx_HAL_Driver/Src/stm32f4xx_hal_rcc.c **** uint32_t HAL_RCC_GetHCLKFreq(void)
 944:Vendor_HAL/ST/STM32F4xx_HAL_Driver/Src/stm32f4xx_hal_rcc.c **** {
 1935              		.loc 1 944 1 is_stmt 1 view -0
 1936              		.cfi_startproc
 1937              		@ args = 0, pretend = 0, frame = 0
 1938              		@ frame_needed = 0, uses_anonymous_args = 0
 1939              		@ link register save eliminated.
 945:Vendor_HAL/ST/STM32F4xx_HAL_Driver/Src/stm32f4xx_hal_rcc.c ****   return SystemCoreClock;
 1940              		.loc 1 945 3 view .LVU544
 946:Vendor_HAL/ST/STM32F4xx_HAL_Driver/Src/stm32f4xx_hal_rcc.c **** }
 1941              		.loc 1 946 1 is_stmt 0 view .LVU545
 1942 0000 014B     		ldr	r3, .L193
 1943 0002 1868     		ldr	r0, [r3]
 1944 0004 7047     		bx	lr
 1945              	.L194:
 1946 0006 00BF     		.align	2
 1947              	.L193:
 1948 0008 00000000 		.word	SystemCoreClock
 1949              		.cfi_endproc
 1950              	.LFE137:
 1952              		.section	.text.HAL_RCC_GetPCLK1Freq,"ax",%progbits
 1953              		.align	1
 1954              		.global	HAL_RCC_GetPCLK1Freq
 1955              		.syntax unified
 1956              		.thumb
 1957              		.thumb_func
 1959              	HAL_RCC_GetPCLK1Freq:
 1960              	.LFB138:
 947:Vendor_HAL/ST/STM32F4xx_HAL_Driver/Src/stm32f4xx_hal_rcc.c **** 
 948:Vendor_HAL/ST/STM32F4xx_HAL_Driver/Src/stm32f4xx_hal_rcc.c **** /**
 949:Vendor_HAL/ST/STM32F4xx_HAL_Driver/Src/stm32f4xx_hal_rcc.c ****   * @brief  Returns the PCLK1 frequency
 950:Vendor_HAL/ST/STM32F4xx_HAL_Driver/Src/stm32f4xx_hal_rcc.c ****   * @note   Each time PCLK1 changes, this function must be called to update the
 951:Vendor_HAL/ST/STM32F4xx_HAL_Driver/Src/stm32f4xx_hal_rcc.c ****   *         right PCLK1 value. Otherwise, any configuration based on this function will be incorrec
 952:Vendor_HAL/ST/STM32F4xx_HAL_Driver/Src/stm32f4xx_hal_rcc.c ****   * @retval PCLK1 frequency
 953:Vendor_HAL/ST/STM32F4xx_HAL_Driver/Src/stm32f4xx_hal_rcc.c ****   */
 954:Vendor_HAL/ST/STM32F4xx_HAL_Driver/Src/stm32f4xx_hal_rcc.c **** uint32_t HAL_RCC_GetPCLK1Freq(void)
 955:Vendor_HAL/ST/STM32F4xx_HAL_Driver/Src/stm32f4xx_hal_rcc.c **** {
 1961              		.loc 1 955 1 is_stmt 1 view -0
 1962              		.cfi_startproc
 1963              		@ args = 0, pretend = 0, frame = 0
 1964              		@ frame_needed = 0, uses_anonymous_args = 0
 1965 0000 08B5     		push	{r3, lr}
 1966              	.LCFI14:
 1967              		.cfi_def_cfa_offset 8
 1968              		.cfi_offset 3, -8
 1969              		.cfi_offset 14, -4
 956:Vendor_HAL/ST/STM32F4xx_HAL_Driver/Src/stm32f4xx_hal_rcc.c ****   /* Get HCLK source and Compute PCLK1 frequency ---------------------------*/
 957:Vendor_HAL/ST/STM32F4xx_HAL_Driver/Src/stm32f4xx_hal_rcc.c ****   return (HAL_RCC_GetHCLKFreq() >> APBPrescTable[(RCC->CFGR & RCC_CFGR_PPRE1)>> RCC_CFGR_PPRE1_Pos]
 1970              		.loc 1 957 3 view .LVU547
 1971              		.loc 1 957 11 is_stmt 0 view .LVU548
 1972 0002 FFF7FEFF 		bl	HAL_RCC_GetHCLKFreq
ARM GAS  C:\Users\katre\AppData\Local\Temp\ccsaao4d.s 			page 57


 1973              	.LVL123:
 1974              		.loc 1 957 54 view .LVU549
 1975 0006 044B     		ldr	r3, .L197
 1976 0008 9B68     		ldr	r3, [r3, #8]
 1977              		.loc 1 957 78 view .LVU550
 1978 000a C3F38223 		ubfx	r3, r3, #10, #3
 1979              		.loc 1 957 49 view .LVU551
 1980 000e 034A     		ldr	r2, .L197+4
 1981 0010 D35C     		ldrb	r3, [r2, r3]	@ zero_extendqisi2
 958:Vendor_HAL/ST/STM32F4xx_HAL_Driver/Src/stm32f4xx_hal_rcc.c **** }
 1982              		.loc 1 958 1 view .LVU552
 1983 0012 D840     		lsrs	r0, r0, r3
 1984 0014 08BD     		pop	{r3, pc}
 1985              	.L198:
 1986 0016 00BF     		.align	2
 1987              	.L197:
 1988 0018 00380240 		.word	1073887232
 1989 001c 00000000 		.word	APBPrescTable
 1990              		.cfi_endproc
 1991              	.LFE138:
 1993              		.section	.text.HAL_RCC_GetPCLK2Freq,"ax",%progbits
 1994              		.align	1
 1995              		.global	HAL_RCC_GetPCLK2Freq
 1996              		.syntax unified
 1997              		.thumb
 1998              		.thumb_func
 2000              	HAL_RCC_GetPCLK2Freq:
 2001              	.LFB139:
 959:Vendor_HAL/ST/STM32F4xx_HAL_Driver/Src/stm32f4xx_hal_rcc.c **** 
 960:Vendor_HAL/ST/STM32F4xx_HAL_Driver/Src/stm32f4xx_hal_rcc.c **** /**
 961:Vendor_HAL/ST/STM32F4xx_HAL_Driver/Src/stm32f4xx_hal_rcc.c ****   * @brief  Returns the PCLK2 frequency
 962:Vendor_HAL/ST/STM32F4xx_HAL_Driver/Src/stm32f4xx_hal_rcc.c ****   * @note   Each time PCLK2 changes, this function must be called to update the
 963:Vendor_HAL/ST/STM32F4xx_HAL_Driver/Src/stm32f4xx_hal_rcc.c ****   *         right PCLK2 value. Otherwise, any configuration based on this function will be incorrec
 964:Vendor_HAL/ST/STM32F4xx_HAL_Driver/Src/stm32f4xx_hal_rcc.c ****   * @retval PCLK2 frequency
 965:Vendor_HAL/ST/STM32F4xx_HAL_Driver/Src/stm32f4xx_hal_rcc.c ****   */
 966:Vendor_HAL/ST/STM32F4xx_HAL_Driver/Src/stm32f4xx_hal_rcc.c **** uint32_t HAL_RCC_GetPCLK2Freq(void)
 967:Vendor_HAL/ST/STM32F4xx_HAL_Driver/Src/stm32f4xx_hal_rcc.c **** {
 2002              		.loc 1 967 1 is_stmt 1 view -0
 2003              		.cfi_startproc
 2004              		@ args = 0, pretend = 0, frame = 0
 2005              		@ frame_needed = 0, uses_anonymous_args = 0
 2006 0000 08B5     		push	{r3, lr}
 2007              	.LCFI15:
 2008              		.cfi_def_cfa_offset 8
 2009              		.cfi_offset 3, -8
 2010              		.cfi_offset 14, -4
 968:Vendor_HAL/ST/STM32F4xx_HAL_Driver/Src/stm32f4xx_hal_rcc.c ****   /* Get HCLK source and Compute PCLK2 frequency ---------------------------*/
 969:Vendor_HAL/ST/STM32F4xx_HAL_Driver/Src/stm32f4xx_hal_rcc.c ****   return (HAL_RCC_GetHCLKFreq()>> APBPrescTable[(RCC->CFGR & RCC_CFGR_PPRE2)>> RCC_CFGR_PPRE2_Pos])
 2011              		.loc 1 969 3 view .LVU554
 2012              		.loc 1 969 11 is_stmt 0 view .LVU555
 2013 0002 FFF7FEFF 		bl	HAL_RCC_GetHCLKFreq
 2014              	.LVL124:
 2015              		.loc 1 969 53 view .LVU556
 2016 0006 044B     		ldr	r3, .L201
 2017 0008 9B68     		ldr	r3, [r3, #8]
 2018              		.loc 1 969 77 view .LVU557
 2019 000a C3F34233 		ubfx	r3, r3, #13, #3
ARM GAS  C:\Users\katre\AppData\Local\Temp\ccsaao4d.s 			page 58


 2020              		.loc 1 969 48 view .LVU558
 2021 000e 034A     		ldr	r2, .L201+4
 2022 0010 D35C     		ldrb	r3, [r2, r3]	@ zero_extendqisi2
 970:Vendor_HAL/ST/STM32F4xx_HAL_Driver/Src/stm32f4xx_hal_rcc.c **** }
 2023              		.loc 1 970 1 view .LVU559
 2024 0012 D840     		lsrs	r0, r0, r3
 2025 0014 08BD     		pop	{r3, pc}
 2026              	.L202:
 2027 0016 00BF     		.align	2
 2028              	.L201:
 2029 0018 00380240 		.word	1073887232
 2030 001c 00000000 		.word	APBPrescTable
 2031              		.cfi_endproc
 2032              	.LFE139:
 2034              		.section	.text.HAL_RCC_GetOscConfig,"ax",%progbits
 2035              		.align	1
 2036              		.weak	HAL_RCC_GetOscConfig
 2037              		.syntax unified
 2038              		.thumb
 2039              		.thumb_func
 2041              	HAL_RCC_GetOscConfig:
 2042              	.LVL125:
 2043              	.LFB140:
 971:Vendor_HAL/ST/STM32F4xx_HAL_Driver/Src/stm32f4xx_hal_rcc.c **** 
 972:Vendor_HAL/ST/STM32F4xx_HAL_Driver/Src/stm32f4xx_hal_rcc.c **** /**
 973:Vendor_HAL/ST/STM32F4xx_HAL_Driver/Src/stm32f4xx_hal_rcc.c ****   * @brief  Configures the RCC_OscInitStruct according to the internal
 974:Vendor_HAL/ST/STM32F4xx_HAL_Driver/Src/stm32f4xx_hal_rcc.c ****   * RCC configuration registers.
 975:Vendor_HAL/ST/STM32F4xx_HAL_Driver/Src/stm32f4xx_hal_rcc.c ****   * @param  RCC_OscInitStruct pointer to an RCC_OscInitTypeDef structure that
 976:Vendor_HAL/ST/STM32F4xx_HAL_Driver/Src/stm32f4xx_hal_rcc.c ****   * will be configured.
 977:Vendor_HAL/ST/STM32F4xx_HAL_Driver/Src/stm32f4xx_hal_rcc.c ****   * @retval None
 978:Vendor_HAL/ST/STM32F4xx_HAL_Driver/Src/stm32f4xx_hal_rcc.c ****   */
 979:Vendor_HAL/ST/STM32F4xx_HAL_Driver/Src/stm32f4xx_hal_rcc.c **** __weak void HAL_RCC_GetOscConfig(RCC_OscInitTypeDef  *RCC_OscInitStruct)
 980:Vendor_HAL/ST/STM32F4xx_HAL_Driver/Src/stm32f4xx_hal_rcc.c **** {
 2044              		.loc 1 980 1 is_stmt 1 view -0
 2045              		.cfi_startproc
 2046              		@ args = 0, pretend = 0, frame = 0
 2047              		@ frame_needed = 0, uses_anonymous_args = 0
 2048              		@ link register save eliminated.
 981:Vendor_HAL/ST/STM32F4xx_HAL_Driver/Src/stm32f4xx_hal_rcc.c ****   /* Set all possible values for the Oscillator type parameter ---------------*/
 982:Vendor_HAL/ST/STM32F4xx_HAL_Driver/Src/stm32f4xx_hal_rcc.c ****   RCC_OscInitStruct->OscillatorType = RCC_OSCILLATORTYPE_HSE | RCC_OSCILLATORTYPE_HSI | RCC_OSCILLA
 2049              		.loc 1 982 3 view .LVU561
 2050              		.loc 1 982 37 is_stmt 0 view .LVU562
 2051 0000 0F23     		movs	r3, #15
 2052 0002 0360     		str	r3, [r0]
 983:Vendor_HAL/ST/STM32F4xx_HAL_Driver/Src/stm32f4xx_hal_rcc.c **** 
 984:Vendor_HAL/ST/STM32F4xx_HAL_Driver/Src/stm32f4xx_hal_rcc.c ****   /* Get the HSE configuration -----------------------------------------------*/
 985:Vendor_HAL/ST/STM32F4xx_HAL_Driver/Src/stm32f4xx_hal_rcc.c ****   if((RCC->CR &RCC_CR_HSEBYP) == RCC_CR_HSEBYP)
 2053              		.loc 1 985 3 is_stmt 1 view .LVU563
 2054              		.loc 1 985 10 is_stmt 0 view .LVU564
 2055 0004 304B     		ldr	r3, .L216
 2056 0006 1B68     		ldr	r3, [r3]
 2057              		.loc 1 985 5 view .LVU565
 2058 0008 13F4802F 		tst	r3, #262144
 2059 000c 3BD0     		beq	.L204
 986:Vendor_HAL/ST/STM32F4xx_HAL_Driver/Src/stm32f4xx_hal_rcc.c ****   {
 987:Vendor_HAL/ST/STM32F4xx_HAL_Driver/Src/stm32f4xx_hal_rcc.c ****     RCC_OscInitStruct->HSEState = RCC_HSE_BYPASS;
 2060              		.loc 1 987 5 is_stmt 1 view .LVU566
ARM GAS  C:\Users\katre\AppData\Local\Temp\ccsaao4d.s 			page 59


 2061              		.loc 1 987 33 is_stmt 0 view .LVU567
 2062 000e 4FF4A023 		mov	r3, #327680
 2063 0012 4360     		str	r3, [r0, #4]
 2064              	.L205:
 988:Vendor_HAL/ST/STM32F4xx_HAL_Driver/Src/stm32f4xx_hal_rcc.c ****   }
 989:Vendor_HAL/ST/STM32F4xx_HAL_Driver/Src/stm32f4xx_hal_rcc.c ****   else if((RCC->CR &RCC_CR_HSEON) == RCC_CR_HSEON)
 990:Vendor_HAL/ST/STM32F4xx_HAL_Driver/Src/stm32f4xx_hal_rcc.c ****   {
 991:Vendor_HAL/ST/STM32F4xx_HAL_Driver/Src/stm32f4xx_hal_rcc.c ****     RCC_OscInitStruct->HSEState = RCC_HSE_ON;
 992:Vendor_HAL/ST/STM32F4xx_HAL_Driver/Src/stm32f4xx_hal_rcc.c ****   }
 993:Vendor_HAL/ST/STM32F4xx_HAL_Driver/Src/stm32f4xx_hal_rcc.c ****   else
 994:Vendor_HAL/ST/STM32F4xx_HAL_Driver/Src/stm32f4xx_hal_rcc.c ****   {
 995:Vendor_HAL/ST/STM32F4xx_HAL_Driver/Src/stm32f4xx_hal_rcc.c ****     RCC_OscInitStruct->HSEState = RCC_HSE_OFF;
 996:Vendor_HAL/ST/STM32F4xx_HAL_Driver/Src/stm32f4xx_hal_rcc.c ****   }
 997:Vendor_HAL/ST/STM32F4xx_HAL_Driver/Src/stm32f4xx_hal_rcc.c **** 
 998:Vendor_HAL/ST/STM32F4xx_HAL_Driver/Src/stm32f4xx_hal_rcc.c ****   /* Get the HSI configuration -----------------------------------------------*/
 999:Vendor_HAL/ST/STM32F4xx_HAL_Driver/Src/stm32f4xx_hal_rcc.c ****   if((RCC->CR &RCC_CR_HSION) == RCC_CR_HSION)
 2065              		.loc 1 999 3 is_stmt 1 view .LVU568
 2066              		.loc 1 999 10 is_stmt 0 view .LVU569
 2067 0014 2C4B     		ldr	r3, .L216
 2068 0016 1B68     		ldr	r3, [r3]
 2069              		.loc 1 999 5 view .LVU570
 2070 0018 13F0010F 		tst	r3, #1
 2071 001c 3FD0     		beq	.L207
1000:Vendor_HAL/ST/STM32F4xx_HAL_Driver/Src/stm32f4xx_hal_rcc.c ****   {
1001:Vendor_HAL/ST/STM32F4xx_HAL_Driver/Src/stm32f4xx_hal_rcc.c ****     RCC_OscInitStruct->HSIState = RCC_HSI_ON;
 2072              		.loc 1 1001 5 is_stmt 1 view .LVU571
 2073              		.loc 1 1001 33 is_stmt 0 view .LVU572
 2074 001e 0123     		movs	r3, #1
 2075 0020 C360     		str	r3, [r0, #12]
 2076              	.L208:
1002:Vendor_HAL/ST/STM32F4xx_HAL_Driver/Src/stm32f4xx_hal_rcc.c ****   }
1003:Vendor_HAL/ST/STM32F4xx_HAL_Driver/Src/stm32f4xx_hal_rcc.c ****   else
1004:Vendor_HAL/ST/STM32F4xx_HAL_Driver/Src/stm32f4xx_hal_rcc.c ****   {
1005:Vendor_HAL/ST/STM32F4xx_HAL_Driver/Src/stm32f4xx_hal_rcc.c ****     RCC_OscInitStruct->HSIState = RCC_HSI_OFF;
1006:Vendor_HAL/ST/STM32F4xx_HAL_Driver/Src/stm32f4xx_hal_rcc.c ****   }
1007:Vendor_HAL/ST/STM32F4xx_HAL_Driver/Src/stm32f4xx_hal_rcc.c **** 
1008:Vendor_HAL/ST/STM32F4xx_HAL_Driver/Src/stm32f4xx_hal_rcc.c ****   RCC_OscInitStruct->HSICalibrationValue = (uint32_t)((RCC->CR &RCC_CR_HSITRIM) >> RCC_CR_HSITRIM_P
 2077              		.loc 1 1008 3 is_stmt 1 view .LVU573
 2078              		.loc 1 1008 59 is_stmt 0 view .LVU574
 2079 0022 294A     		ldr	r2, .L216
 2080 0024 1368     		ldr	r3, [r2]
 2081              		.loc 1 1008 44 view .LVU575
 2082 0026 C3F3C403 		ubfx	r3, r3, #3, #5
 2083              		.loc 1 1008 42 view .LVU576
 2084 002a 0361     		str	r3, [r0, #16]
1009:Vendor_HAL/ST/STM32F4xx_HAL_Driver/Src/stm32f4xx_hal_rcc.c **** 
1010:Vendor_HAL/ST/STM32F4xx_HAL_Driver/Src/stm32f4xx_hal_rcc.c ****   /* Get the LSE configuration -----------------------------------------------*/
1011:Vendor_HAL/ST/STM32F4xx_HAL_Driver/Src/stm32f4xx_hal_rcc.c ****   if((RCC->BDCR &RCC_BDCR_LSEBYP) == RCC_BDCR_LSEBYP)
 2085              		.loc 1 1011 3 is_stmt 1 view .LVU577
 2086              		.loc 1 1011 10 is_stmt 0 view .LVU578
 2087 002c 136F     		ldr	r3, [r2, #112]
 2088              		.loc 1 1011 5 view .LVU579
 2089 002e 13F0040F 		tst	r3, #4
 2090 0032 37D0     		beq	.L209
1012:Vendor_HAL/ST/STM32F4xx_HAL_Driver/Src/stm32f4xx_hal_rcc.c ****   {
1013:Vendor_HAL/ST/STM32F4xx_HAL_Driver/Src/stm32f4xx_hal_rcc.c ****     RCC_OscInitStruct->LSEState = RCC_LSE_BYPASS;
 2091              		.loc 1 1013 5 is_stmt 1 view .LVU580
ARM GAS  C:\Users\katre\AppData\Local\Temp\ccsaao4d.s 			page 60


 2092              		.loc 1 1013 33 is_stmt 0 view .LVU581
 2093 0034 0523     		movs	r3, #5
 2094 0036 8360     		str	r3, [r0, #8]
 2095              	.L210:
1014:Vendor_HAL/ST/STM32F4xx_HAL_Driver/Src/stm32f4xx_hal_rcc.c ****   }
1015:Vendor_HAL/ST/STM32F4xx_HAL_Driver/Src/stm32f4xx_hal_rcc.c ****   else if((RCC->BDCR &RCC_BDCR_LSEON) == RCC_BDCR_LSEON)
1016:Vendor_HAL/ST/STM32F4xx_HAL_Driver/Src/stm32f4xx_hal_rcc.c ****   {
1017:Vendor_HAL/ST/STM32F4xx_HAL_Driver/Src/stm32f4xx_hal_rcc.c ****     RCC_OscInitStruct->LSEState = RCC_LSE_ON;
1018:Vendor_HAL/ST/STM32F4xx_HAL_Driver/Src/stm32f4xx_hal_rcc.c ****   }
1019:Vendor_HAL/ST/STM32F4xx_HAL_Driver/Src/stm32f4xx_hal_rcc.c ****   else
1020:Vendor_HAL/ST/STM32F4xx_HAL_Driver/Src/stm32f4xx_hal_rcc.c ****   {
1021:Vendor_HAL/ST/STM32F4xx_HAL_Driver/Src/stm32f4xx_hal_rcc.c ****     RCC_OscInitStruct->LSEState = RCC_LSE_OFF;
1022:Vendor_HAL/ST/STM32F4xx_HAL_Driver/Src/stm32f4xx_hal_rcc.c ****   }
1023:Vendor_HAL/ST/STM32F4xx_HAL_Driver/Src/stm32f4xx_hal_rcc.c **** 
1024:Vendor_HAL/ST/STM32F4xx_HAL_Driver/Src/stm32f4xx_hal_rcc.c ****   /* Get the LSI configuration -----------------------------------------------*/
1025:Vendor_HAL/ST/STM32F4xx_HAL_Driver/Src/stm32f4xx_hal_rcc.c ****   if((RCC->CSR &RCC_CSR_LSION) == RCC_CSR_LSION)
 2096              		.loc 1 1025 3 is_stmt 1 view .LVU582
 2097              		.loc 1 1025 10 is_stmt 0 view .LVU583
 2098 0038 234B     		ldr	r3, .L216
 2099 003a 5B6F     		ldr	r3, [r3, #116]
 2100              		.loc 1 1025 5 view .LVU584
 2101 003c 13F0010F 		tst	r3, #1
 2102 0040 3BD0     		beq	.L212
1026:Vendor_HAL/ST/STM32F4xx_HAL_Driver/Src/stm32f4xx_hal_rcc.c ****   {
1027:Vendor_HAL/ST/STM32F4xx_HAL_Driver/Src/stm32f4xx_hal_rcc.c ****     RCC_OscInitStruct->LSIState = RCC_LSI_ON;
 2103              		.loc 1 1027 5 is_stmt 1 view .LVU585
 2104              		.loc 1 1027 33 is_stmt 0 view .LVU586
 2105 0042 0123     		movs	r3, #1
 2106 0044 4361     		str	r3, [r0, #20]
 2107              	.L213:
1028:Vendor_HAL/ST/STM32F4xx_HAL_Driver/Src/stm32f4xx_hal_rcc.c ****   }
1029:Vendor_HAL/ST/STM32F4xx_HAL_Driver/Src/stm32f4xx_hal_rcc.c ****   else
1030:Vendor_HAL/ST/STM32F4xx_HAL_Driver/Src/stm32f4xx_hal_rcc.c ****   {
1031:Vendor_HAL/ST/STM32F4xx_HAL_Driver/Src/stm32f4xx_hal_rcc.c ****     RCC_OscInitStruct->LSIState = RCC_LSI_OFF;
1032:Vendor_HAL/ST/STM32F4xx_HAL_Driver/Src/stm32f4xx_hal_rcc.c ****   }
1033:Vendor_HAL/ST/STM32F4xx_HAL_Driver/Src/stm32f4xx_hal_rcc.c **** 
1034:Vendor_HAL/ST/STM32F4xx_HAL_Driver/Src/stm32f4xx_hal_rcc.c ****   /* Get the PLL configuration -----------------------------------------------*/
1035:Vendor_HAL/ST/STM32F4xx_HAL_Driver/Src/stm32f4xx_hal_rcc.c ****   if((RCC->CR &RCC_CR_PLLON) == RCC_CR_PLLON)
 2108              		.loc 1 1035 3 is_stmt 1 view .LVU587
 2109              		.loc 1 1035 10 is_stmt 0 view .LVU588
 2110 0046 204B     		ldr	r3, .L216
 2111 0048 1B68     		ldr	r3, [r3]
 2112              		.loc 1 1035 5 view .LVU589
 2113 004a 13F0807F 		tst	r3, #16777216
 2114 004e 37D0     		beq	.L214
1036:Vendor_HAL/ST/STM32F4xx_HAL_Driver/Src/stm32f4xx_hal_rcc.c ****   {
1037:Vendor_HAL/ST/STM32F4xx_HAL_Driver/Src/stm32f4xx_hal_rcc.c ****     RCC_OscInitStruct->PLL.PLLState = RCC_PLL_ON;
 2115              		.loc 1 1037 5 is_stmt 1 view .LVU590
 2116              		.loc 1 1037 37 is_stmt 0 view .LVU591
 2117 0050 0223     		movs	r3, #2
 2118 0052 8361     		str	r3, [r0, #24]
 2119              	.L215:
1038:Vendor_HAL/ST/STM32F4xx_HAL_Driver/Src/stm32f4xx_hal_rcc.c ****   }
1039:Vendor_HAL/ST/STM32F4xx_HAL_Driver/Src/stm32f4xx_hal_rcc.c ****   else
1040:Vendor_HAL/ST/STM32F4xx_HAL_Driver/Src/stm32f4xx_hal_rcc.c ****   {
1041:Vendor_HAL/ST/STM32F4xx_HAL_Driver/Src/stm32f4xx_hal_rcc.c ****     RCC_OscInitStruct->PLL.PLLState = RCC_PLL_OFF;
1042:Vendor_HAL/ST/STM32F4xx_HAL_Driver/Src/stm32f4xx_hal_rcc.c ****   }
ARM GAS  C:\Users\katre\AppData\Local\Temp\ccsaao4d.s 			page 61


1043:Vendor_HAL/ST/STM32F4xx_HAL_Driver/Src/stm32f4xx_hal_rcc.c ****   RCC_OscInitStruct->PLL.PLLSource = (uint32_t)(RCC->PLLCFGR & RCC_PLLCFGR_PLLSRC);
 2120              		.loc 1 1043 3 is_stmt 1 view .LVU592
 2121              		.loc 1 1043 52 is_stmt 0 view .LVU593
 2122 0054 1C4A     		ldr	r2, .L216
 2123 0056 5368     		ldr	r3, [r2, #4]
 2124              		.loc 1 1043 38 view .LVU594
 2125 0058 03F48003 		and	r3, r3, #4194304
 2126              		.loc 1 1043 36 view .LVU595
 2127 005c C361     		str	r3, [r0, #28]
1044:Vendor_HAL/ST/STM32F4xx_HAL_Driver/Src/stm32f4xx_hal_rcc.c ****   RCC_OscInitStruct->PLL.PLLM = (uint32_t)(RCC->PLLCFGR & RCC_PLLCFGR_PLLM);
 2128              		.loc 1 1044 3 is_stmt 1 view .LVU596
 2129              		.loc 1 1044 47 is_stmt 0 view .LVU597
 2130 005e 5368     		ldr	r3, [r2, #4]
 2131              		.loc 1 1044 33 view .LVU598
 2132 0060 03F03F03 		and	r3, r3, #63
 2133              		.loc 1 1044 31 view .LVU599
 2134 0064 0362     		str	r3, [r0, #32]
1045:Vendor_HAL/ST/STM32F4xx_HAL_Driver/Src/stm32f4xx_hal_rcc.c ****   RCC_OscInitStruct->PLL.PLLN = (uint32_t)((RCC->PLLCFGR & RCC_PLLCFGR_PLLN) >> RCC_PLLCFGR_PLLN_Po
 2135              		.loc 1 1045 3 is_stmt 1 view .LVU600
 2136              		.loc 1 1045 48 is_stmt 0 view .LVU601
 2137 0066 5368     		ldr	r3, [r2, #4]
 2138              		.loc 1 1045 33 view .LVU602
 2139 0068 C3F38813 		ubfx	r3, r3, #6, #9
 2140              		.loc 1 1045 31 view .LVU603
 2141 006c 4362     		str	r3, [r0, #36]
1046:Vendor_HAL/ST/STM32F4xx_HAL_Driver/Src/stm32f4xx_hal_rcc.c ****   RCC_OscInitStruct->PLL.PLLP = (uint32_t)((((RCC->PLLCFGR & RCC_PLLCFGR_PLLP) + RCC_PLLCFGR_PLLP_0
 2142              		.loc 1 1046 3 is_stmt 1 view .LVU604
 2143              		.loc 1 1046 50 is_stmt 0 view .LVU605
 2144 006e 5368     		ldr	r3, [r2, #4]
 2145              		.loc 1 1046 60 view .LVU606
 2146 0070 03F44033 		and	r3, r3, #196608
 2147              		.loc 1 1046 80 view .LVU607
 2148 0074 03F58033 		add	r3, r3, #65536
 2149              		.loc 1 1046 33 view .LVU608
 2150 0078 DB0B     		lsrs	r3, r3, #15
 2151              		.loc 1 1046 31 view .LVU609
 2152 007a 8362     		str	r3, [r0, #40]
1047:Vendor_HAL/ST/STM32F4xx_HAL_Driver/Src/stm32f4xx_hal_rcc.c ****   RCC_OscInitStruct->PLL.PLLQ = (uint32_t)((RCC->PLLCFGR & RCC_PLLCFGR_PLLQ) >> RCC_PLLCFGR_PLLQ_Po
 2153              		.loc 1 1047 3 is_stmt 1 view .LVU610
 2154              		.loc 1 1047 48 is_stmt 0 view .LVU611
 2155 007c 5368     		ldr	r3, [r2, #4]
 2156              		.loc 1 1047 33 view .LVU612
 2157 007e C3F30363 		ubfx	r3, r3, #24, #4
 2158              		.loc 1 1047 31 view .LVU613
 2159 0082 C362     		str	r3, [r0, #44]
1048:Vendor_HAL/ST/STM32F4xx_HAL_Driver/Src/stm32f4xx_hal_rcc.c **** }
 2160              		.loc 1 1048 1 view .LVU614
 2161 0084 7047     		bx	lr
 2162              	.L204:
 989:Vendor_HAL/ST/STM32F4xx_HAL_Driver/Src/stm32f4xx_hal_rcc.c ****   {
 2163              		.loc 1 989 8 is_stmt 1 view .LVU615
 989:Vendor_HAL/ST/STM32F4xx_HAL_Driver/Src/stm32f4xx_hal_rcc.c ****   {
 2164              		.loc 1 989 15 is_stmt 0 view .LVU616
 2165 0086 104B     		ldr	r3, .L216
 2166 0088 1B68     		ldr	r3, [r3]
 989:Vendor_HAL/ST/STM32F4xx_HAL_Driver/Src/stm32f4xx_hal_rcc.c ****   {
 2167              		.loc 1 989 10 view .LVU617
ARM GAS  C:\Users\katre\AppData\Local\Temp\ccsaao4d.s 			page 62


 2168 008a 13F4803F 		tst	r3, #65536
 2169 008e 03D0     		beq	.L206
 991:Vendor_HAL/ST/STM32F4xx_HAL_Driver/Src/stm32f4xx_hal_rcc.c ****   }
 2170              		.loc 1 991 5 is_stmt 1 view .LVU618
 991:Vendor_HAL/ST/STM32F4xx_HAL_Driver/Src/stm32f4xx_hal_rcc.c ****   }
 2171              		.loc 1 991 33 is_stmt 0 view .LVU619
 2172 0090 4FF48033 		mov	r3, #65536
 2173 0094 4360     		str	r3, [r0, #4]
 2174 0096 BDE7     		b	.L205
 2175              	.L206:
 995:Vendor_HAL/ST/STM32F4xx_HAL_Driver/Src/stm32f4xx_hal_rcc.c ****   }
 2176              		.loc 1 995 5 is_stmt 1 view .LVU620
 995:Vendor_HAL/ST/STM32F4xx_HAL_Driver/Src/stm32f4xx_hal_rcc.c ****   }
 2177              		.loc 1 995 33 is_stmt 0 view .LVU621
 2178 0098 0023     		movs	r3, #0
 2179 009a 4360     		str	r3, [r0, #4]
 2180 009c BAE7     		b	.L205
 2181              	.L207:
1005:Vendor_HAL/ST/STM32F4xx_HAL_Driver/Src/stm32f4xx_hal_rcc.c ****   }
 2182              		.loc 1 1005 5 is_stmt 1 view .LVU622
1005:Vendor_HAL/ST/STM32F4xx_HAL_Driver/Src/stm32f4xx_hal_rcc.c ****   }
 2183              		.loc 1 1005 33 is_stmt 0 view .LVU623
 2184 009e 0023     		movs	r3, #0
 2185 00a0 C360     		str	r3, [r0, #12]
 2186 00a2 BEE7     		b	.L208
 2187              	.L209:
1015:Vendor_HAL/ST/STM32F4xx_HAL_Driver/Src/stm32f4xx_hal_rcc.c ****   {
 2188              		.loc 1 1015 8 is_stmt 1 view .LVU624
1015:Vendor_HAL/ST/STM32F4xx_HAL_Driver/Src/stm32f4xx_hal_rcc.c ****   {
 2189              		.loc 1 1015 15 is_stmt 0 view .LVU625
 2190 00a4 084B     		ldr	r3, .L216
 2191 00a6 1B6F     		ldr	r3, [r3, #112]
1015:Vendor_HAL/ST/STM32F4xx_HAL_Driver/Src/stm32f4xx_hal_rcc.c ****   {
 2192              		.loc 1 1015 10 view .LVU626
 2193 00a8 13F0010F 		tst	r3, #1
 2194 00ac 02D0     		beq	.L211
1017:Vendor_HAL/ST/STM32F4xx_HAL_Driver/Src/stm32f4xx_hal_rcc.c ****   }
 2195              		.loc 1 1017 5 is_stmt 1 view .LVU627
1017:Vendor_HAL/ST/STM32F4xx_HAL_Driver/Src/stm32f4xx_hal_rcc.c ****   }
 2196              		.loc 1 1017 33 is_stmt 0 view .LVU628
 2197 00ae 0123     		movs	r3, #1
 2198 00b0 8360     		str	r3, [r0, #8]
 2199 00b2 C1E7     		b	.L210
 2200              	.L211:
1021:Vendor_HAL/ST/STM32F4xx_HAL_Driver/Src/stm32f4xx_hal_rcc.c ****   }
 2201              		.loc 1 1021 5 is_stmt 1 view .LVU629
1021:Vendor_HAL/ST/STM32F4xx_HAL_Driver/Src/stm32f4xx_hal_rcc.c ****   }
 2202              		.loc 1 1021 33 is_stmt 0 view .LVU630
 2203 00b4 0023     		movs	r3, #0
 2204 00b6 8360     		str	r3, [r0, #8]
 2205 00b8 BEE7     		b	.L210
 2206              	.L212:
1031:Vendor_HAL/ST/STM32F4xx_HAL_Driver/Src/stm32f4xx_hal_rcc.c ****   }
 2207              		.loc 1 1031 5 is_stmt 1 view .LVU631
1031:Vendor_HAL/ST/STM32F4xx_HAL_Driver/Src/stm32f4xx_hal_rcc.c ****   }
 2208              		.loc 1 1031 33 is_stmt 0 view .LVU632
 2209 00ba 0023     		movs	r3, #0
ARM GAS  C:\Users\katre\AppData\Local\Temp\ccsaao4d.s 			page 63


 2210 00bc 4361     		str	r3, [r0, #20]
 2211 00be C2E7     		b	.L213
 2212              	.L214:
1041:Vendor_HAL/ST/STM32F4xx_HAL_Driver/Src/stm32f4xx_hal_rcc.c ****   }
 2213              		.loc 1 1041 5 is_stmt 1 view .LVU633
1041:Vendor_HAL/ST/STM32F4xx_HAL_Driver/Src/stm32f4xx_hal_rcc.c ****   }
 2214              		.loc 1 1041 37 is_stmt 0 view .LVU634
 2215 00c0 0123     		movs	r3, #1
 2216 00c2 8361     		str	r3, [r0, #24]
 2217 00c4 C6E7     		b	.L215
 2218              	.L217:
 2219 00c6 00BF     		.align	2
 2220              	.L216:
 2221 00c8 00380240 		.word	1073887232
 2222              		.cfi_endproc
 2223              	.LFE140:
 2225              		.section	.text.HAL_RCC_GetClockConfig,"ax",%progbits
 2226              		.align	1
 2227              		.global	HAL_RCC_GetClockConfig
 2228              		.syntax unified
 2229              		.thumb
 2230              		.thumb_func
 2232              	HAL_RCC_GetClockConfig:
 2233              	.LVL126:
 2234              	.LFB141:
1049:Vendor_HAL/ST/STM32F4xx_HAL_Driver/Src/stm32f4xx_hal_rcc.c **** 
1050:Vendor_HAL/ST/STM32F4xx_HAL_Driver/Src/stm32f4xx_hal_rcc.c **** /**
1051:Vendor_HAL/ST/STM32F4xx_HAL_Driver/Src/stm32f4xx_hal_rcc.c ****   * @brief  Configures the RCC_ClkInitStruct according to the internal
1052:Vendor_HAL/ST/STM32F4xx_HAL_Driver/Src/stm32f4xx_hal_rcc.c ****   * RCC configuration registers.
1053:Vendor_HAL/ST/STM32F4xx_HAL_Driver/Src/stm32f4xx_hal_rcc.c ****   * @param  RCC_ClkInitStruct pointer to an RCC_ClkInitTypeDef structure that
1054:Vendor_HAL/ST/STM32F4xx_HAL_Driver/Src/stm32f4xx_hal_rcc.c ****   * will be configured.
1055:Vendor_HAL/ST/STM32F4xx_HAL_Driver/Src/stm32f4xx_hal_rcc.c ****   * @param  pFLatency Pointer on the Flash Latency.
1056:Vendor_HAL/ST/STM32F4xx_HAL_Driver/Src/stm32f4xx_hal_rcc.c ****   * @retval None
1057:Vendor_HAL/ST/STM32F4xx_HAL_Driver/Src/stm32f4xx_hal_rcc.c ****   */
1058:Vendor_HAL/ST/STM32F4xx_HAL_Driver/Src/stm32f4xx_hal_rcc.c **** void HAL_RCC_GetClockConfig(RCC_ClkInitTypeDef  *RCC_ClkInitStruct, uint32_t *pFLatency)
1059:Vendor_HAL/ST/STM32F4xx_HAL_Driver/Src/stm32f4xx_hal_rcc.c **** {
 2235              		.loc 1 1059 1 is_stmt 1 view -0
 2236              		.cfi_startproc
 2237              		@ args = 0, pretend = 0, frame = 0
 2238              		@ frame_needed = 0, uses_anonymous_args = 0
 2239              		@ link register save eliminated.
1060:Vendor_HAL/ST/STM32F4xx_HAL_Driver/Src/stm32f4xx_hal_rcc.c ****   /* Set all possible values for the Clock type parameter --------------------*/
1061:Vendor_HAL/ST/STM32F4xx_HAL_Driver/Src/stm32f4xx_hal_rcc.c ****   RCC_ClkInitStruct->ClockType = RCC_CLOCKTYPE_SYSCLK | RCC_CLOCKTYPE_HCLK | RCC_CLOCKTYPE_PCLK1 | 
 2240              		.loc 1 1061 3 view .LVU636
 2241              		.loc 1 1061 32 is_stmt 0 view .LVU637
 2242 0000 0F23     		movs	r3, #15
 2243 0002 0360     		str	r3, [r0]
1062:Vendor_HAL/ST/STM32F4xx_HAL_Driver/Src/stm32f4xx_hal_rcc.c **** 
1063:Vendor_HAL/ST/STM32F4xx_HAL_Driver/Src/stm32f4xx_hal_rcc.c ****   /* Get the SYSCLK configuration --------------------------------------------*/
1064:Vendor_HAL/ST/STM32F4xx_HAL_Driver/Src/stm32f4xx_hal_rcc.c ****   RCC_ClkInitStruct->SYSCLKSource = (uint32_t)(RCC->CFGR & RCC_CFGR_SW);
 2244              		.loc 1 1064 3 is_stmt 1 view .LVU638
 2245              		.loc 1 1064 51 is_stmt 0 view .LVU639
 2246 0004 0B4B     		ldr	r3, .L219
 2247 0006 9A68     		ldr	r2, [r3, #8]
 2248              		.loc 1 1064 37 view .LVU640
 2249 0008 02F00302 		and	r2, r2, #3
 2250              		.loc 1 1064 35 view .LVU641
ARM GAS  C:\Users\katre\AppData\Local\Temp\ccsaao4d.s 			page 64


 2251 000c 4260     		str	r2, [r0, #4]
1065:Vendor_HAL/ST/STM32F4xx_HAL_Driver/Src/stm32f4xx_hal_rcc.c **** 
1066:Vendor_HAL/ST/STM32F4xx_HAL_Driver/Src/stm32f4xx_hal_rcc.c ****   /* Get the HCLK configuration ----------------------------------------------*/
1067:Vendor_HAL/ST/STM32F4xx_HAL_Driver/Src/stm32f4xx_hal_rcc.c ****   RCC_ClkInitStruct->AHBCLKDivider = (uint32_t)(RCC->CFGR & RCC_CFGR_HPRE);
 2252              		.loc 1 1067 3 is_stmt 1 view .LVU642
 2253              		.loc 1 1067 52 is_stmt 0 view .LVU643
 2254 000e 9A68     		ldr	r2, [r3, #8]
 2255              		.loc 1 1067 38 view .LVU644
 2256 0010 02F0F002 		and	r2, r2, #240
 2257              		.loc 1 1067 36 view .LVU645
 2258 0014 8260     		str	r2, [r0, #8]
1068:Vendor_HAL/ST/STM32F4xx_HAL_Driver/Src/stm32f4xx_hal_rcc.c **** 
1069:Vendor_HAL/ST/STM32F4xx_HAL_Driver/Src/stm32f4xx_hal_rcc.c ****   /* Get the APB1 configuration ----------------------------------------------*/
1070:Vendor_HAL/ST/STM32F4xx_HAL_Driver/Src/stm32f4xx_hal_rcc.c ****   RCC_ClkInitStruct->APB1CLKDivider = (uint32_t)(RCC->CFGR & RCC_CFGR_PPRE1);
 2259              		.loc 1 1070 3 is_stmt 1 view .LVU646
 2260              		.loc 1 1070 53 is_stmt 0 view .LVU647
 2261 0016 9A68     		ldr	r2, [r3, #8]
 2262              		.loc 1 1070 39 view .LVU648
 2263 0018 02F4E052 		and	r2, r2, #7168
 2264              		.loc 1 1070 37 view .LVU649
 2265 001c C260     		str	r2, [r0, #12]
1071:Vendor_HAL/ST/STM32F4xx_HAL_Driver/Src/stm32f4xx_hal_rcc.c **** 
1072:Vendor_HAL/ST/STM32F4xx_HAL_Driver/Src/stm32f4xx_hal_rcc.c ****   /* Get the APB2 configuration ----------------------------------------------*/
1073:Vendor_HAL/ST/STM32F4xx_HAL_Driver/Src/stm32f4xx_hal_rcc.c ****   RCC_ClkInitStruct->APB2CLKDivider = (uint32_t)((RCC->CFGR & RCC_CFGR_PPRE2) >> 3U);
 2266              		.loc 1 1073 3 is_stmt 1 view .LVU650
 2267              		.loc 1 1073 54 is_stmt 0 view .LVU651
 2268 001e 9B68     		ldr	r3, [r3, #8]
 2269              		.loc 1 1073 39 view .LVU652
 2270 0020 DB08     		lsrs	r3, r3, #3
 2271 0022 03F4E053 		and	r3, r3, #7168
 2272              		.loc 1 1073 37 view .LVU653
 2273 0026 0361     		str	r3, [r0, #16]
1074:Vendor_HAL/ST/STM32F4xx_HAL_Driver/Src/stm32f4xx_hal_rcc.c **** 
1075:Vendor_HAL/ST/STM32F4xx_HAL_Driver/Src/stm32f4xx_hal_rcc.c ****   /* Get the Flash Wait State (Latency) configuration ------------------------*/
1076:Vendor_HAL/ST/STM32F4xx_HAL_Driver/Src/stm32f4xx_hal_rcc.c ****   *pFLatency = (uint32_t)(FLASH->ACR & FLASH_ACR_LATENCY);
 2274              		.loc 1 1076 3 is_stmt 1 view .LVU654
 2275              		.loc 1 1076 32 is_stmt 0 view .LVU655
 2276 0028 034B     		ldr	r3, .L219+4
 2277 002a 1B68     		ldr	r3, [r3]
 2278              		.loc 1 1076 16 view .LVU656
 2279 002c 03F00F03 		and	r3, r3, #15
 2280              		.loc 1 1076 14 view .LVU657
 2281 0030 0B60     		str	r3, [r1]
1077:Vendor_HAL/ST/STM32F4xx_HAL_Driver/Src/stm32f4xx_hal_rcc.c **** }
 2282              		.loc 1 1077 1 view .LVU658
 2283 0032 7047     		bx	lr
 2284              	.L220:
 2285              		.align	2
 2286              	.L219:
 2287 0034 00380240 		.word	1073887232
 2288 0038 003C0240 		.word	1073888256
 2289              		.cfi_endproc
 2290              	.LFE141:
 2292              		.section	.text.HAL_RCC_CSSCallback,"ax",%progbits
 2293              		.align	1
 2294              		.weak	HAL_RCC_CSSCallback
 2295              		.syntax unified
ARM GAS  C:\Users\katre\AppData\Local\Temp\ccsaao4d.s 			page 65


 2296              		.thumb
 2297              		.thumb_func
 2299              	HAL_RCC_CSSCallback:
 2300              	.LFB143:
1078:Vendor_HAL/ST/STM32F4xx_HAL_Driver/Src/stm32f4xx_hal_rcc.c **** 
1079:Vendor_HAL/ST/STM32F4xx_HAL_Driver/Src/stm32f4xx_hal_rcc.c **** /**
1080:Vendor_HAL/ST/STM32F4xx_HAL_Driver/Src/stm32f4xx_hal_rcc.c ****   * @brief This function handles the RCC CSS interrupt request.
1081:Vendor_HAL/ST/STM32F4xx_HAL_Driver/Src/stm32f4xx_hal_rcc.c ****   * @note This API should be called under the NMI_Handler().
1082:Vendor_HAL/ST/STM32F4xx_HAL_Driver/Src/stm32f4xx_hal_rcc.c ****   * @retval None
1083:Vendor_HAL/ST/STM32F4xx_HAL_Driver/Src/stm32f4xx_hal_rcc.c ****   */
1084:Vendor_HAL/ST/STM32F4xx_HAL_Driver/Src/stm32f4xx_hal_rcc.c **** void HAL_RCC_NMI_IRQHandler(void)
1085:Vendor_HAL/ST/STM32F4xx_HAL_Driver/Src/stm32f4xx_hal_rcc.c **** {
1086:Vendor_HAL/ST/STM32F4xx_HAL_Driver/Src/stm32f4xx_hal_rcc.c ****   /* Check RCC CSSF flag  */
1087:Vendor_HAL/ST/STM32F4xx_HAL_Driver/Src/stm32f4xx_hal_rcc.c ****   if(__HAL_RCC_GET_IT(RCC_IT_CSS))
1088:Vendor_HAL/ST/STM32F4xx_HAL_Driver/Src/stm32f4xx_hal_rcc.c ****   {
1089:Vendor_HAL/ST/STM32F4xx_HAL_Driver/Src/stm32f4xx_hal_rcc.c ****     /* RCC Clock Security System interrupt user callback */
1090:Vendor_HAL/ST/STM32F4xx_HAL_Driver/Src/stm32f4xx_hal_rcc.c ****     HAL_RCC_CSSCallback();
1091:Vendor_HAL/ST/STM32F4xx_HAL_Driver/Src/stm32f4xx_hal_rcc.c **** 
1092:Vendor_HAL/ST/STM32F4xx_HAL_Driver/Src/stm32f4xx_hal_rcc.c ****     /* Clear RCC CSS pending bit */
1093:Vendor_HAL/ST/STM32F4xx_HAL_Driver/Src/stm32f4xx_hal_rcc.c ****     __HAL_RCC_CLEAR_IT(RCC_IT_CSS);
1094:Vendor_HAL/ST/STM32F4xx_HAL_Driver/Src/stm32f4xx_hal_rcc.c ****   }
1095:Vendor_HAL/ST/STM32F4xx_HAL_Driver/Src/stm32f4xx_hal_rcc.c **** }
1096:Vendor_HAL/ST/STM32F4xx_HAL_Driver/Src/stm32f4xx_hal_rcc.c **** 
1097:Vendor_HAL/ST/STM32F4xx_HAL_Driver/Src/stm32f4xx_hal_rcc.c **** /**
1098:Vendor_HAL/ST/STM32F4xx_HAL_Driver/Src/stm32f4xx_hal_rcc.c ****   * @brief  RCC Clock Security System interrupt callback
1099:Vendor_HAL/ST/STM32F4xx_HAL_Driver/Src/stm32f4xx_hal_rcc.c ****   * @retval None
1100:Vendor_HAL/ST/STM32F4xx_HAL_Driver/Src/stm32f4xx_hal_rcc.c ****   */
1101:Vendor_HAL/ST/STM32F4xx_HAL_Driver/Src/stm32f4xx_hal_rcc.c **** __weak void HAL_RCC_CSSCallback(void)
1102:Vendor_HAL/ST/STM32F4xx_HAL_Driver/Src/stm32f4xx_hal_rcc.c **** {
 2301              		.loc 1 1102 1 is_stmt 1 view -0
 2302              		.cfi_startproc
 2303              		@ args = 0, pretend = 0, frame = 0
 2304              		@ frame_needed = 0, uses_anonymous_args = 0
 2305              		@ link register save eliminated.
1103:Vendor_HAL/ST/STM32F4xx_HAL_Driver/Src/stm32f4xx_hal_rcc.c ****   /* NOTE : This function Should not be modified, when the callback is needed,
1104:Vendor_HAL/ST/STM32F4xx_HAL_Driver/Src/stm32f4xx_hal_rcc.c ****             the HAL_RCC_CSSCallback could be implemented in the user file
1105:Vendor_HAL/ST/STM32F4xx_HAL_Driver/Src/stm32f4xx_hal_rcc.c ****    */
1106:Vendor_HAL/ST/STM32F4xx_HAL_Driver/Src/stm32f4xx_hal_rcc.c **** }
 2306              		.loc 1 1106 1 view .LVU660
 2307 0000 7047     		bx	lr
 2308              		.cfi_endproc
 2309              	.LFE143:
 2311              		.section	.text.HAL_RCC_NMI_IRQHandler,"ax",%progbits
 2312              		.align	1
 2313              		.global	HAL_RCC_NMI_IRQHandler
 2314              		.syntax unified
 2315              		.thumb
 2316              		.thumb_func
 2318              	HAL_RCC_NMI_IRQHandler:
 2319              	.LFB142:
1085:Vendor_HAL/ST/STM32F4xx_HAL_Driver/Src/stm32f4xx_hal_rcc.c ****   /* Check RCC CSSF flag  */
 2320              		.loc 1 1085 1 view -0
 2321              		.cfi_startproc
 2322              		@ args = 0, pretend = 0, frame = 0
 2323              		@ frame_needed = 0, uses_anonymous_args = 0
 2324 0000 08B5     		push	{r3, lr}
 2325              	.LCFI16:
ARM GAS  C:\Users\katre\AppData\Local\Temp\ccsaao4d.s 			page 66


 2326              		.cfi_def_cfa_offset 8
 2327              		.cfi_offset 3, -8
 2328              		.cfi_offset 14, -4
1087:Vendor_HAL/ST/STM32F4xx_HAL_Driver/Src/stm32f4xx_hal_rcc.c ****   {
 2329              		.loc 1 1087 3 view .LVU662
1087:Vendor_HAL/ST/STM32F4xx_HAL_Driver/Src/stm32f4xx_hal_rcc.c ****   {
 2330              		.loc 1 1087 6 is_stmt 0 view .LVU663
 2331 0002 064B     		ldr	r3, .L226
 2332 0004 DB68     		ldr	r3, [r3, #12]
1087:Vendor_HAL/ST/STM32F4xx_HAL_Driver/Src/stm32f4xx_hal_rcc.c ****   {
 2333              		.loc 1 1087 5 view .LVU664
 2334 0006 13F0800F 		tst	r3, #128
 2335 000a 00D1     		bne	.L225
 2336              	.L222:
1095:Vendor_HAL/ST/STM32F4xx_HAL_Driver/Src/stm32f4xx_hal_rcc.c **** 
 2337              		.loc 1 1095 1 view .LVU665
 2338 000c 08BD     		pop	{r3, pc}
 2339              	.L225:
1090:Vendor_HAL/ST/STM32F4xx_HAL_Driver/Src/stm32f4xx_hal_rcc.c **** 
 2340              		.loc 1 1090 5 is_stmt 1 view .LVU666
 2341 000e FFF7FEFF 		bl	HAL_RCC_CSSCallback
 2342              	.LVL127:
1093:Vendor_HAL/ST/STM32F4xx_HAL_Driver/Src/stm32f4xx_hal_rcc.c ****   }
 2343              		.loc 1 1093 5 view .LVU667
 2344 0012 024B     		ldr	r3, .L226
 2345 0014 8022     		movs	r2, #128
 2346 0016 9A73     		strb	r2, [r3, #14]
1095:Vendor_HAL/ST/STM32F4xx_HAL_Driver/Src/stm32f4xx_hal_rcc.c **** 
 2347              		.loc 1 1095 1 is_stmt 0 view .LVU668
 2348 0018 F8E7     		b	.L222
 2349              	.L227:
 2350 001a 00BF     		.align	2
 2351              	.L226:
 2352 001c 00380240 		.word	1073887232
 2353              		.cfi_endproc
 2354              	.LFE142:
 2356              		.text
 2357              	.Letext0:
 2358              		.file 2 "c:\\program files (x86)\\gnu arm embedded toolchain\\10 2021.10\\arm-none-eabi\\include\\
 2359              		.file 3 "c:\\program files (x86)\\gnu arm embedded toolchain\\10 2021.10\\arm-none-eabi\\include\\
 2360              		.file 4 "CMSIS/Vendor_Device/ST/STM32F4xx/Include/system_stm32f4xx.h"
 2361              		.file 5 "CMSIS/Vendor_Device/ST/STM32F4xx/Include/stm32f446xx.h"
 2362              		.file 6 "CMSIS/Vendor_Device/ST/STM32F4xx/Include/stm32f4xx.h"
 2363              		.file 7 "Vendor_HAL/ST/STM32F4xx_HAL_Driver/Inc/stm32f4xx_hal_def.h"
 2364              		.file 8 "Vendor_HAL/ST/STM32F4xx_HAL_Driver/Inc/stm32f4xx_hal_rcc_ex.h"
 2365              		.file 9 "Vendor_HAL/ST/STM32F4xx_HAL_Driver/Inc/stm32f4xx_hal_rcc.h"
 2366              		.file 10 "Vendor_HAL/ST/STM32F4xx_HAL_Driver/Inc/stm32f4xx_hal_gpio.h"
 2367              		.file 11 "Vendor_HAL/ST/STM32F4xx_HAL_Driver/Inc/stm32f4xx_hal.h"
 2368              		.file 12 "Vendor_HAL/ST/STM32F4xx_HAL_Driver/stm32f4xx_hal_conf.h"
ARM GAS  C:\Users\katre\AppData\Local\Temp\ccsaao4d.s 			page 67

