ARM GAS  C:\Users\katre\AppData\Local\Temp\ccXpm6zu.s 			page 1


   1              		.cpu cortex-m4
   2              		.arch armv7e-m
   3              		.fpu fpv4-sp-d16
   4              		.eabi_attribute 27, 1
   5              		.eabi_attribute 28, 1
   6              		.eabi_attribute 20, 1
   7              		.eabi_attribute 21, 1
   8              		.eabi_attribute 23, 3
   9              		.eabi_attribute 24, 1
  10              		.eabi_attribute 25, 1
  11              		.eabi_attribute 26, 1
  12              		.eabi_attribute 30, 1
  13              		.eabi_attribute 34, 1
  14              		.eabi_attribute 18, 4
  15              		.file	"stm32f4xx_hal.c"
  16              		.text
  17              	.Ltext0:
  18              		.cfi_sections	.debug_frame
  19              		.section	.text.HAL_MspInit,"ax",%progbits
  20              		.align	1
  21              		.weak	HAL_MspInit
  22              		.syntax unified
  23              		.thumb
  24              		.thumb_func
  26              	HAL_MspInit:
  27              	.LFB132:
  28              		.file 1 "Vendor_HAL/ST/STM32F4xx_HAL_Driver/Src/stm32f4xx_hal.c"
   1:Vendor_HAL/ST/STM32F4xx_HAL_Driver/Src/stm32f4xx_hal.c **** /**
   2:Vendor_HAL/ST/STM32F4xx_HAL_Driver/Src/stm32f4xx_hal.c ****   ******************************************************************************
   3:Vendor_HAL/ST/STM32F4xx_HAL_Driver/Src/stm32f4xx_hal.c ****   * @file    stm32f4xx_hal.c
   4:Vendor_HAL/ST/STM32F4xx_HAL_Driver/Src/stm32f4xx_hal.c ****   * @author  MCD Application Team
   5:Vendor_HAL/ST/STM32F4xx_HAL_Driver/Src/stm32f4xx_hal.c ****   * @brief   HAL module driver.
   6:Vendor_HAL/ST/STM32F4xx_HAL_Driver/Src/stm32f4xx_hal.c ****   *          This is the common part of the HAL initialization
   7:Vendor_HAL/ST/STM32F4xx_HAL_Driver/Src/stm32f4xx_hal.c ****   *
   8:Vendor_HAL/ST/STM32F4xx_HAL_Driver/Src/stm32f4xx_hal.c ****   @verbatim
   9:Vendor_HAL/ST/STM32F4xx_HAL_Driver/Src/stm32f4xx_hal.c ****   ==============================================================================
  10:Vendor_HAL/ST/STM32F4xx_HAL_Driver/Src/stm32f4xx_hal.c ****                      ##### How to use this driver #####
  11:Vendor_HAL/ST/STM32F4xx_HAL_Driver/Src/stm32f4xx_hal.c ****   ==============================================================================
  12:Vendor_HAL/ST/STM32F4xx_HAL_Driver/Src/stm32f4xx_hal.c ****     [..]
  13:Vendor_HAL/ST/STM32F4xx_HAL_Driver/Src/stm32f4xx_hal.c ****     The common HAL driver contains a set of generic and common APIs that can be
  14:Vendor_HAL/ST/STM32F4xx_HAL_Driver/Src/stm32f4xx_hal.c ****     used by the PPP peripheral drivers and the user to start using the HAL. 
  15:Vendor_HAL/ST/STM32F4xx_HAL_Driver/Src/stm32f4xx_hal.c ****     [..]
  16:Vendor_HAL/ST/STM32F4xx_HAL_Driver/Src/stm32f4xx_hal.c ****     The HAL contains two APIs' categories: 
  17:Vendor_HAL/ST/STM32F4xx_HAL_Driver/Src/stm32f4xx_hal.c ****          (+) Common HAL APIs
  18:Vendor_HAL/ST/STM32F4xx_HAL_Driver/Src/stm32f4xx_hal.c ****          (+) Services HAL APIs
  19:Vendor_HAL/ST/STM32F4xx_HAL_Driver/Src/stm32f4xx_hal.c **** 
  20:Vendor_HAL/ST/STM32F4xx_HAL_Driver/Src/stm32f4xx_hal.c ****   @endverbatim
  21:Vendor_HAL/ST/STM32F4xx_HAL_Driver/Src/stm32f4xx_hal.c ****   ******************************************************************************
  22:Vendor_HAL/ST/STM32F4xx_HAL_Driver/Src/stm32f4xx_hal.c ****   * @attention
  23:Vendor_HAL/ST/STM32F4xx_HAL_Driver/Src/stm32f4xx_hal.c ****   *
  24:Vendor_HAL/ST/STM32F4xx_HAL_Driver/Src/stm32f4xx_hal.c ****   * <h2><center>&copy; Copyright (c) 2017 STMicroelectronics.
  25:Vendor_HAL/ST/STM32F4xx_HAL_Driver/Src/stm32f4xx_hal.c ****   * All rights reserved.</center></h2>
  26:Vendor_HAL/ST/STM32F4xx_HAL_Driver/Src/stm32f4xx_hal.c ****   *
  27:Vendor_HAL/ST/STM32F4xx_HAL_Driver/Src/stm32f4xx_hal.c ****   * This software component is licensed by ST under BSD 3-Clause license,
  28:Vendor_HAL/ST/STM32F4xx_HAL_Driver/Src/stm32f4xx_hal.c ****   * the "License"; You may not use this file except in compliance with the
  29:Vendor_HAL/ST/STM32F4xx_HAL_Driver/Src/stm32f4xx_hal.c ****   * License. You may obtain a copy of the License at:
  30:Vendor_HAL/ST/STM32F4xx_HAL_Driver/Src/stm32f4xx_hal.c ****   *                        opensource.org/licenses/BSD-3-Clause
ARM GAS  C:\Users\katre\AppData\Local\Temp\ccXpm6zu.s 			page 2


  31:Vendor_HAL/ST/STM32F4xx_HAL_Driver/Src/stm32f4xx_hal.c ****   *
  32:Vendor_HAL/ST/STM32F4xx_HAL_Driver/Src/stm32f4xx_hal.c ****   ******************************************************************************
  33:Vendor_HAL/ST/STM32F4xx_HAL_Driver/Src/stm32f4xx_hal.c ****   */ 
  34:Vendor_HAL/ST/STM32F4xx_HAL_Driver/Src/stm32f4xx_hal.c **** 
  35:Vendor_HAL/ST/STM32F4xx_HAL_Driver/Src/stm32f4xx_hal.c **** /* Includes ------------------------------------------------------------------*/
  36:Vendor_HAL/ST/STM32F4xx_HAL_Driver/Src/stm32f4xx_hal.c **** #include "stm32f4xx_hal.h"
  37:Vendor_HAL/ST/STM32F4xx_HAL_Driver/Src/stm32f4xx_hal.c **** 
  38:Vendor_HAL/ST/STM32F4xx_HAL_Driver/Src/stm32f4xx_hal.c **** /** @addtogroup STM32F4xx_HAL_Driver
  39:Vendor_HAL/ST/STM32F4xx_HAL_Driver/Src/stm32f4xx_hal.c ****   * @{
  40:Vendor_HAL/ST/STM32F4xx_HAL_Driver/Src/stm32f4xx_hal.c ****   */
  41:Vendor_HAL/ST/STM32F4xx_HAL_Driver/Src/stm32f4xx_hal.c **** 
  42:Vendor_HAL/ST/STM32F4xx_HAL_Driver/Src/stm32f4xx_hal.c **** /** @defgroup HAL HAL
  43:Vendor_HAL/ST/STM32F4xx_HAL_Driver/Src/stm32f4xx_hal.c ****   * @brief HAL module driver.
  44:Vendor_HAL/ST/STM32F4xx_HAL_Driver/Src/stm32f4xx_hal.c ****   * @{
  45:Vendor_HAL/ST/STM32F4xx_HAL_Driver/Src/stm32f4xx_hal.c ****   */
  46:Vendor_HAL/ST/STM32F4xx_HAL_Driver/Src/stm32f4xx_hal.c **** 
  47:Vendor_HAL/ST/STM32F4xx_HAL_Driver/Src/stm32f4xx_hal.c **** /* Private typedef -----------------------------------------------------------*/
  48:Vendor_HAL/ST/STM32F4xx_HAL_Driver/Src/stm32f4xx_hal.c **** /* Private define ------------------------------------------------------------*/
  49:Vendor_HAL/ST/STM32F4xx_HAL_Driver/Src/stm32f4xx_hal.c **** /** @addtogroup HAL_Private_Constants
  50:Vendor_HAL/ST/STM32F4xx_HAL_Driver/Src/stm32f4xx_hal.c ****   * @{
  51:Vendor_HAL/ST/STM32F4xx_HAL_Driver/Src/stm32f4xx_hal.c ****   */
  52:Vendor_HAL/ST/STM32F4xx_HAL_Driver/Src/stm32f4xx_hal.c **** /**
  53:Vendor_HAL/ST/STM32F4xx_HAL_Driver/Src/stm32f4xx_hal.c ****   * @brief STM32F4xx HAL Driver version number V1.7.13
  54:Vendor_HAL/ST/STM32F4xx_HAL_Driver/Src/stm32f4xx_hal.c ****   */
  55:Vendor_HAL/ST/STM32F4xx_HAL_Driver/Src/stm32f4xx_hal.c **** #define __STM32F4xx_HAL_VERSION_MAIN   (0x01U) /*!< [31:24] main version */
  56:Vendor_HAL/ST/STM32F4xx_HAL_Driver/Src/stm32f4xx_hal.c **** #define __STM32F4xx_HAL_VERSION_SUB1   (0x07U) /*!< [23:16] sub1 version */
  57:Vendor_HAL/ST/STM32F4xx_HAL_Driver/Src/stm32f4xx_hal.c **** #define __STM32F4xx_HAL_VERSION_SUB2   (0x0DU) /*!< [15:8]  sub2 version */
  58:Vendor_HAL/ST/STM32F4xx_HAL_Driver/Src/stm32f4xx_hal.c **** #define __STM32F4xx_HAL_VERSION_RC     (0x00U) /*!< [7:0]  release candidate */ 
  59:Vendor_HAL/ST/STM32F4xx_HAL_Driver/Src/stm32f4xx_hal.c **** #define __STM32F4xx_HAL_VERSION         ((__STM32F4xx_HAL_VERSION_MAIN << 24U)\
  60:Vendor_HAL/ST/STM32F4xx_HAL_Driver/Src/stm32f4xx_hal.c ****                                         |(__STM32F4xx_HAL_VERSION_SUB1 << 16U)\
  61:Vendor_HAL/ST/STM32F4xx_HAL_Driver/Src/stm32f4xx_hal.c ****                                         |(__STM32F4xx_HAL_VERSION_SUB2 << 8U )\
  62:Vendor_HAL/ST/STM32F4xx_HAL_Driver/Src/stm32f4xx_hal.c ****                                         |(__STM32F4xx_HAL_VERSION_RC))
  63:Vendor_HAL/ST/STM32F4xx_HAL_Driver/Src/stm32f4xx_hal.c ****                                         
  64:Vendor_HAL/ST/STM32F4xx_HAL_Driver/Src/stm32f4xx_hal.c **** #define IDCODE_DEVID_MASK    0x00000FFFU
  65:Vendor_HAL/ST/STM32F4xx_HAL_Driver/Src/stm32f4xx_hal.c **** 
  66:Vendor_HAL/ST/STM32F4xx_HAL_Driver/Src/stm32f4xx_hal.c **** /* ------------ RCC registers bit address in the alias region ----------- */
  67:Vendor_HAL/ST/STM32F4xx_HAL_Driver/Src/stm32f4xx_hal.c **** #define SYSCFG_OFFSET             (SYSCFG_BASE - PERIPH_BASE)
  68:Vendor_HAL/ST/STM32F4xx_HAL_Driver/Src/stm32f4xx_hal.c **** /* ---  MEMRMP Register ---*/ 
  69:Vendor_HAL/ST/STM32F4xx_HAL_Driver/Src/stm32f4xx_hal.c **** /* Alias word address of UFB_MODE bit */ 
  70:Vendor_HAL/ST/STM32F4xx_HAL_Driver/Src/stm32f4xx_hal.c **** #define MEMRMP_OFFSET             SYSCFG_OFFSET 
  71:Vendor_HAL/ST/STM32F4xx_HAL_Driver/Src/stm32f4xx_hal.c **** #define UFB_MODE_BIT_NUMBER       SYSCFG_MEMRMP_UFB_MODE_Pos
  72:Vendor_HAL/ST/STM32F4xx_HAL_Driver/Src/stm32f4xx_hal.c **** #define UFB_MODE_BB               (uint32_t)(PERIPH_BB_BASE + (MEMRMP_OFFSET * 32U) + (UFB_MODE_BIT
  73:Vendor_HAL/ST/STM32F4xx_HAL_Driver/Src/stm32f4xx_hal.c **** 
  74:Vendor_HAL/ST/STM32F4xx_HAL_Driver/Src/stm32f4xx_hal.c **** /* ---  CMPCR Register ---*/ 
  75:Vendor_HAL/ST/STM32F4xx_HAL_Driver/Src/stm32f4xx_hal.c **** /* Alias word address of CMP_PD bit */ 
  76:Vendor_HAL/ST/STM32F4xx_HAL_Driver/Src/stm32f4xx_hal.c **** #define CMPCR_OFFSET              (SYSCFG_OFFSET + 0x20U) 
  77:Vendor_HAL/ST/STM32F4xx_HAL_Driver/Src/stm32f4xx_hal.c **** #define CMP_PD_BIT_NUMBER         SYSCFG_CMPCR_CMP_PD_Pos
  78:Vendor_HAL/ST/STM32F4xx_HAL_Driver/Src/stm32f4xx_hal.c **** #define CMPCR_CMP_PD_BB           (uint32_t)(PERIPH_BB_BASE + (CMPCR_OFFSET * 32U) + (CMP_PD_BIT_NU
  79:Vendor_HAL/ST/STM32F4xx_HAL_Driver/Src/stm32f4xx_hal.c **** 
  80:Vendor_HAL/ST/STM32F4xx_HAL_Driver/Src/stm32f4xx_hal.c **** /* ---  MCHDLYCR Register ---*/ 
  81:Vendor_HAL/ST/STM32F4xx_HAL_Driver/Src/stm32f4xx_hal.c **** /* Alias word address of BSCKSEL bit */ 
  82:Vendor_HAL/ST/STM32F4xx_HAL_Driver/Src/stm32f4xx_hal.c **** #define MCHDLYCR_OFFSET            (SYSCFG_OFFSET + 0x30U) 
  83:Vendor_HAL/ST/STM32F4xx_HAL_Driver/Src/stm32f4xx_hal.c **** #define BSCKSEL_BIT_NUMBER         SYSCFG_MCHDLYCR_BSCKSEL_Pos
  84:Vendor_HAL/ST/STM32F4xx_HAL_Driver/Src/stm32f4xx_hal.c **** #define MCHDLYCR_BSCKSEL_BB        (uint32_t)(PERIPH_BB_BASE + (MCHDLYCR_OFFSET * 32U) + (BSCKSEL_B
  85:Vendor_HAL/ST/STM32F4xx_HAL_Driver/Src/stm32f4xx_hal.c **** /**
  86:Vendor_HAL/ST/STM32F4xx_HAL_Driver/Src/stm32f4xx_hal.c ****   * @}
  87:Vendor_HAL/ST/STM32F4xx_HAL_Driver/Src/stm32f4xx_hal.c ****   */
ARM GAS  C:\Users\katre\AppData\Local\Temp\ccXpm6zu.s 			page 3


  88:Vendor_HAL/ST/STM32F4xx_HAL_Driver/Src/stm32f4xx_hal.c **** 
  89:Vendor_HAL/ST/STM32F4xx_HAL_Driver/Src/stm32f4xx_hal.c **** /* Private macro -------------------------------------------------------------*/
  90:Vendor_HAL/ST/STM32F4xx_HAL_Driver/Src/stm32f4xx_hal.c **** /* Private variables ---------------------------------------------------------*/
  91:Vendor_HAL/ST/STM32F4xx_HAL_Driver/Src/stm32f4xx_hal.c **** /** @addtogroup HAL_Private_Variables
  92:Vendor_HAL/ST/STM32F4xx_HAL_Driver/Src/stm32f4xx_hal.c ****   * @{
  93:Vendor_HAL/ST/STM32F4xx_HAL_Driver/Src/stm32f4xx_hal.c ****   */
  94:Vendor_HAL/ST/STM32F4xx_HAL_Driver/Src/stm32f4xx_hal.c **** __IO uint32_t uwTick;
  95:Vendor_HAL/ST/STM32F4xx_HAL_Driver/Src/stm32f4xx_hal.c **** uint32_t uwTickPrio   = (1UL << __NVIC_PRIO_BITS); /* Invalid PRIO */
  96:Vendor_HAL/ST/STM32F4xx_HAL_Driver/Src/stm32f4xx_hal.c **** HAL_TickFreqTypeDef uwTickFreq = HAL_TICK_FREQ_DEFAULT;  /* 1KHz */
  97:Vendor_HAL/ST/STM32F4xx_HAL_Driver/Src/stm32f4xx_hal.c **** /**
  98:Vendor_HAL/ST/STM32F4xx_HAL_Driver/Src/stm32f4xx_hal.c ****   * @}
  99:Vendor_HAL/ST/STM32F4xx_HAL_Driver/Src/stm32f4xx_hal.c ****   */
 100:Vendor_HAL/ST/STM32F4xx_HAL_Driver/Src/stm32f4xx_hal.c **** /* Private function prototypes -----------------------------------------------*/
 101:Vendor_HAL/ST/STM32F4xx_HAL_Driver/Src/stm32f4xx_hal.c **** /* Private functions ---------------------------------------------------------*/
 102:Vendor_HAL/ST/STM32F4xx_HAL_Driver/Src/stm32f4xx_hal.c **** 
 103:Vendor_HAL/ST/STM32F4xx_HAL_Driver/Src/stm32f4xx_hal.c **** /** @defgroup HAL_Exported_Functions HAL Exported Functions
 104:Vendor_HAL/ST/STM32F4xx_HAL_Driver/Src/stm32f4xx_hal.c ****   * @{
 105:Vendor_HAL/ST/STM32F4xx_HAL_Driver/Src/stm32f4xx_hal.c ****   */
 106:Vendor_HAL/ST/STM32F4xx_HAL_Driver/Src/stm32f4xx_hal.c **** 
 107:Vendor_HAL/ST/STM32F4xx_HAL_Driver/Src/stm32f4xx_hal.c **** /** @defgroup HAL_Exported_Functions_Group1 Initialization and de-initialization Functions 
 108:Vendor_HAL/ST/STM32F4xx_HAL_Driver/Src/stm32f4xx_hal.c ****  *  @brief    Initialization and de-initialization functions
 109:Vendor_HAL/ST/STM32F4xx_HAL_Driver/Src/stm32f4xx_hal.c ****  *
 110:Vendor_HAL/ST/STM32F4xx_HAL_Driver/Src/stm32f4xx_hal.c **** @verbatim    
 111:Vendor_HAL/ST/STM32F4xx_HAL_Driver/Src/stm32f4xx_hal.c ****  ===============================================================================
 112:Vendor_HAL/ST/STM32F4xx_HAL_Driver/Src/stm32f4xx_hal.c ****               ##### Initialization and Configuration functions #####
 113:Vendor_HAL/ST/STM32F4xx_HAL_Driver/Src/stm32f4xx_hal.c ****  ===============================================================================
 114:Vendor_HAL/ST/STM32F4xx_HAL_Driver/Src/stm32f4xx_hal.c ****     [..]  This section provides functions allowing to:
 115:Vendor_HAL/ST/STM32F4xx_HAL_Driver/Src/stm32f4xx_hal.c ****       (+) Initializes the Flash interface the NVIC allocation and initial clock 
 116:Vendor_HAL/ST/STM32F4xx_HAL_Driver/Src/stm32f4xx_hal.c ****           configuration. It initializes the systick also when timeout is needed 
 117:Vendor_HAL/ST/STM32F4xx_HAL_Driver/Src/stm32f4xx_hal.c ****           and the backup domain when enabled.
 118:Vendor_HAL/ST/STM32F4xx_HAL_Driver/Src/stm32f4xx_hal.c ****       (+) De-Initializes common part of the HAL.
 119:Vendor_HAL/ST/STM32F4xx_HAL_Driver/Src/stm32f4xx_hal.c ****       (+) Configure the time base source to have 1ms time base with a dedicated 
 120:Vendor_HAL/ST/STM32F4xx_HAL_Driver/Src/stm32f4xx_hal.c ****           Tick interrupt priority. 
 121:Vendor_HAL/ST/STM32F4xx_HAL_Driver/Src/stm32f4xx_hal.c ****         (++) SysTick timer is used by default as source of time base, but user
 122:Vendor_HAL/ST/STM32F4xx_HAL_Driver/Src/stm32f4xx_hal.c ****              can eventually implement his proper time base source (a general purpose 
 123:Vendor_HAL/ST/STM32F4xx_HAL_Driver/Src/stm32f4xx_hal.c ****              timer for example or other time source), keeping in mind that Time base 
 124:Vendor_HAL/ST/STM32F4xx_HAL_Driver/Src/stm32f4xx_hal.c ****              duration should be kept 1ms since PPP_TIMEOUT_VALUEs are defined and 
 125:Vendor_HAL/ST/STM32F4xx_HAL_Driver/Src/stm32f4xx_hal.c ****              handled in milliseconds basis.
 126:Vendor_HAL/ST/STM32F4xx_HAL_Driver/Src/stm32f4xx_hal.c ****         (++) Time base configuration function (HAL_InitTick ()) is called automatically 
 127:Vendor_HAL/ST/STM32F4xx_HAL_Driver/Src/stm32f4xx_hal.c ****              at the beginning of the program after reset by HAL_Init() or at any time 
 128:Vendor_HAL/ST/STM32F4xx_HAL_Driver/Src/stm32f4xx_hal.c ****              when clock is configured, by HAL_RCC_ClockConfig(). 
 129:Vendor_HAL/ST/STM32F4xx_HAL_Driver/Src/stm32f4xx_hal.c ****         (++) Source of time base is configured  to generate interrupts at regular 
 130:Vendor_HAL/ST/STM32F4xx_HAL_Driver/Src/stm32f4xx_hal.c ****              time intervals. Care must be taken if HAL_Delay() is called from a 
 131:Vendor_HAL/ST/STM32F4xx_HAL_Driver/Src/stm32f4xx_hal.c ****              peripheral ISR process, the Tick interrupt line must have higher priority 
 132:Vendor_HAL/ST/STM32F4xx_HAL_Driver/Src/stm32f4xx_hal.c ****             (numerically lower) than the peripheral interrupt. Otherwise the caller 
 133:Vendor_HAL/ST/STM32F4xx_HAL_Driver/Src/stm32f4xx_hal.c ****             ISR process will be blocked. 
 134:Vendor_HAL/ST/STM32F4xx_HAL_Driver/Src/stm32f4xx_hal.c ****        (++) functions affecting time base configurations are declared as __weak  
 135:Vendor_HAL/ST/STM32F4xx_HAL_Driver/Src/stm32f4xx_hal.c ****              to make  override possible  in case of other  implementations in user file.
 136:Vendor_HAL/ST/STM32F4xx_HAL_Driver/Src/stm32f4xx_hal.c **** @endverbatim
 137:Vendor_HAL/ST/STM32F4xx_HAL_Driver/Src/stm32f4xx_hal.c ****   * @{
 138:Vendor_HAL/ST/STM32F4xx_HAL_Driver/Src/stm32f4xx_hal.c ****   */
 139:Vendor_HAL/ST/STM32F4xx_HAL_Driver/Src/stm32f4xx_hal.c **** 
 140:Vendor_HAL/ST/STM32F4xx_HAL_Driver/Src/stm32f4xx_hal.c **** /**
 141:Vendor_HAL/ST/STM32F4xx_HAL_Driver/Src/stm32f4xx_hal.c ****   * @brief  This function is used to initialize the HAL Library; it must be the first 
 142:Vendor_HAL/ST/STM32F4xx_HAL_Driver/Src/stm32f4xx_hal.c ****   *         instruction to be executed in the main program (before to call any other
 143:Vendor_HAL/ST/STM32F4xx_HAL_Driver/Src/stm32f4xx_hal.c ****   *         HAL function), it performs the following:
 144:Vendor_HAL/ST/STM32F4xx_HAL_Driver/Src/stm32f4xx_hal.c ****   *           Configure the Flash prefetch, instruction and Data caches.
ARM GAS  C:\Users\katre\AppData\Local\Temp\ccXpm6zu.s 			page 4


 145:Vendor_HAL/ST/STM32F4xx_HAL_Driver/Src/stm32f4xx_hal.c ****   *           Configures the SysTick to generate an interrupt each 1 millisecond,
 146:Vendor_HAL/ST/STM32F4xx_HAL_Driver/Src/stm32f4xx_hal.c ****   *           which is clocked by the HSI (at this stage, the clock is not yet
 147:Vendor_HAL/ST/STM32F4xx_HAL_Driver/Src/stm32f4xx_hal.c ****   *           configured and thus the system is running from the internal HSI at 16 MHz).
 148:Vendor_HAL/ST/STM32F4xx_HAL_Driver/Src/stm32f4xx_hal.c ****   *           Set NVIC Group Priority to 4.
 149:Vendor_HAL/ST/STM32F4xx_HAL_Driver/Src/stm32f4xx_hal.c ****   *           Calls the HAL_MspInit() callback function defined in user file 
 150:Vendor_HAL/ST/STM32F4xx_HAL_Driver/Src/stm32f4xx_hal.c ****   *           "stm32f4xx_hal_msp.c" to do the global low level hardware initialization 
 151:Vendor_HAL/ST/STM32F4xx_HAL_Driver/Src/stm32f4xx_hal.c ****   *            
 152:Vendor_HAL/ST/STM32F4xx_HAL_Driver/Src/stm32f4xx_hal.c ****   * @note   SysTick is used as time base for the HAL_Delay() function, the application
 153:Vendor_HAL/ST/STM32F4xx_HAL_Driver/Src/stm32f4xx_hal.c ****   *         need to ensure that the SysTick time base is always set to 1 millisecond
 154:Vendor_HAL/ST/STM32F4xx_HAL_Driver/Src/stm32f4xx_hal.c ****   *         to have correct HAL operation.
 155:Vendor_HAL/ST/STM32F4xx_HAL_Driver/Src/stm32f4xx_hal.c ****   * @retval HAL status
 156:Vendor_HAL/ST/STM32F4xx_HAL_Driver/Src/stm32f4xx_hal.c ****   */
 157:Vendor_HAL/ST/STM32F4xx_HAL_Driver/Src/stm32f4xx_hal.c **** HAL_StatusTypeDef HAL_Init(void)
 158:Vendor_HAL/ST/STM32F4xx_HAL_Driver/Src/stm32f4xx_hal.c **** {
 159:Vendor_HAL/ST/STM32F4xx_HAL_Driver/Src/stm32f4xx_hal.c ****   /* Configure Flash prefetch, Instruction cache, Data cache */ 
 160:Vendor_HAL/ST/STM32F4xx_HAL_Driver/Src/stm32f4xx_hal.c **** #if (INSTRUCTION_CACHE_ENABLE != 0U)
 161:Vendor_HAL/ST/STM32F4xx_HAL_Driver/Src/stm32f4xx_hal.c ****   __HAL_FLASH_INSTRUCTION_CACHE_ENABLE();
 162:Vendor_HAL/ST/STM32F4xx_HAL_Driver/Src/stm32f4xx_hal.c **** #endif /* INSTRUCTION_CACHE_ENABLE */
 163:Vendor_HAL/ST/STM32F4xx_HAL_Driver/Src/stm32f4xx_hal.c **** 
 164:Vendor_HAL/ST/STM32F4xx_HAL_Driver/Src/stm32f4xx_hal.c **** #if (DATA_CACHE_ENABLE != 0U)
 165:Vendor_HAL/ST/STM32F4xx_HAL_Driver/Src/stm32f4xx_hal.c ****   __HAL_FLASH_DATA_CACHE_ENABLE();
 166:Vendor_HAL/ST/STM32F4xx_HAL_Driver/Src/stm32f4xx_hal.c **** #endif /* DATA_CACHE_ENABLE */
 167:Vendor_HAL/ST/STM32F4xx_HAL_Driver/Src/stm32f4xx_hal.c **** 
 168:Vendor_HAL/ST/STM32F4xx_HAL_Driver/Src/stm32f4xx_hal.c **** #if (PREFETCH_ENABLE != 0U)
 169:Vendor_HAL/ST/STM32F4xx_HAL_Driver/Src/stm32f4xx_hal.c ****   __HAL_FLASH_PREFETCH_BUFFER_ENABLE();
 170:Vendor_HAL/ST/STM32F4xx_HAL_Driver/Src/stm32f4xx_hal.c **** #endif /* PREFETCH_ENABLE */
 171:Vendor_HAL/ST/STM32F4xx_HAL_Driver/Src/stm32f4xx_hal.c **** 
 172:Vendor_HAL/ST/STM32F4xx_HAL_Driver/Src/stm32f4xx_hal.c ****   /* Set Interrupt Group Priority */
 173:Vendor_HAL/ST/STM32F4xx_HAL_Driver/Src/stm32f4xx_hal.c ****   HAL_NVIC_SetPriorityGrouping(NVIC_PRIORITYGROUP_4);
 174:Vendor_HAL/ST/STM32F4xx_HAL_Driver/Src/stm32f4xx_hal.c **** 
 175:Vendor_HAL/ST/STM32F4xx_HAL_Driver/Src/stm32f4xx_hal.c ****   /* Use systick as time base source and configure 1ms tick (default clock after Reset is HSI) */
 176:Vendor_HAL/ST/STM32F4xx_HAL_Driver/Src/stm32f4xx_hal.c ****   HAL_InitTick(TICK_INT_PRIORITY);
 177:Vendor_HAL/ST/STM32F4xx_HAL_Driver/Src/stm32f4xx_hal.c **** 
 178:Vendor_HAL/ST/STM32F4xx_HAL_Driver/Src/stm32f4xx_hal.c ****   /* Init the low level hardware */
 179:Vendor_HAL/ST/STM32F4xx_HAL_Driver/Src/stm32f4xx_hal.c ****   HAL_MspInit();
 180:Vendor_HAL/ST/STM32F4xx_HAL_Driver/Src/stm32f4xx_hal.c **** 
 181:Vendor_HAL/ST/STM32F4xx_HAL_Driver/Src/stm32f4xx_hal.c ****   /* Return function status */
 182:Vendor_HAL/ST/STM32F4xx_HAL_Driver/Src/stm32f4xx_hal.c ****   return HAL_OK;
 183:Vendor_HAL/ST/STM32F4xx_HAL_Driver/Src/stm32f4xx_hal.c **** }
 184:Vendor_HAL/ST/STM32F4xx_HAL_Driver/Src/stm32f4xx_hal.c **** 
 185:Vendor_HAL/ST/STM32F4xx_HAL_Driver/Src/stm32f4xx_hal.c **** /**
 186:Vendor_HAL/ST/STM32F4xx_HAL_Driver/Src/stm32f4xx_hal.c ****   * @brief  This function de-Initializes common part of the HAL and stops the systick.
 187:Vendor_HAL/ST/STM32F4xx_HAL_Driver/Src/stm32f4xx_hal.c ****   *         This function is optional.   
 188:Vendor_HAL/ST/STM32F4xx_HAL_Driver/Src/stm32f4xx_hal.c ****   * @retval HAL status
 189:Vendor_HAL/ST/STM32F4xx_HAL_Driver/Src/stm32f4xx_hal.c ****   */
 190:Vendor_HAL/ST/STM32F4xx_HAL_Driver/Src/stm32f4xx_hal.c **** HAL_StatusTypeDef HAL_DeInit(void)
 191:Vendor_HAL/ST/STM32F4xx_HAL_Driver/Src/stm32f4xx_hal.c **** {
 192:Vendor_HAL/ST/STM32F4xx_HAL_Driver/Src/stm32f4xx_hal.c ****   /* Reset of all peripherals */
 193:Vendor_HAL/ST/STM32F4xx_HAL_Driver/Src/stm32f4xx_hal.c ****   __HAL_RCC_APB1_FORCE_RESET();
 194:Vendor_HAL/ST/STM32F4xx_HAL_Driver/Src/stm32f4xx_hal.c ****   __HAL_RCC_APB1_RELEASE_RESET();
 195:Vendor_HAL/ST/STM32F4xx_HAL_Driver/Src/stm32f4xx_hal.c **** 
 196:Vendor_HAL/ST/STM32F4xx_HAL_Driver/Src/stm32f4xx_hal.c ****   __HAL_RCC_APB2_FORCE_RESET();
 197:Vendor_HAL/ST/STM32F4xx_HAL_Driver/Src/stm32f4xx_hal.c ****   __HAL_RCC_APB2_RELEASE_RESET();
 198:Vendor_HAL/ST/STM32F4xx_HAL_Driver/Src/stm32f4xx_hal.c **** 
 199:Vendor_HAL/ST/STM32F4xx_HAL_Driver/Src/stm32f4xx_hal.c ****   __HAL_RCC_AHB1_FORCE_RESET();
 200:Vendor_HAL/ST/STM32F4xx_HAL_Driver/Src/stm32f4xx_hal.c ****   __HAL_RCC_AHB1_RELEASE_RESET();
 201:Vendor_HAL/ST/STM32F4xx_HAL_Driver/Src/stm32f4xx_hal.c **** 
ARM GAS  C:\Users\katre\AppData\Local\Temp\ccXpm6zu.s 			page 5


 202:Vendor_HAL/ST/STM32F4xx_HAL_Driver/Src/stm32f4xx_hal.c ****   __HAL_RCC_AHB2_FORCE_RESET();
 203:Vendor_HAL/ST/STM32F4xx_HAL_Driver/Src/stm32f4xx_hal.c ****   __HAL_RCC_AHB2_RELEASE_RESET();
 204:Vendor_HAL/ST/STM32F4xx_HAL_Driver/Src/stm32f4xx_hal.c **** 
 205:Vendor_HAL/ST/STM32F4xx_HAL_Driver/Src/stm32f4xx_hal.c ****   __HAL_RCC_AHB3_FORCE_RESET();
 206:Vendor_HAL/ST/STM32F4xx_HAL_Driver/Src/stm32f4xx_hal.c ****   __HAL_RCC_AHB3_RELEASE_RESET();
 207:Vendor_HAL/ST/STM32F4xx_HAL_Driver/Src/stm32f4xx_hal.c **** 
 208:Vendor_HAL/ST/STM32F4xx_HAL_Driver/Src/stm32f4xx_hal.c ****   /* De-Init the low level hardware */
 209:Vendor_HAL/ST/STM32F4xx_HAL_Driver/Src/stm32f4xx_hal.c ****   HAL_MspDeInit();
 210:Vendor_HAL/ST/STM32F4xx_HAL_Driver/Src/stm32f4xx_hal.c ****     
 211:Vendor_HAL/ST/STM32F4xx_HAL_Driver/Src/stm32f4xx_hal.c ****   /* Return function status */
 212:Vendor_HAL/ST/STM32F4xx_HAL_Driver/Src/stm32f4xx_hal.c ****   return HAL_OK;
 213:Vendor_HAL/ST/STM32F4xx_HAL_Driver/Src/stm32f4xx_hal.c **** }
 214:Vendor_HAL/ST/STM32F4xx_HAL_Driver/Src/stm32f4xx_hal.c **** 
 215:Vendor_HAL/ST/STM32F4xx_HAL_Driver/Src/stm32f4xx_hal.c **** /**
 216:Vendor_HAL/ST/STM32F4xx_HAL_Driver/Src/stm32f4xx_hal.c ****   * @brief  Initialize the MSP.
 217:Vendor_HAL/ST/STM32F4xx_HAL_Driver/Src/stm32f4xx_hal.c ****   * @retval None
 218:Vendor_HAL/ST/STM32F4xx_HAL_Driver/Src/stm32f4xx_hal.c ****   */
 219:Vendor_HAL/ST/STM32F4xx_HAL_Driver/Src/stm32f4xx_hal.c **** __weak void HAL_MspInit(void)
 220:Vendor_HAL/ST/STM32F4xx_HAL_Driver/Src/stm32f4xx_hal.c **** {
  29              		.loc 1 220 1 view -0
  30              		.cfi_startproc
  31              		@ args = 0, pretend = 0, frame = 0
  32              		@ frame_needed = 0, uses_anonymous_args = 0
  33              		@ link register save eliminated.
 221:Vendor_HAL/ST/STM32F4xx_HAL_Driver/Src/stm32f4xx_hal.c ****   /* NOTE : This function should not be modified, when the callback is needed,
 222:Vendor_HAL/ST/STM32F4xx_HAL_Driver/Src/stm32f4xx_hal.c ****             the HAL_MspInit could be implemented in the user file
 223:Vendor_HAL/ST/STM32F4xx_HAL_Driver/Src/stm32f4xx_hal.c ****    */
 224:Vendor_HAL/ST/STM32F4xx_HAL_Driver/Src/stm32f4xx_hal.c **** }
  34              		.loc 1 224 1 view .LVU1
  35 0000 7047     		bx	lr
  36              		.cfi_endproc
  37              	.LFE132:
  39              		.section	.text.HAL_MspDeInit,"ax",%progbits
  40              		.align	1
  41              		.weak	HAL_MspDeInit
  42              		.syntax unified
  43              		.thumb
  44              		.thumb_func
  46              	HAL_MspDeInit:
  47              	.LFB133:
 225:Vendor_HAL/ST/STM32F4xx_HAL_Driver/Src/stm32f4xx_hal.c **** 
 226:Vendor_HAL/ST/STM32F4xx_HAL_Driver/Src/stm32f4xx_hal.c **** /**
 227:Vendor_HAL/ST/STM32F4xx_HAL_Driver/Src/stm32f4xx_hal.c ****   * @brief  DeInitializes the MSP.
 228:Vendor_HAL/ST/STM32F4xx_HAL_Driver/Src/stm32f4xx_hal.c ****   * @retval None
 229:Vendor_HAL/ST/STM32F4xx_HAL_Driver/Src/stm32f4xx_hal.c ****   */
 230:Vendor_HAL/ST/STM32F4xx_HAL_Driver/Src/stm32f4xx_hal.c **** __weak void HAL_MspDeInit(void)
 231:Vendor_HAL/ST/STM32F4xx_HAL_Driver/Src/stm32f4xx_hal.c **** {
  48              		.loc 1 231 1 view -0
  49              		.cfi_startproc
  50              		@ args = 0, pretend = 0, frame = 0
  51              		@ frame_needed = 0, uses_anonymous_args = 0
  52              		@ link register save eliminated.
 232:Vendor_HAL/ST/STM32F4xx_HAL_Driver/Src/stm32f4xx_hal.c ****   /* NOTE : This function should not be modified, when the callback is needed,
 233:Vendor_HAL/ST/STM32F4xx_HAL_Driver/Src/stm32f4xx_hal.c ****             the HAL_MspDeInit could be implemented in the user file
 234:Vendor_HAL/ST/STM32F4xx_HAL_Driver/Src/stm32f4xx_hal.c ****    */ 
 235:Vendor_HAL/ST/STM32F4xx_HAL_Driver/Src/stm32f4xx_hal.c **** }
  53              		.loc 1 235 1 view .LVU3
ARM GAS  C:\Users\katre\AppData\Local\Temp\ccXpm6zu.s 			page 6


  54 0000 7047     		bx	lr
  55              		.cfi_endproc
  56              	.LFE133:
  58              		.section	.text.HAL_DeInit,"ax",%progbits
  59              		.align	1
  60              		.global	HAL_DeInit
  61              		.syntax unified
  62              		.thumb
  63              		.thumb_func
  65              	HAL_DeInit:
  66              	.LFB131:
 191:Vendor_HAL/ST/STM32F4xx_HAL_Driver/Src/stm32f4xx_hal.c ****   /* Reset of all peripherals */
  67              		.loc 1 191 1 view -0
  68              		.cfi_startproc
  69              		@ args = 0, pretend = 0, frame = 0
  70              		@ frame_needed = 0, uses_anonymous_args = 0
  71 0000 10B5     		push	{r4, lr}
  72              	.LCFI0:
  73              		.cfi_def_cfa_offset 8
  74              		.cfi_offset 4, -8
  75              		.cfi_offset 14, -4
 193:Vendor_HAL/ST/STM32F4xx_HAL_Driver/Src/stm32f4xx_hal.c ****   __HAL_RCC_APB1_RELEASE_RESET();
  76              		.loc 1 193 3 view .LVU5
  77 0002 094B     		ldr	r3, .L5
  78 0004 4FF0FF32 		mov	r2, #-1
  79 0008 1A62     		str	r2, [r3, #32]
 194:Vendor_HAL/ST/STM32F4xx_HAL_Driver/Src/stm32f4xx_hal.c **** 
  80              		.loc 1 194 3 view .LVU6
  81 000a 0024     		movs	r4, #0
  82 000c 1C62     		str	r4, [r3, #32]
 196:Vendor_HAL/ST/STM32F4xx_HAL_Driver/Src/stm32f4xx_hal.c ****   __HAL_RCC_APB2_RELEASE_RESET();
  83              		.loc 1 196 3 view .LVU7
  84 000e 5A62     		str	r2, [r3, #36]
 197:Vendor_HAL/ST/STM32F4xx_HAL_Driver/Src/stm32f4xx_hal.c **** 
  85              		.loc 1 197 3 view .LVU8
  86 0010 5C62     		str	r4, [r3, #36]
 199:Vendor_HAL/ST/STM32F4xx_HAL_Driver/Src/stm32f4xx_hal.c ****   __HAL_RCC_AHB1_RELEASE_RESET();
  87              		.loc 1 199 3 view .LVU9
  88 0012 1A61     		str	r2, [r3, #16]
 200:Vendor_HAL/ST/STM32F4xx_HAL_Driver/Src/stm32f4xx_hal.c **** 
  89              		.loc 1 200 3 view .LVU10
  90 0014 1C61     		str	r4, [r3, #16]
 202:Vendor_HAL/ST/STM32F4xx_HAL_Driver/Src/stm32f4xx_hal.c ****   __HAL_RCC_AHB2_RELEASE_RESET();
  91              		.loc 1 202 3 view .LVU11
  92 0016 5A61     		str	r2, [r3, #20]
 203:Vendor_HAL/ST/STM32F4xx_HAL_Driver/Src/stm32f4xx_hal.c **** 
  93              		.loc 1 203 3 view .LVU12
  94 0018 5C61     		str	r4, [r3, #20]
 205:Vendor_HAL/ST/STM32F4xx_HAL_Driver/Src/stm32f4xx_hal.c ****   __HAL_RCC_AHB3_RELEASE_RESET();
  95              		.loc 1 205 3 view .LVU13
  96 001a 9A61     		str	r2, [r3, #24]
 206:Vendor_HAL/ST/STM32F4xx_HAL_Driver/Src/stm32f4xx_hal.c **** 
  97              		.loc 1 206 3 view .LVU14
  98 001c 9C61     		str	r4, [r3, #24]
 209:Vendor_HAL/ST/STM32F4xx_HAL_Driver/Src/stm32f4xx_hal.c ****     
  99              		.loc 1 209 3 view .LVU15
 100 001e FFF7FEFF 		bl	HAL_MspDeInit
ARM GAS  C:\Users\katre\AppData\Local\Temp\ccXpm6zu.s 			page 7


 101              	.LVL0:
 212:Vendor_HAL/ST/STM32F4xx_HAL_Driver/Src/stm32f4xx_hal.c **** }
 102              		.loc 1 212 3 view .LVU16
 213:Vendor_HAL/ST/STM32F4xx_HAL_Driver/Src/stm32f4xx_hal.c **** 
 103              		.loc 1 213 1 is_stmt 0 view .LVU17
 104 0022 2046     		mov	r0, r4
 105 0024 10BD     		pop	{r4, pc}
 106              	.L6:
 107 0026 00BF     		.align	2
 108              	.L5:
 109 0028 00380240 		.word	1073887232
 110              		.cfi_endproc
 111              	.LFE131:
 113              		.section	.text.HAL_InitTick,"ax",%progbits
 114              		.align	1
 115              		.weak	HAL_InitTick
 116              		.syntax unified
 117              		.thumb
 118              		.thumb_func
 120              	HAL_InitTick:
 121              	.LVL1:
 122              	.LFB134:
 236:Vendor_HAL/ST/STM32F4xx_HAL_Driver/Src/stm32f4xx_hal.c **** 
 237:Vendor_HAL/ST/STM32F4xx_HAL_Driver/Src/stm32f4xx_hal.c **** /**
 238:Vendor_HAL/ST/STM32F4xx_HAL_Driver/Src/stm32f4xx_hal.c ****   * @brief This function configures the source of the time base.
 239:Vendor_HAL/ST/STM32F4xx_HAL_Driver/Src/stm32f4xx_hal.c ****   *        The time source is configured  to have 1ms time base with a dedicated 
 240:Vendor_HAL/ST/STM32F4xx_HAL_Driver/Src/stm32f4xx_hal.c ****   *        Tick interrupt priority.
 241:Vendor_HAL/ST/STM32F4xx_HAL_Driver/Src/stm32f4xx_hal.c ****   * @note This function is called  automatically at the beginning of program after
 242:Vendor_HAL/ST/STM32F4xx_HAL_Driver/Src/stm32f4xx_hal.c ****   *       reset by HAL_Init() or at any time when clock is reconfigured  by HAL_RCC_ClockConfig().
 243:Vendor_HAL/ST/STM32F4xx_HAL_Driver/Src/stm32f4xx_hal.c ****   * @note In the default implementation, SysTick timer is the source of time base. 
 244:Vendor_HAL/ST/STM32F4xx_HAL_Driver/Src/stm32f4xx_hal.c ****   *       It is used to generate interrupts at regular time intervals. 
 245:Vendor_HAL/ST/STM32F4xx_HAL_Driver/Src/stm32f4xx_hal.c ****   *       Care must be taken if HAL_Delay() is called from a peripheral ISR process, 
 246:Vendor_HAL/ST/STM32F4xx_HAL_Driver/Src/stm32f4xx_hal.c ****   *       The SysTick interrupt must have higher priority (numerically lower)
 247:Vendor_HAL/ST/STM32F4xx_HAL_Driver/Src/stm32f4xx_hal.c ****   *       than the peripheral interrupt. Otherwise the caller ISR process will be blocked.
 248:Vendor_HAL/ST/STM32F4xx_HAL_Driver/Src/stm32f4xx_hal.c ****   *       The function is declared as __weak  to be overwritten  in case of other
 249:Vendor_HAL/ST/STM32F4xx_HAL_Driver/Src/stm32f4xx_hal.c ****   *       implementation  in user file.
 250:Vendor_HAL/ST/STM32F4xx_HAL_Driver/Src/stm32f4xx_hal.c ****   * @param TickPriority Tick interrupt priority.
 251:Vendor_HAL/ST/STM32F4xx_HAL_Driver/Src/stm32f4xx_hal.c ****   * @retval HAL status
 252:Vendor_HAL/ST/STM32F4xx_HAL_Driver/Src/stm32f4xx_hal.c ****   */
 253:Vendor_HAL/ST/STM32F4xx_HAL_Driver/Src/stm32f4xx_hal.c **** __weak HAL_StatusTypeDef HAL_InitTick(uint32_t TickPriority)
 254:Vendor_HAL/ST/STM32F4xx_HAL_Driver/Src/stm32f4xx_hal.c **** {
 123              		.loc 1 254 1 is_stmt 1 view -0
 124              		.cfi_startproc
 125              		@ args = 0, pretend = 0, frame = 0
 126              		@ frame_needed = 0, uses_anonymous_args = 0
 127              		.loc 1 254 1 is_stmt 0 view .LVU19
 128 0000 10B5     		push	{r4, lr}
 129              	.LCFI1:
 130              		.cfi_def_cfa_offset 8
 131              		.cfi_offset 4, -8
 132              		.cfi_offset 14, -4
 133 0002 0446     		mov	r4, r0
 255:Vendor_HAL/ST/STM32F4xx_HAL_Driver/Src/stm32f4xx_hal.c ****   /* Configure the SysTick to have interrupt in 1ms time basis*/
 256:Vendor_HAL/ST/STM32F4xx_HAL_Driver/Src/stm32f4xx_hal.c ****   if (HAL_SYSTICK_Config(SystemCoreClock / (1000U / uwTickFreq)) > 0U)
 134              		.loc 1 256 3 is_stmt 1 view .LVU20
 135              		.loc 1 256 51 is_stmt 0 view .LVU21
 136 0004 0E4B     		ldr	r3, .L13
ARM GAS  C:\Users\katre\AppData\Local\Temp\ccXpm6zu.s 			page 8


 137 0006 1878     		ldrb	r0, [r3]	@ zero_extendqisi2
 138              	.LVL2:
 139              		.loc 1 256 51 view .LVU22
 140 0008 4FF47A73 		mov	r3, #1000
 141 000c B3FBF0F3 		udiv	r3, r3, r0
 142              		.loc 1 256 7 view .LVU23
 143 0010 0C4A     		ldr	r2, .L13+4
 144 0012 1068     		ldr	r0, [r2]
 145 0014 B0FBF3F0 		udiv	r0, r0, r3
 146 0018 FFF7FEFF 		bl	HAL_SYSTICK_Config
 147              	.LVL3:
 148              		.loc 1 256 6 view .LVU24
 149 001c 68B9     		cbnz	r0, .L9
 257:Vendor_HAL/ST/STM32F4xx_HAL_Driver/Src/stm32f4xx_hal.c ****   {
 258:Vendor_HAL/ST/STM32F4xx_HAL_Driver/Src/stm32f4xx_hal.c ****     return HAL_ERROR;
 259:Vendor_HAL/ST/STM32F4xx_HAL_Driver/Src/stm32f4xx_hal.c ****   }
 260:Vendor_HAL/ST/STM32F4xx_HAL_Driver/Src/stm32f4xx_hal.c **** 
 261:Vendor_HAL/ST/STM32F4xx_HAL_Driver/Src/stm32f4xx_hal.c ****   /* Configure the SysTick IRQ priority */
 262:Vendor_HAL/ST/STM32F4xx_HAL_Driver/Src/stm32f4xx_hal.c ****   if (TickPriority < (1UL << __NVIC_PRIO_BITS))
 150              		.loc 1 262 3 is_stmt 1 view .LVU25
 151              		.loc 1 262 6 is_stmt 0 view .LVU26
 152 001e 0F2C     		cmp	r4, #15
 153 0020 01D9     		bls	.L12
 263:Vendor_HAL/ST/STM32F4xx_HAL_Driver/Src/stm32f4xx_hal.c ****   {
 264:Vendor_HAL/ST/STM32F4xx_HAL_Driver/Src/stm32f4xx_hal.c ****     HAL_NVIC_SetPriority(SysTick_IRQn, TickPriority, 0U);
 265:Vendor_HAL/ST/STM32F4xx_HAL_Driver/Src/stm32f4xx_hal.c ****     uwTickPrio = TickPriority;
 266:Vendor_HAL/ST/STM32F4xx_HAL_Driver/Src/stm32f4xx_hal.c ****   }
 267:Vendor_HAL/ST/STM32F4xx_HAL_Driver/Src/stm32f4xx_hal.c ****   else
 268:Vendor_HAL/ST/STM32F4xx_HAL_Driver/Src/stm32f4xx_hal.c ****   {
 269:Vendor_HAL/ST/STM32F4xx_HAL_Driver/Src/stm32f4xx_hal.c ****     return HAL_ERROR;
 154              		.loc 1 269 12 view .LVU27
 155 0022 0120     		movs	r0, #1
 156 0024 0AE0     		b	.L8
 157              	.L12:
 264:Vendor_HAL/ST/STM32F4xx_HAL_Driver/Src/stm32f4xx_hal.c ****     uwTickPrio = TickPriority;
 158              		.loc 1 264 5 is_stmt 1 view .LVU28
 159 0026 0022     		movs	r2, #0
 160 0028 2146     		mov	r1, r4
 161 002a 4FF0FF30 		mov	r0, #-1
 162 002e FFF7FEFF 		bl	HAL_NVIC_SetPriority
 163              	.LVL4:
 265:Vendor_HAL/ST/STM32F4xx_HAL_Driver/Src/stm32f4xx_hal.c ****   }
 164              		.loc 1 265 5 view .LVU29
 265:Vendor_HAL/ST/STM32F4xx_HAL_Driver/Src/stm32f4xx_hal.c ****   }
 165              		.loc 1 265 16 is_stmt 0 view .LVU30
 166 0032 054B     		ldr	r3, .L13+8
 167 0034 1C60     		str	r4, [r3]
 270:Vendor_HAL/ST/STM32F4xx_HAL_Driver/Src/stm32f4xx_hal.c ****   }
 271:Vendor_HAL/ST/STM32F4xx_HAL_Driver/Src/stm32f4xx_hal.c **** 
 272:Vendor_HAL/ST/STM32F4xx_HAL_Driver/Src/stm32f4xx_hal.c ****   /* Return function status */
 273:Vendor_HAL/ST/STM32F4xx_HAL_Driver/Src/stm32f4xx_hal.c ****   return HAL_OK;
 168              		.loc 1 273 3 is_stmt 1 view .LVU31
 169              		.loc 1 273 10 is_stmt 0 view .LVU32
 170 0036 0020     		movs	r0, #0
 171 0038 00E0     		b	.L8
 172              	.L9:
 258:Vendor_HAL/ST/STM32F4xx_HAL_Driver/Src/stm32f4xx_hal.c ****   }
ARM GAS  C:\Users\katre\AppData\Local\Temp\ccXpm6zu.s 			page 9


 173              		.loc 1 258 12 view .LVU33
 174 003a 0120     		movs	r0, #1
 175              	.L8:
 274:Vendor_HAL/ST/STM32F4xx_HAL_Driver/Src/stm32f4xx_hal.c **** }
 176              		.loc 1 274 1 view .LVU34
 177 003c 10BD     		pop	{r4, pc}
 178              	.LVL5:
 179              	.L14:
 180              		.loc 1 274 1 view .LVU35
 181 003e 00BF     		.align	2
 182              	.L13:
 183 0040 00000000 		.word	.LANCHOR0
 184 0044 00000000 		.word	SystemCoreClock
 185 0048 00000000 		.word	.LANCHOR1
 186              		.cfi_endproc
 187              	.LFE134:
 189              		.section	.text.HAL_Init,"ax",%progbits
 190              		.align	1
 191              		.global	HAL_Init
 192              		.syntax unified
 193              		.thumb
 194              		.thumb_func
 196              	HAL_Init:
 197              	.LFB130:
 158:Vendor_HAL/ST/STM32F4xx_HAL_Driver/Src/stm32f4xx_hal.c ****   /* Configure Flash prefetch, Instruction cache, Data cache */ 
 198              		.loc 1 158 1 is_stmt 1 view -0
 199              		.cfi_startproc
 200              		@ args = 0, pretend = 0, frame = 0
 201              		@ frame_needed = 0, uses_anonymous_args = 0
 202 0000 08B5     		push	{r3, lr}
 203              	.LCFI2:
 204              		.cfi_def_cfa_offset 8
 205              		.cfi_offset 3, -8
 206              		.cfi_offset 14, -4
 161:Vendor_HAL/ST/STM32F4xx_HAL_Driver/Src/stm32f4xx_hal.c **** #endif /* INSTRUCTION_CACHE_ENABLE */
 207              		.loc 1 161 3 view .LVU37
 208 0002 0B4B     		ldr	r3, .L17
 209 0004 1A68     		ldr	r2, [r3]
 210 0006 42F40072 		orr	r2, r2, #512
 211 000a 1A60     		str	r2, [r3]
 165:Vendor_HAL/ST/STM32F4xx_HAL_Driver/Src/stm32f4xx_hal.c **** #endif /* DATA_CACHE_ENABLE */
 212              		.loc 1 165 3 view .LVU38
 213 000c 1A68     		ldr	r2, [r3]
 214 000e 42F48062 		orr	r2, r2, #1024
 215 0012 1A60     		str	r2, [r3]
 169:Vendor_HAL/ST/STM32F4xx_HAL_Driver/Src/stm32f4xx_hal.c **** #endif /* PREFETCH_ENABLE */
 216              		.loc 1 169 3 view .LVU39
 217 0014 1A68     		ldr	r2, [r3]
 218 0016 42F48072 		orr	r2, r2, #256
 219 001a 1A60     		str	r2, [r3]
 173:Vendor_HAL/ST/STM32F4xx_HAL_Driver/Src/stm32f4xx_hal.c **** 
 220              		.loc 1 173 3 view .LVU40
 221 001c 0320     		movs	r0, #3
 222 001e FFF7FEFF 		bl	HAL_NVIC_SetPriorityGrouping
 223              	.LVL6:
 176:Vendor_HAL/ST/STM32F4xx_HAL_Driver/Src/stm32f4xx_hal.c **** 
 224              		.loc 1 176 3 view .LVU41
ARM GAS  C:\Users\katre\AppData\Local\Temp\ccXpm6zu.s 			page 10


 225 0022 0F20     		movs	r0, #15
 226 0024 FFF7FEFF 		bl	HAL_InitTick
 227              	.LVL7:
 179:Vendor_HAL/ST/STM32F4xx_HAL_Driver/Src/stm32f4xx_hal.c **** 
 228              		.loc 1 179 3 view .LVU42
 229 0028 FFF7FEFF 		bl	HAL_MspInit
 230              	.LVL8:
 182:Vendor_HAL/ST/STM32F4xx_HAL_Driver/Src/stm32f4xx_hal.c **** }
 231              		.loc 1 182 3 view .LVU43
 183:Vendor_HAL/ST/STM32F4xx_HAL_Driver/Src/stm32f4xx_hal.c **** 
 232              		.loc 1 183 1 is_stmt 0 view .LVU44
 233 002c 0020     		movs	r0, #0
 234 002e 08BD     		pop	{r3, pc}
 235              	.L18:
 236              		.align	2
 237              	.L17:
 238 0030 003C0240 		.word	1073888256
 239              		.cfi_endproc
 240              	.LFE130:
 242              		.section	.text.HAL_IncTick,"ax",%progbits
 243              		.align	1
 244              		.weak	HAL_IncTick
 245              		.syntax unified
 246              		.thumb
 247              		.thumb_func
 249              	HAL_IncTick:
 250              	.LFB135:
 275:Vendor_HAL/ST/STM32F4xx_HAL_Driver/Src/stm32f4xx_hal.c **** 
 276:Vendor_HAL/ST/STM32F4xx_HAL_Driver/Src/stm32f4xx_hal.c **** /**
 277:Vendor_HAL/ST/STM32F4xx_HAL_Driver/Src/stm32f4xx_hal.c ****   * @}
 278:Vendor_HAL/ST/STM32F4xx_HAL_Driver/Src/stm32f4xx_hal.c ****   */
 279:Vendor_HAL/ST/STM32F4xx_HAL_Driver/Src/stm32f4xx_hal.c **** 
 280:Vendor_HAL/ST/STM32F4xx_HAL_Driver/Src/stm32f4xx_hal.c **** /** @defgroup HAL_Exported_Functions_Group2 HAL Control functions 
 281:Vendor_HAL/ST/STM32F4xx_HAL_Driver/Src/stm32f4xx_hal.c ****  *  @brief    HAL Control functions
 282:Vendor_HAL/ST/STM32F4xx_HAL_Driver/Src/stm32f4xx_hal.c ****  *
 283:Vendor_HAL/ST/STM32F4xx_HAL_Driver/Src/stm32f4xx_hal.c **** @verbatim
 284:Vendor_HAL/ST/STM32F4xx_HAL_Driver/Src/stm32f4xx_hal.c ****  ===============================================================================
 285:Vendor_HAL/ST/STM32F4xx_HAL_Driver/Src/stm32f4xx_hal.c ****                       ##### HAL Control functions #####
 286:Vendor_HAL/ST/STM32F4xx_HAL_Driver/Src/stm32f4xx_hal.c ****  ===============================================================================
 287:Vendor_HAL/ST/STM32F4xx_HAL_Driver/Src/stm32f4xx_hal.c ****     [..]  This section provides functions allowing to:
 288:Vendor_HAL/ST/STM32F4xx_HAL_Driver/Src/stm32f4xx_hal.c ****       (+) Provide a tick value in millisecond
 289:Vendor_HAL/ST/STM32F4xx_HAL_Driver/Src/stm32f4xx_hal.c ****       (+) Provide a blocking delay in millisecond
 290:Vendor_HAL/ST/STM32F4xx_HAL_Driver/Src/stm32f4xx_hal.c ****       (+) Suspend the time base source interrupt
 291:Vendor_HAL/ST/STM32F4xx_HAL_Driver/Src/stm32f4xx_hal.c ****       (+) Resume the time base source interrupt
 292:Vendor_HAL/ST/STM32F4xx_HAL_Driver/Src/stm32f4xx_hal.c ****       (+) Get the HAL API driver version
 293:Vendor_HAL/ST/STM32F4xx_HAL_Driver/Src/stm32f4xx_hal.c ****       (+) Get the device identifier
 294:Vendor_HAL/ST/STM32F4xx_HAL_Driver/Src/stm32f4xx_hal.c ****       (+) Get the device revision identifier
 295:Vendor_HAL/ST/STM32F4xx_HAL_Driver/Src/stm32f4xx_hal.c ****       (+) Enable/Disable Debug module during SLEEP mode
 296:Vendor_HAL/ST/STM32F4xx_HAL_Driver/Src/stm32f4xx_hal.c ****       (+) Enable/Disable Debug module during STOP mode
 297:Vendor_HAL/ST/STM32F4xx_HAL_Driver/Src/stm32f4xx_hal.c ****       (+) Enable/Disable Debug module during STANDBY mode
 298:Vendor_HAL/ST/STM32F4xx_HAL_Driver/Src/stm32f4xx_hal.c **** 
 299:Vendor_HAL/ST/STM32F4xx_HAL_Driver/Src/stm32f4xx_hal.c **** @endverbatim
 300:Vendor_HAL/ST/STM32F4xx_HAL_Driver/Src/stm32f4xx_hal.c ****   * @{
 301:Vendor_HAL/ST/STM32F4xx_HAL_Driver/Src/stm32f4xx_hal.c ****   */
 302:Vendor_HAL/ST/STM32F4xx_HAL_Driver/Src/stm32f4xx_hal.c **** 
 303:Vendor_HAL/ST/STM32F4xx_HAL_Driver/Src/stm32f4xx_hal.c **** /**
 304:Vendor_HAL/ST/STM32F4xx_HAL_Driver/Src/stm32f4xx_hal.c ****   * @brief This function is called to increment  a global variable "uwTick"
ARM GAS  C:\Users\katre\AppData\Local\Temp\ccXpm6zu.s 			page 11


 305:Vendor_HAL/ST/STM32F4xx_HAL_Driver/Src/stm32f4xx_hal.c ****   *        used as application time base.
 306:Vendor_HAL/ST/STM32F4xx_HAL_Driver/Src/stm32f4xx_hal.c ****   * @note In the default implementation, this variable is incremented each 1ms
 307:Vendor_HAL/ST/STM32F4xx_HAL_Driver/Src/stm32f4xx_hal.c ****   *       in SysTick ISR.
 308:Vendor_HAL/ST/STM32F4xx_HAL_Driver/Src/stm32f4xx_hal.c ****  * @note This function is declared as __weak to be overwritten in case of other 
 309:Vendor_HAL/ST/STM32F4xx_HAL_Driver/Src/stm32f4xx_hal.c ****   *      implementations in user file.
 310:Vendor_HAL/ST/STM32F4xx_HAL_Driver/Src/stm32f4xx_hal.c ****   * @retval None
 311:Vendor_HAL/ST/STM32F4xx_HAL_Driver/Src/stm32f4xx_hal.c ****   */
 312:Vendor_HAL/ST/STM32F4xx_HAL_Driver/Src/stm32f4xx_hal.c **** __weak void HAL_IncTick(void)
 313:Vendor_HAL/ST/STM32F4xx_HAL_Driver/Src/stm32f4xx_hal.c **** {
 251              		.loc 1 313 1 is_stmt 1 view -0
 252              		.cfi_startproc
 253              		@ args = 0, pretend = 0, frame = 0
 254              		@ frame_needed = 0, uses_anonymous_args = 0
 255              		@ link register save eliminated.
 314:Vendor_HAL/ST/STM32F4xx_HAL_Driver/Src/stm32f4xx_hal.c ****   uwTick += uwTickFreq;
 256              		.loc 1 314 3 view .LVU46
 257              		.loc 1 314 10 is_stmt 0 view .LVU47
 258 0000 034A     		ldr	r2, .L20
 259 0002 1168     		ldr	r1, [r2]
 260 0004 034B     		ldr	r3, .L20+4
 261 0006 1B78     		ldrb	r3, [r3]	@ zero_extendqisi2
 262 0008 0B44     		add	r3, r3, r1
 263 000a 1360     		str	r3, [r2]
 315:Vendor_HAL/ST/STM32F4xx_HAL_Driver/Src/stm32f4xx_hal.c **** }
 264              		.loc 1 315 1 view .LVU48
 265 000c 7047     		bx	lr
 266              	.L21:
 267 000e 00BF     		.align	2
 268              	.L20:
 269 0010 00000000 		.word	.LANCHOR2
 270 0014 00000000 		.word	.LANCHOR0
 271              		.cfi_endproc
 272              	.LFE135:
 274              		.section	.text.HAL_GetTick,"ax",%progbits
 275              		.align	1
 276              		.weak	HAL_GetTick
 277              		.syntax unified
 278              		.thumb
 279              		.thumb_func
 281              	HAL_GetTick:
 282              	.LFB136:
 316:Vendor_HAL/ST/STM32F4xx_HAL_Driver/Src/stm32f4xx_hal.c **** 
 317:Vendor_HAL/ST/STM32F4xx_HAL_Driver/Src/stm32f4xx_hal.c **** /**
 318:Vendor_HAL/ST/STM32F4xx_HAL_Driver/Src/stm32f4xx_hal.c ****   * @brief Provides a tick value in millisecond.
 319:Vendor_HAL/ST/STM32F4xx_HAL_Driver/Src/stm32f4xx_hal.c ****   * @note This function is declared as __weak to be overwritten in case of other 
 320:Vendor_HAL/ST/STM32F4xx_HAL_Driver/Src/stm32f4xx_hal.c ****   *       implementations in user file.
 321:Vendor_HAL/ST/STM32F4xx_HAL_Driver/Src/stm32f4xx_hal.c ****   * @retval tick value
 322:Vendor_HAL/ST/STM32F4xx_HAL_Driver/Src/stm32f4xx_hal.c ****   */
 323:Vendor_HAL/ST/STM32F4xx_HAL_Driver/Src/stm32f4xx_hal.c **** __weak uint32_t HAL_GetTick(void)
 324:Vendor_HAL/ST/STM32F4xx_HAL_Driver/Src/stm32f4xx_hal.c **** {
 283              		.loc 1 324 1 is_stmt 1 view -0
 284              		.cfi_startproc
 285              		@ args = 0, pretend = 0, frame = 0
 286              		@ frame_needed = 0, uses_anonymous_args = 0
 287              		@ link register save eliminated.
 325:Vendor_HAL/ST/STM32F4xx_HAL_Driver/Src/stm32f4xx_hal.c ****   return uwTick;
 288              		.loc 1 325 3 view .LVU50
ARM GAS  C:\Users\katre\AppData\Local\Temp\ccXpm6zu.s 			page 12


 289              		.loc 1 325 10 is_stmt 0 view .LVU51
 290 0000 014B     		ldr	r3, .L23
 291 0002 1868     		ldr	r0, [r3]
 326:Vendor_HAL/ST/STM32F4xx_HAL_Driver/Src/stm32f4xx_hal.c **** }
 292              		.loc 1 326 1 view .LVU52
 293 0004 7047     		bx	lr
 294              	.L24:
 295 0006 00BF     		.align	2
 296              	.L23:
 297 0008 00000000 		.word	.LANCHOR2
 298              		.cfi_endproc
 299              	.LFE136:
 301              		.section	.text.HAL_GetTickPrio,"ax",%progbits
 302              		.align	1
 303              		.global	HAL_GetTickPrio
 304              		.syntax unified
 305              		.thumb
 306              		.thumb_func
 308              	HAL_GetTickPrio:
 309              	.LFB137:
 327:Vendor_HAL/ST/STM32F4xx_HAL_Driver/Src/stm32f4xx_hal.c **** 
 328:Vendor_HAL/ST/STM32F4xx_HAL_Driver/Src/stm32f4xx_hal.c **** /**
 329:Vendor_HAL/ST/STM32F4xx_HAL_Driver/Src/stm32f4xx_hal.c ****   * @brief This function returns a tick priority.
 330:Vendor_HAL/ST/STM32F4xx_HAL_Driver/Src/stm32f4xx_hal.c ****   * @retval tick priority
 331:Vendor_HAL/ST/STM32F4xx_HAL_Driver/Src/stm32f4xx_hal.c ****   */
 332:Vendor_HAL/ST/STM32F4xx_HAL_Driver/Src/stm32f4xx_hal.c **** uint32_t HAL_GetTickPrio(void)
 333:Vendor_HAL/ST/STM32F4xx_HAL_Driver/Src/stm32f4xx_hal.c **** {
 310              		.loc 1 333 1 is_stmt 1 view -0
 311              		.cfi_startproc
 312              		@ args = 0, pretend = 0, frame = 0
 313              		@ frame_needed = 0, uses_anonymous_args = 0
 314              		@ link register save eliminated.
 334:Vendor_HAL/ST/STM32F4xx_HAL_Driver/Src/stm32f4xx_hal.c ****   return uwTickPrio;
 315              		.loc 1 334 3 view .LVU54
 335:Vendor_HAL/ST/STM32F4xx_HAL_Driver/Src/stm32f4xx_hal.c **** }
 316              		.loc 1 335 1 is_stmt 0 view .LVU55
 317 0000 014B     		ldr	r3, .L26
 318 0002 1868     		ldr	r0, [r3]
 319 0004 7047     		bx	lr
 320              	.L27:
 321 0006 00BF     		.align	2
 322              	.L26:
 323 0008 00000000 		.word	.LANCHOR1
 324              		.cfi_endproc
 325              	.LFE137:
 327              		.section	.rodata.HAL_SetTickFreq.str1.4,"aMS",%progbits,1
 328              		.align	2
 329              	.LC0:
 330 0000 56656E64 		.ascii	"Vendor_HAL/ST/STM32F4xx_HAL_Driver/Src/stm32f4xx_ha"
 330      6F725F48 
 330      414C2F53 
 330      542F5354 
 330      4D333246 
 331 0033 6C2E6300 		.ascii	"l.c\000"
 332              		.section	.text.HAL_SetTickFreq,"ax",%progbits
 333              		.align	1
 334              		.global	HAL_SetTickFreq
ARM GAS  C:\Users\katre\AppData\Local\Temp\ccXpm6zu.s 			page 13


 335              		.syntax unified
 336              		.thumb
 337              		.thumb_func
 339              	HAL_SetTickFreq:
 340              	.LVL9:
 341              	.LFB138:
 336:Vendor_HAL/ST/STM32F4xx_HAL_Driver/Src/stm32f4xx_hal.c **** 
 337:Vendor_HAL/ST/STM32F4xx_HAL_Driver/Src/stm32f4xx_hal.c **** /**
 338:Vendor_HAL/ST/STM32F4xx_HAL_Driver/Src/stm32f4xx_hal.c ****   * @brief Set new tick Freq.
 339:Vendor_HAL/ST/STM32F4xx_HAL_Driver/Src/stm32f4xx_hal.c ****   * @retval Status
 340:Vendor_HAL/ST/STM32F4xx_HAL_Driver/Src/stm32f4xx_hal.c ****   */
 341:Vendor_HAL/ST/STM32F4xx_HAL_Driver/Src/stm32f4xx_hal.c **** HAL_StatusTypeDef HAL_SetTickFreq(HAL_TickFreqTypeDef Freq)
 342:Vendor_HAL/ST/STM32F4xx_HAL_Driver/Src/stm32f4xx_hal.c **** {
 342              		.loc 1 342 1 is_stmt 1 view -0
 343              		.cfi_startproc
 344              		@ args = 0, pretend = 0, frame = 0
 345              		@ frame_needed = 0, uses_anonymous_args = 0
 346              		.loc 1 342 1 is_stmt 0 view .LVU57
 347 0000 38B5     		push	{r3, r4, r5, lr}
 348              	.LCFI3:
 349              		.cfi_def_cfa_offset 16
 350              		.cfi_offset 3, -16
 351              		.cfi_offset 4, -12
 352              		.cfi_offset 5, -8
 353              		.cfi_offset 14, -4
 354 0002 0446     		mov	r4, r0
 343:Vendor_HAL/ST/STM32F4xx_HAL_Driver/Src/stm32f4xx_hal.c ****   HAL_StatusTypeDef status  = HAL_OK;
 355              		.loc 1 343 3 is_stmt 1 view .LVU58
 356              	.LVL10:
 344:Vendor_HAL/ST/STM32F4xx_HAL_Driver/Src/stm32f4xx_hal.c ****   HAL_TickFreqTypeDef prevTickFreq;
 357              		.loc 1 344 3 view .LVU59
 345:Vendor_HAL/ST/STM32F4xx_HAL_Driver/Src/stm32f4xx_hal.c **** 
 346:Vendor_HAL/ST/STM32F4xx_HAL_Driver/Src/stm32f4xx_hal.c ****   assert_param(IS_TICKFREQ(Freq));
 358              		.loc 1 346 3 view .LVU60
 359 0004 6428     		cmp	r0, #100
 360 0006 03D0     		beq	.L29
 361              		.loc 1 346 3 is_stmt 0 discriminator 1 view .LVU61
 362 0008 0A28     		cmp	r0, #10
 363 000a 01D0     		beq	.L29
 364              		.loc 1 346 3 discriminator 2 view .LVU62
 365 000c 0128     		cmp	r0, #1
 366 000e 05D1     		bne	.L33
 367              	.LVL11:
 368              	.L29:
 347:Vendor_HAL/ST/STM32F4xx_HAL_Driver/Src/stm32f4xx_hal.c **** 
 348:Vendor_HAL/ST/STM32F4xx_HAL_Driver/Src/stm32f4xx_hal.c ****   if (uwTickFreq != Freq)
 369              		.loc 1 348 3 is_stmt 1 view .LVU63
 370              		.loc 1 348 18 is_stmt 0 view .LVU64
 371 0010 0A4B     		ldr	r3, .L35
 372 0012 1D78     		ldrb	r5, [r3]	@ zero_extendqisi2
 373              		.loc 1 348 6 view .LVU65
 374 0014 A542     		cmp	r5, r4
 375 0016 07D1     		bne	.L34
 343:Vendor_HAL/ST/STM32F4xx_HAL_Driver/Src/stm32f4xx_hal.c ****   HAL_TickFreqTypeDef prevTickFreq;
 376              		.loc 1 343 21 view .LVU66
 377 0018 0020     		movs	r0, #0
 378              	.LVL12:
ARM GAS  C:\Users\katre\AppData\Local\Temp\ccXpm6zu.s 			page 14


 379              	.L30:
 349:Vendor_HAL/ST/STM32F4xx_HAL_Driver/Src/stm32f4xx_hal.c ****   {
 350:Vendor_HAL/ST/STM32F4xx_HAL_Driver/Src/stm32f4xx_hal.c ****     /* Back up uwTickFreq frequency */
 351:Vendor_HAL/ST/STM32F4xx_HAL_Driver/Src/stm32f4xx_hal.c ****     prevTickFreq = uwTickFreq;
 352:Vendor_HAL/ST/STM32F4xx_HAL_Driver/Src/stm32f4xx_hal.c **** 
 353:Vendor_HAL/ST/STM32F4xx_HAL_Driver/Src/stm32f4xx_hal.c ****     /* Update uwTickFreq global variable used by HAL_InitTick() */
 354:Vendor_HAL/ST/STM32F4xx_HAL_Driver/Src/stm32f4xx_hal.c ****     uwTickFreq = Freq;
 355:Vendor_HAL/ST/STM32F4xx_HAL_Driver/Src/stm32f4xx_hal.c **** 
 356:Vendor_HAL/ST/STM32F4xx_HAL_Driver/Src/stm32f4xx_hal.c ****     /* Apply the new tick Freq  */
 357:Vendor_HAL/ST/STM32F4xx_HAL_Driver/Src/stm32f4xx_hal.c ****     status = HAL_InitTick(uwTickPrio);
 358:Vendor_HAL/ST/STM32F4xx_HAL_Driver/Src/stm32f4xx_hal.c **** 
 359:Vendor_HAL/ST/STM32F4xx_HAL_Driver/Src/stm32f4xx_hal.c ****     if (status != HAL_OK)
 360:Vendor_HAL/ST/STM32F4xx_HAL_Driver/Src/stm32f4xx_hal.c ****     {
 361:Vendor_HAL/ST/STM32F4xx_HAL_Driver/Src/stm32f4xx_hal.c ****       /* Restore previous tick frequency */
 362:Vendor_HAL/ST/STM32F4xx_HAL_Driver/Src/stm32f4xx_hal.c ****       uwTickFreq = prevTickFreq;
 363:Vendor_HAL/ST/STM32F4xx_HAL_Driver/Src/stm32f4xx_hal.c ****     }
 364:Vendor_HAL/ST/STM32F4xx_HAL_Driver/Src/stm32f4xx_hal.c ****   }
 365:Vendor_HAL/ST/STM32F4xx_HAL_Driver/Src/stm32f4xx_hal.c **** 
 366:Vendor_HAL/ST/STM32F4xx_HAL_Driver/Src/stm32f4xx_hal.c ****   return status;
 380              		.loc 1 366 3 is_stmt 1 view .LVU67
 367:Vendor_HAL/ST/STM32F4xx_HAL_Driver/Src/stm32f4xx_hal.c **** }
 381              		.loc 1 367 1 is_stmt 0 view .LVU68
 382 001a 38BD     		pop	{r3, r4, r5, pc}
 383              	.LVL13:
 384              	.L33:
 346:Vendor_HAL/ST/STM32F4xx_HAL_Driver/Src/stm32f4xx_hal.c **** 
 385              		.loc 1 346 3 discriminator 3 view .LVU69
 386 001c 4FF4AD71 		mov	r1, #346
 387 0020 0748     		ldr	r0, .L35+4
 388              	.LVL14:
 346:Vendor_HAL/ST/STM32F4xx_HAL_Driver/Src/stm32f4xx_hal.c **** 
 389              		.loc 1 346 3 discriminator 3 view .LVU70
 390 0022 FFF7FEFF 		bl	assert_failed
 391              	.LVL15:
 392 0026 F3E7     		b	.L29
 393              	.L34:
 351:Vendor_HAL/ST/STM32F4xx_HAL_Driver/Src/stm32f4xx_hal.c **** 
 394              		.loc 1 351 5 is_stmt 1 view .LVU71
 395              	.LVL16:
 354:Vendor_HAL/ST/STM32F4xx_HAL_Driver/Src/stm32f4xx_hal.c **** 
 396              		.loc 1 354 5 view .LVU72
 354:Vendor_HAL/ST/STM32F4xx_HAL_Driver/Src/stm32f4xx_hal.c **** 
 397              		.loc 1 354 16 is_stmt 0 view .LVU73
 398 0028 1C70     		strb	r4, [r3]
 357:Vendor_HAL/ST/STM32F4xx_HAL_Driver/Src/stm32f4xx_hal.c **** 
 399              		.loc 1 357 5 is_stmt 1 view .LVU74
 357:Vendor_HAL/ST/STM32F4xx_HAL_Driver/Src/stm32f4xx_hal.c **** 
 400              		.loc 1 357 14 is_stmt 0 view .LVU75
 401 002a 064B     		ldr	r3, .L35+8
 402 002c 1868     		ldr	r0, [r3]
 403 002e FFF7FEFF 		bl	HAL_InitTick
 404              	.LVL17:
 359:Vendor_HAL/ST/STM32F4xx_HAL_Driver/Src/stm32f4xx_hal.c ****     {
 405              		.loc 1 359 5 is_stmt 1 view .LVU76
 359:Vendor_HAL/ST/STM32F4xx_HAL_Driver/Src/stm32f4xx_hal.c ****     {
 406              		.loc 1 359 8 is_stmt 0 view .LVU77
 407 0032 0028     		cmp	r0, #0
ARM GAS  C:\Users\katre\AppData\Local\Temp\ccXpm6zu.s 			page 15


 408 0034 F1D0     		beq	.L30
 362:Vendor_HAL/ST/STM32F4xx_HAL_Driver/Src/stm32f4xx_hal.c ****     }
 409              		.loc 1 362 7 is_stmt 1 view .LVU78
 362:Vendor_HAL/ST/STM32F4xx_HAL_Driver/Src/stm32f4xx_hal.c ****     }
 410              		.loc 1 362 18 is_stmt 0 view .LVU79
 411 0036 014B     		ldr	r3, .L35
 412 0038 1D70     		strb	r5, [r3]
 413 003a EEE7     		b	.L30
 414              	.L36:
 415              		.align	2
 416              	.L35:
 417 003c 00000000 		.word	.LANCHOR0
 418 0040 00000000 		.word	.LC0
 419 0044 00000000 		.word	.LANCHOR1
 420              		.cfi_endproc
 421              	.LFE138:
 423              		.section	.text.HAL_GetTickFreq,"ax",%progbits
 424              		.align	1
 425              		.global	HAL_GetTickFreq
 426              		.syntax unified
 427              		.thumb
 428              		.thumb_func
 430              	HAL_GetTickFreq:
 431              	.LFB139:
 368:Vendor_HAL/ST/STM32F4xx_HAL_Driver/Src/stm32f4xx_hal.c **** 
 369:Vendor_HAL/ST/STM32F4xx_HAL_Driver/Src/stm32f4xx_hal.c **** /**
 370:Vendor_HAL/ST/STM32F4xx_HAL_Driver/Src/stm32f4xx_hal.c ****   * @brief Return tick frequency.
 371:Vendor_HAL/ST/STM32F4xx_HAL_Driver/Src/stm32f4xx_hal.c ****   * @retval tick period in Hz
 372:Vendor_HAL/ST/STM32F4xx_HAL_Driver/Src/stm32f4xx_hal.c ****   */
 373:Vendor_HAL/ST/STM32F4xx_HAL_Driver/Src/stm32f4xx_hal.c **** HAL_TickFreqTypeDef HAL_GetTickFreq(void)
 374:Vendor_HAL/ST/STM32F4xx_HAL_Driver/Src/stm32f4xx_hal.c **** {
 432              		.loc 1 374 1 is_stmt 1 view -0
 433              		.cfi_startproc
 434              		@ args = 0, pretend = 0, frame = 0
 435              		@ frame_needed = 0, uses_anonymous_args = 0
 436              		@ link register save eliminated.
 375:Vendor_HAL/ST/STM32F4xx_HAL_Driver/Src/stm32f4xx_hal.c ****   return uwTickFreq;
 437              		.loc 1 375 3 view .LVU81
 376:Vendor_HAL/ST/STM32F4xx_HAL_Driver/Src/stm32f4xx_hal.c **** }
 438              		.loc 1 376 1 is_stmt 0 view .LVU82
 439 0000 014B     		ldr	r3, .L38
 440 0002 1878     		ldrb	r0, [r3]	@ zero_extendqisi2
 441 0004 7047     		bx	lr
 442              	.L39:
 443 0006 00BF     		.align	2
 444              	.L38:
 445 0008 00000000 		.word	.LANCHOR0
 446              		.cfi_endproc
 447              	.LFE139:
 449              		.section	.text.HAL_Delay,"ax",%progbits
 450              		.align	1
 451              		.weak	HAL_Delay
 452              		.syntax unified
 453              		.thumb
 454              		.thumb_func
 456              	HAL_Delay:
 457              	.LVL18:
ARM GAS  C:\Users\katre\AppData\Local\Temp\ccXpm6zu.s 			page 16


 458              	.LFB140:
 377:Vendor_HAL/ST/STM32F4xx_HAL_Driver/Src/stm32f4xx_hal.c **** 
 378:Vendor_HAL/ST/STM32F4xx_HAL_Driver/Src/stm32f4xx_hal.c **** /**
 379:Vendor_HAL/ST/STM32F4xx_HAL_Driver/Src/stm32f4xx_hal.c ****   * @brief This function provides minimum delay (in milliseconds) based 
 380:Vendor_HAL/ST/STM32F4xx_HAL_Driver/Src/stm32f4xx_hal.c ****   *        on variable incremented.
 381:Vendor_HAL/ST/STM32F4xx_HAL_Driver/Src/stm32f4xx_hal.c ****   * @note In the default implementation , SysTick timer is the source of time base.
 382:Vendor_HAL/ST/STM32F4xx_HAL_Driver/Src/stm32f4xx_hal.c ****   *       It is used to generate interrupts at regular time intervals where uwTick
 383:Vendor_HAL/ST/STM32F4xx_HAL_Driver/Src/stm32f4xx_hal.c ****   *       is incremented.
 384:Vendor_HAL/ST/STM32F4xx_HAL_Driver/Src/stm32f4xx_hal.c ****   * @note This function is declared as __weak to be overwritten in case of other
 385:Vendor_HAL/ST/STM32F4xx_HAL_Driver/Src/stm32f4xx_hal.c ****   *       implementations in user file.
 386:Vendor_HAL/ST/STM32F4xx_HAL_Driver/Src/stm32f4xx_hal.c ****   * @param Delay specifies the delay time length, in milliseconds.
 387:Vendor_HAL/ST/STM32F4xx_HAL_Driver/Src/stm32f4xx_hal.c ****   * @retval None
 388:Vendor_HAL/ST/STM32F4xx_HAL_Driver/Src/stm32f4xx_hal.c ****   */
 389:Vendor_HAL/ST/STM32F4xx_HAL_Driver/Src/stm32f4xx_hal.c **** __weak void HAL_Delay(uint32_t Delay)
 390:Vendor_HAL/ST/STM32F4xx_HAL_Driver/Src/stm32f4xx_hal.c **** {
 459              		.loc 1 390 1 is_stmt 1 view -0
 460              		.cfi_startproc
 461              		@ args = 0, pretend = 0, frame = 0
 462              		@ frame_needed = 0, uses_anonymous_args = 0
 463              		.loc 1 390 1 is_stmt 0 view .LVU84
 464 0000 38B5     		push	{r3, r4, r5, lr}
 465              	.LCFI4:
 466              		.cfi_def_cfa_offset 16
 467              		.cfi_offset 3, -16
 468              		.cfi_offset 4, -12
 469              		.cfi_offset 5, -8
 470              		.cfi_offset 14, -4
 471 0002 0446     		mov	r4, r0
 391:Vendor_HAL/ST/STM32F4xx_HAL_Driver/Src/stm32f4xx_hal.c ****   uint32_t tickstart = HAL_GetTick();
 472              		.loc 1 391 3 is_stmt 1 view .LVU85
 473              		.loc 1 391 24 is_stmt 0 view .LVU86
 474 0004 FFF7FEFF 		bl	HAL_GetTick
 475              	.LVL19:
 476              		.loc 1 391 24 view .LVU87
 477 0008 0546     		mov	r5, r0
 478              	.LVL20:
 392:Vendor_HAL/ST/STM32F4xx_HAL_Driver/Src/stm32f4xx_hal.c ****   uint32_t wait = Delay;
 479              		.loc 1 392 3 is_stmt 1 view .LVU88
 393:Vendor_HAL/ST/STM32F4xx_HAL_Driver/Src/stm32f4xx_hal.c **** 
 394:Vendor_HAL/ST/STM32F4xx_HAL_Driver/Src/stm32f4xx_hal.c ****   /* Add a freq to guarantee minimum wait */
 395:Vendor_HAL/ST/STM32F4xx_HAL_Driver/Src/stm32f4xx_hal.c ****   if (wait < HAL_MAX_DELAY)
 480              		.loc 1 395 3 view .LVU89
 481              		.loc 1 395 6 is_stmt 0 view .LVU90
 482 000a B4F1FF3F 		cmp	r4, #-1
 483 000e 02D0     		beq	.L42
 396:Vendor_HAL/ST/STM32F4xx_HAL_Driver/Src/stm32f4xx_hal.c ****   {
 397:Vendor_HAL/ST/STM32F4xx_HAL_Driver/Src/stm32f4xx_hal.c ****     wait += (uint32_t)(uwTickFreq);
 484              		.loc 1 397 5 is_stmt 1 view .LVU91
 485              		.loc 1 397 13 is_stmt 0 view .LVU92
 486 0010 044B     		ldr	r3, .L44
 487 0012 1B78     		ldrb	r3, [r3]	@ zero_extendqisi2
 488              		.loc 1 397 10 view .LVU93
 489 0014 1C44     		add	r4, r4, r3
 490              	.LVL21:
 491              	.L42:
 398:Vendor_HAL/ST/STM32F4xx_HAL_Driver/Src/stm32f4xx_hal.c ****   }
 399:Vendor_HAL/ST/STM32F4xx_HAL_Driver/Src/stm32f4xx_hal.c **** 
ARM GAS  C:\Users\katre\AppData\Local\Temp\ccXpm6zu.s 			page 17


 400:Vendor_HAL/ST/STM32F4xx_HAL_Driver/Src/stm32f4xx_hal.c ****   while((HAL_GetTick() - tickstart) < wait)
 401:Vendor_HAL/ST/STM32F4xx_HAL_Driver/Src/stm32f4xx_hal.c ****   {
 402:Vendor_HAL/ST/STM32F4xx_HAL_Driver/Src/stm32f4xx_hal.c ****   }
 492              		.loc 1 402 3 is_stmt 1 discriminator 1 view .LVU94
 400:Vendor_HAL/ST/STM32F4xx_HAL_Driver/Src/stm32f4xx_hal.c ****   {
 493              		.loc 1 400 8 discriminator 1 view .LVU95
 400:Vendor_HAL/ST/STM32F4xx_HAL_Driver/Src/stm32f4xx_hal.c ****   {
 494              		.loc 1 400 10 is_stmt 0 discriminator 1 view .LVU96
 495 0016 FFF7FEFF 		bl	HAL_GetTick
 496              	.LVL22:
 400:Vendor_HAL/ST/STM32F4xx_HAL_Driver/Src/stm32f4xx_hal.c ****   {
 497              		.loc 1 400 24 discriminator 1 view .LVU97
 498 001a 401B     		subs	r0, r0, r5
 400:Vendor_HAL/ST/STM32F4xx_HAL_Driver/Src/stm32f4xx_hal.c ****   {
 499              		.loc 1 400 8 discriminator 1 view .LVU98
 500 001c A042     		cmp	r0, r4
 501 001e FAD3     		bcc	.L42
 403:Vendor_HAL/ST/STM32F4xx_HAL_Driver/Src/stm32f4xx_hal.c **** }
 502              		.loc 1 403 1 view .LVU99
 503 0020 38BD     		pop	{r3, r4, r5, pc}
 504              	.LVL23:
 505              	.L45:
 506              		.loc 1 403 1 view .LVU100
 507 0022 00BF     		.align	2
 508              	.L44:
 509 0024 00000000 		.word	.LANCHOR0
 510              		.cfi_endproc
 511              	.LFE140:
 513              		.section	.text.HAL_SuspendTick,"ax",%progbits
 514              		.align	1
 515              		.weak	HAL_SuspendTick
 516              		.syntax unified
 517              		.thumb
 518              		.thumb_func
 520              	HAL_SuspendTick:
 521              	.LFB141:
 404:Vendor_HAL/ST/STM32F4xx_HAL_Driver/Src/stm32f4xx_hal.c **** 
 405:Vendor_HAL/ST/STM32F4xx_HAL_Driver/Src/stm32f4xx_hal.c **** /**
 406:Vendor_HAL/ST/STM32F4xx_HAL_Driver/Src/stm32f4xx_hal.c ****   * @brief Suspend Tick increment.
 407:Vendor_HAL/ST/STM32F4xx_HAL_Driver/Src/stm32f4xx_hal.c ****   * @note In the default implementation , SysTick timer is the source of time base. It is
 408:Vendor_HAL/ST/STM32F4xx_HAL_Driver/Src/stm32f4xx_hal.c ****   *       used to generate interrupts at regular time intervals. Once HAL_SuspendTick()
 409:Vendor_HAL/ST/STM32F4xx_HAL_Driver/Src/stm32f4xx_hal.c ****   *       is called, the SysTick interrupt will be disabled and so Tick increment 
 410:Vendor_HAL/ST/STM32F4xx_HAL_Driver/Src/stm32f4xx_hal.c ****   *       is suspended.
 411:Vendor_HAL/ST/STM32F4xx_HAL_Driver/Src/stm32f4xx_hal.c ****   * @note This function is declared as __weak to be overwritten in case of other
 412:Vendor_HAL/ST/STM32F4xx_HAL_Driver/Src/stm32f4xx_hal.c ****   *       implementations in user file.
 413:Vendor_HAL/ST/STM32F4xx_HAL_Driver/Src/stm32f4xx_hal.c ****   * @retval None
 414:Vendor_HAL/ST/STM32F4xx_HAL_Driver/Src/stm32f4xx_hal.c ****   */
 415:Vendor_HAL/ST/STM32F4xx_HAL_Driver/Src/stm32f4xx_hal.c **** __weak void HAL_SuspendTick(void)
 416:Vendor_HAL/ST/STM32F4xx_HAL_Driver/Src/stm32f4xx_hal.c **** {
 522              		.loc 1 416 1 is_stmt 1 view -0
 523              		.cfi_startproc
 524              		@ args = 0, pretend = 0, frame = 0
 525              		@ frame_needed = 0, uses_anonymous_args = 0
 526              		@ link register save eliminated.
 417:Vendor_HAL/ST/STM32F4xx_HAL_Driver/Src/stm32f4xx_hal.c ****   /* Disable SysTick Interrupt */
 418:Vendor_HAL/ST/STM32F4xx_HAL_Driver/Src/stm32f4xx_hal.c ****   SysTick->CTRL &= ~SysTick_CTRL_TICKINT_Msk;
 527              		.loc 1 418 3 view .LVU102
ARM GAS  C:\Users\katre\AppData\Local\Temp\ccXpm6zu.s 			page 18


 528              		.loc 1 418 17 is_stmt 0 view .LVU103
 529 0000 4FF0E022 		mov	r2, #-536813568
 530 0004 1369     		ldr	r3, [r2, #16]
 531 0006 23F00203 		bic	r3, r3, #2
 532 000a 1361     		str	r3, [r2, #16]
 419:Vendor_HAL/ST/STM32F4xx_HAL_Driver/Src/stm32f4xx_hal.c **** }
 533              		.loc 1 419 1 view .LVU104
 534 000c 7047     		bx	lr
 535              		.cfi_endproc
 536              	.LFE141:
 538              		.section	.text.HAL_ResumeTick,"ax",%progbits
 539              		.align	1
 540              		.weak	HAL_ResumeTick
 541              		.syntax unified
 542              		.thumb
 543              		.thumb_func
 545              	HAL_ResumeTick:
 546              	.LFB142:
 420:Vendor_HAL/ST/STM32F4xx_HAL_Driver/Src/stm32f4xx_hal.c **** 
 421:Vendor_HAL/ST/STM32F4xx_HAL_Driver/Src/stm32f4xx_hal.c **** /**
 422:Vendor_HAL/ST/STM32F4xx_HAL_Driver/Src/stm32f4xx_hal.c ****   * @brief Resume Tick increment.
 423:Vendor_HAL/ST/STM32F4xx_HAL_Driver/Src/stm32f4xx_hal.c ****   * @note In the default implementation , SysTick timer is the source of time base. It is
 424:Vendor_HAL/ST/STM32F4xx_HAL_Driver/Src/stm32f4xx_hal.c ****   *       used to generate interrupts at regular time intervals. Once HAL_ResumeTick()
 425:Vendor_HAL/ST/STM32F4xx_HAL_Driver/Src/stm32f4xx_hal.c ****   *       is called, the SysTick interrupt will be enabled and so Tick increment 
 426:Vendor_HAL/ST/STM32F4xx_HAL_Driver/Src/stm32f4xx_hal.c ****   *       is resumed.
 427:Vendor_HAL/ST/STM32F4xx_HAL_Driver/Src/stm32f4xx_hal.c ****   * @note This function is declared as __weak to be overwritten in case of other
 428:Vendor_HAL/ST/STM32F4xx_HAL_Driver/Src/stm32f4xx_hal.c ****   *       implementations in user file.
 429:Vendor_HAL/ST/STM32F4xx_HAL_Driver/Src/stm32f4xx_hal.c ****   * @retval None
 430:Vendor_HAL/ST/STM32F4xx_HAL_Driver/Src/stm32f4xx_hal.c ****   */
 431:Vendor_HAL/ST/STM32F4xx_HAL_Driver/Src/stm32f4xx_hal.c **** __weak void HAL_ResumeTick(void)
 432:Vendor_HAL/ST/STM32F4xx_HAL_Driver/Src/stm32f4xx_hal.c **** {
 547              		.loc 1 432 1 is_stmt 1 view -0
 548              		.cfi_startproc
 549              		@ args = 0, pretend = 0, frame = 0
 550              		@ frame_needed = 0, uses_anonymous_args = 0
 551              		@ link register save eliminated.
 433:Vendor_HAL/ST/STM32F4xx_HAL_Driver/Src/stm32f4xx_hal.c ****   /* Enable SysTick Interrupt */
 434:Vendor_HAL/ST/STM32F4xx_HAL_Driver/Src/stm32f4xx_hal.c ****   SysTick->CTRL  |= SysTick_CTRL_TICKINT_Msk;
 552              		.loc 1 434 3 view .LVU106
 553              		.loc 1 434 18 is_stmt 0 view .LVU107
 554 0000 4FF0E022 		mov	r2, #-536813568
 555 0004 1369     		ldr	r3, [r2, #16]
 556 0006 43F00203 		orr	r3, r3, #2
 557 000a 1361     		str	r3, [r2, #16]
 435:Vendor_HAL/ST/STM32F4xx_HAL_Driver/Src/stm32f4xx_hal.c **** }
 558              		.loc 1 435 1 view .LVU108
 559 000c 7047     		bx	lr
 560              		.cfi_endproc
 561              	.LFE142:
 563              		.section	.text.HAL_GetHalVersion,"ax",%progbits
 564              		.align	1
 565              		.global	HAL_GetHalVersion
 566              		.syntax unified
 567              		.thumb
 568              		.thumb_func
 570              	HAL_GetHalVersion:
 571              	.LFB143:
ARM GAS  C:\Users\katre\AppData\Local\Temp\ccXpm6zu.s 			page 19


 436:Vendor_HAL/ST/STM32F4xx_HAL_Driver/Src/stm32f4xx_hal.c **** 
 437:Vendor_HAL/ST/STM32F4xx_HAL_Driver/Src/stm32f4xx_hal.c **** /**
 438:Vendor_HAL/ST/STM32F4xx_HAL_Driver/Src/stm32f4xx_hal.c ****   * @brief  Returns the HAL revision
 439:Vendor_HAL/ST/STM32F4xx_HAL_Driver/Src/stm32f4xx_hal.c ****   * @retval version : 0xXYZR (8bits for each decimal, R for RC)
 440:Vendor_HAL/ST/STM32F4xx_HAL_Driver/Src/stm32f4xx_hal.c ****   */
 441:Vendor_HAL/ST/STM32F4xx_HAL_Driver/Src/stm32f4xx_hal.c **** uint32_t HAL_GetHalVersion(void)
 442:Vendor_HAL/ST/STM32F4xx_HAL_Driver/Src/stm32f4xx_hal.c **** {
 572              		.loc 1 442 1 is_stmt 1 view -0
 573              		.cfi_startproc
 574              		@ args = 0, pretend = 0, frame = 0
 575              		@ frame_needed = 0, uses_anonymous_args = 0
 576              		@ link register save eliminated.
 443:Vendor_HAL/ST/STM32F4xx_HAL_Driver/Src/stm32f4xx_hal.c ****   return __STM32F4xx_HAL_VERSION;
 577              		.loc 1 443 3 view .LVU110
 444:Vendor_HAL/ST/STM32F4xx_HAL_Driver/Src/stm32f4xx_hal.c **** }
 578              		.loc 1 444 1 is_stmt 0 view .LVU111
 579 0000 0048     		ldr	r0, .L49
 580 0002 7047     		bx	lr
 581              	.L50:
 582              		.align	2
 583              	.L49:
 584 0004 000D0701 		.word	17239296
 585              		.cfi_endproc
 586              	.LFE143:
 588              		.section	.text.HAL_GetREVID,"ax",%progbits
 589              		.align	1
 590              		.global	HAL_GetREVID
 591              		.syntax unified
 592              		.thumb
 593              		.thumb_func
 595              	HAL_GetREVID:
 596              	.LFB144:
 445:Vendor_HAL/ST/STM32F4xx_HAL_Driver/Src/stm32f4xx_hal.c **** 
 446:Vendor_HAL/ST/STM32F4xx_HAL_Driver/Src/stm32f4xx_hal.c **** /**
 447:Vendor_HAL/ST/STM32F4xx_HAL_Driver/Src/stm32f4xx_hal.c ****   * @brief  Returns the device revision identifier.
 448:Vendor_HAL/ST/STM32F4xx_HAL_Driver/Src/stm32f4xx_hal.c ****   * @retval Device revision identifier
 449:Vendor_HAL/ST/STM32F4xx_HAL_Driver/Src/stm32f4xx_hal.c ****   */
 450:Vendor_HAL/ST/STM32F4xx_HAL_Driver/Src/stm32f4xx_hal.c **** uint32_t HAL_GetREVID(void)
 451:Vendor_HAL/ST/STM32F4xx_HAL_Driver/Src/stm32f4xx_hal.c **** {
 597              		.loc 1 451 1 is_stmt 1 view -0
 598              		.cfi_startproc
 599              		@ args = 0, pretend = 0, frame = 0
 600              		@ frame_needed = 0, uses_anonymous_args = 0
 601              		@ link register save eliminated.
 452:Vendor_HAL/ST/STM32F4xx_HAL_Driver/Src/stm32f4xx_hal.c ****   return((DBGMCU->IDCODE) >> 16U);
 602              		.loc 1 452 3 view .LVU113
 603              		.loc 1 452 17 is_stmt 0 view .LVU114
 604 0000 014B     		ldr	r3, .L52
 605 0002 1868     		ldr	r0, [r3]
 453:Vendor_HAL/ST/STM32F4xx_HAL_Driver/Src/stm32f4xx_hal.c **** }
 606              		.loc 1 453 1 view .LVU115
 607 0004 000C     		lsrs	r0, r0, #16
 608 0006 7047     		bx	lr
 609              	.L53:
 610              		.align	2
 611              	.L52:
 612 0008 002004E0 		.word	-536600576
ARM GAS  C:\Users\katre\AppData\Local\Temp\ccXpm6zu.s 			page 20


 613              		.cfi_endproc
 614              	.LFE144:
 616              		.section	.text.HAL_GetDEVID,"ax",%progbits
 617              		.align	1
 618              		.global	HAL_GetDEVID
 619              		.syntax unified
 620              		.thumb
 621              		.thumb_func
 623              	HAL_GetDEVID:
 624              	.LFB145:
 454:Vendor_HAL/ST/STM32F4xx_HAL_Driver/Src/stm32f4xx_hal.c **** 
 455:Vendor_HAL/ST/STM32F4xx_HAL_Driver/Src/stm32f4xx_hal.c **** /**
 456:Vendor_HAL/ST/STM32F4xx_HAL_Driver/Src/stm32f4xx_hal.c ****   * @brief  Returns the device identifier.
 457:Vendor_HAL/ST/STM32F4xx_HAL_Driver/Src/stm32f4xx_hal.c ****   * @retval Device identifier
 458:Vendor_HAL/ST/STM32F4xx_HAL_Driver/Src/stm32f4xx_hal.c ****   */
 459:Vendor_HAL/ST/STM32F4xx_HAL_Driver/Src/stm32f4xx_hal.c **** uint32_t HAL_GetDEVID(void)
 460:Vendor_HAL/ST/STM32F4xx_HAL_Driver/Src/stm32f4xx_hal.c **** {
 625              		.loc 1 460 1 is_stmt 1 view -0
 626              		.cfi_startproc
 627              		@ args = 0, pretend = 0, frame = 0
 628              		@ frame_needed = 0, uses_anonymous_args = 0
 629              		@ link register save eliminated.
 461:Vendor_HAL/ST/STM32F4xx_HAL_Driver/Src/stm32f4xx_hal.c ****   return((DBGMCU->IDCODE) & IDCODE_DEVID_MASK);
 630              		.loc 1 461 3 view .LVU117
 631              		.loc 1 461 17 is_stmt 0 view .LVU118
 632 0000 024B     		ldr	r3, .L55
 633 0002 1868     		ldr	r0, [r3]
 462:Vendor_HAL/ST/STM32F4xx_HAL_Driver/Src/stm32f4xx_hal.c **** }
 634              		.loc 1 462 1 view .LVU119
 635 0004 C0F30B00 		ubfx	r0, r0, #0, #12
 636 0008 7047     		bx	lr
 637              	.L56:
 638 000a 00BF     		.align	2
 639              	.L55:
 640 000c 002004E0 		.word	-536600576
 641              		.cfi_endproc
 642              	.LFE145:
 644              		.section	.text.HAL_DBGMCU_EnableDBGSleepMode,"ax",%progbits
 645              		.align	1
 646              		.global	HAL_DBGMCU_EnableDBGSleepMode
 647              		.syntax unified
 648              		.thumb
 649              		.thumb_func
 651              	HAL_DBGMCU_EnableDBGSleepMode:
 652              	.LFB146:
 463:Vendor_HAL/ST/STM32F4xx_HAL_Driver/Src/stm32f4xx_hal.c **** 
 464:Vendor_HAL/ST/STM32F4xx_HAL_Driver/Src/stm32f4xx_hal.c **** /**
 465:Vendor_HAL/ST/STM32F4xx_HAL_Driver/Src/stm32f4xx_hal.c ****   * @brief  Enable the Debug Module during SLEEP mode
 466:Vendor_HAL/ST/STM32F4xx_HAL_Driver/Src/stm32f4xx_hal.c ****   * @retval None
 467:Vendor_HAL/ST/STM32F4xx_HAL_Driver/Src/stm32f4xx_hal.c ****   */
 468:Vendor_HAL/ST/STM32F4xx_HAL_Driver/Src/stm32f4xx_hal.c **** void HAL_DBGMCU_EnableDBGSleepMode(void)
 469:Vendor_HAL/ST/STM32F4xx_HAL_Driver/Src/stm32f4xx_hal.c **** {
 653              		.loc 1 469 1 is_stmt 1 view -0
 654              		.cfi_startproc
 655              		@ args = 0, pretend = 0, frame = 0
 656              		@ frame_needed = 0, uses_anonymous_args = 0
 657              		@ link register save eliminated.
ARM GAS  C:\Users\katre\AppData\Local\Temp\ccXpm6zu.s 			page 21


 470:Vendor_HAL/ST/STM32F4xx_HAL_Driver/Src/stm32f4xx_hal.c ****   SET_BIT(DBGMCU->CR, DBGMCU_CR_DBG_SLEEP);
 658              		.loc 1 470 3 view .LVU121
 659 0000 024A     		ldr	r2, .L58
 660 0002 5368     		ldr	r3, [r2, #4]
 661 0004 43F00103 		orr	r3, r3, #1
 662 0008 5360     		str	r3, [r2, #4]
 471:Vendor_HAL/ST/STM32F4xx_HAL_Driver/Src/stm32f4xx_hal.c **** }
 663              		.loc 1 471 1 is_stmt 0 view .LVU122
 664 000a 7047     		bx	lr
 665              	.L59:
 666              		.align	2
 667              	.L58:
 668 000c 002004E0 		.word	-536600576
 669              		.cfi_endproc
 670              	.LFE146:
 672              		.section	.text.HAL_DBGMCU_DisableDBGSleepMode,"ax",%progbits
 673              		.align	1
 674              		.global	HAL_DBGMCU_DisableDBGSleepMode
 675              		.syntax unified
 676              		.thumb
 677              		.thumb_func
 679              	HAL_DBGMCU_DisableDBGSleepMode:
 680              	.LFB147:
 472:Vendor_HAL/ST/STM32F4xx_HAL_Driver/Src/stm32f4xx_hal.c **** 
 473:Vendor_HAL/ST/STM32F4xx_HAL_Driver/Src/stm32f4xx_hal.c **** /**
 474:Vendor_HAL/ST/STM32F4xx_HAL_Driver/Src/stm32f4xx_hal.c ****   * @brief  Disable the Debug Module during SLEEP mode
 475:Vendor_HAL/ST/STM32F4xx_HAL_Driver/Src/stm32f4xx_hal.c ****   * @retval None
 476:Vendor_HAL/ST/STM32F4xx_HAL_Driver/Src/stm32f4xx_hal.c ****   */
 477:Vendor_HAL/ST/STM32F4xx_HAL_Driver/Src/stm32f4xx_hal.c **** void HAL_DBGMCU_DisableDBGSleepMode(void)
 478:Vendor_HAL/ST/STM32F4xx_HAL_Driver/Src/stm32f4xx_hal.c **** {
 681              		.loc 1 478 1 is_stmt 1 view -0
 682              		.cfi_startproc
 683              		@ args = 0, pretend = 0, frame = 0
 684              		@ frame_needed = 0, uses_anonymous_args = 0
 685              		@ link register save eliminated.
 479:Vendor_HAL/ST/STM32F4xx_HAL_Driver/Src/stm32f4xx_hal.c ****   CLEAR_BIT(DBGMCU->CR, DBGMCU_CR_DBG_SLEEP);
 686              		.loc 1 479 3 view .LVU124
 687 0000 024A     		ldr	r2, .L61
 688 0002 5368     		ldr	r3, [r2, #4]
 689 0004 23F00103 		bic	r3, r3, #1
 690 0008 5360     		str	r3, [r2, #4]
 480:Vendor_HAL/ST/STM32F4xx_HAL_Driver/Src/stm32f4xx_hal.c **** }
 691              		.loc 1 480 1 is_stmt 0 view .LVU125
 692 000a 7047     		bx	lr
 693              	.L62:
 694              		.align	2
 695              	.L61:
 696 000c 002004E0 		.word	-536600576
 697              		.cfi_endproc
 698              	.LFE147:
 700              		.section	.text.HAL_DBGMCU_EnableDBGStopMode,"ax",%progbits
 701              		.align	1
 702              		.global	HAL_DBGMCU_EnableDBGStopMode
 703              		.syntax unified
 704              		.thumb
 705              		.thumb_func
 707              	HAL_DBGMCU_EnableDBGStopMode:
ARM GAS  C:\Users\katre\AppData\Local\Temp\ccXpm6zu.s 			page 22


 708              	.LFB148:
 481:Vendor_HAL/ST/STM32F4xx_HAL_Driver/Src/stm32f4xx_hal.c **** 
 482:Vendor_HAL/ST/STM32F4xx_HAL_Driver/Src/stm32f4xx_hal.c **** /**
 483:Vendor_HAL/ST/STM32F4xx_HAL_Driver/Src/stm32f4xx_hal.c ****   * @brief  Enable the Debug Module during STOP mode
 484:Vendor_HAL/ST/STM32F4xx_HAL_Driver/Src/stm32f4xx_hal.c ****   * @retval None
 485:Vendor_HAL/ST/STM32F4xx_HAL_Driver/Src/stm32f4xx_hal.c ****   */
 486:Vendor_HAL/ST/STM32F4xx_HAL_Driver/Src/stm32f4xx_hal.c **** void HAL_DBGMCU_EnableDBGStopMode(void)
 487:Vendor_HAL/ST/STM32F4xx_HAL_Driver/Src/stm32f4xx_hal.c **** {
 709              		.loc 1 487 1 is_stmt 1 view -0
 710              		.cfi_startproc
 711              		@ args = 0, pretend = 0, frame = 0
 712              		@ frame_needed = 0, uses_anonymous_args = 0
 713              		@ link register save eliminated.
 488:Vendor_HAL/ST/STM32F4xx_HAL_Driver/Src/stm32f4xx_hal.c ****   SET_BIT(DBGMCU->CR, DBGMCU_CR_DBG_STOP);
 714              		.loc 1 488 3 view .LVU127
 715 0000 024A     		ldr	r2, .L64
 716 0002 5368     		ldr	r3, [r2, #4]
 717 0004 43F00203 		orr	r3, r3, #2
 718 0008 5360     		str	r3, [r2, #4]
 489:Vendor_HAL/ST/STM32F4xx_HAL_Driver/Src/stm32f4xx_hal.c **** }
 719              		.loc 1 489 1 is_stmt 0 view .LVU128
 720 000a 7047     		bx	lr
 721              	.L65:
 722              		.align	2
 723              	.L64:
 724 000c 002004E0 		.word	-536600576
 725              		.cfi_endproc
 726              	.LFE148:
 728              		.section	.text.HAL_DBGMCU_DisableDBGStopMode,"ax",%progbits
 729              		.align	1
 730              		.global	HAL_DBGMCU_DisableDBGStopMode
 731              		.syntax unified
 732              		.thumb
 733              		.thumb_func
 735              	HAL_DBGMCU_DisableDBGStopMode:
 736              	.LFB149:
 490:Vendor_HAL/ST/STM32F4xx_HAL_Driver/Src/stm32f4xx_hal.c **** 
 491:Vendor_HAL/ST/STM32F4xx_HAL_Driver/Src/stm32f4xx_hal.c **** /**
 492:Vendor_HAL/ST/STM32F4xx_HAL_Driver/Src/stm32f4xx_hal.c ****   * @brief  Disable the Debug Module during STOP mode
 493:Vendor_HAL/ST/STM32F4xx_HAL_Driver/Src/stm32f4xx_hal.c ****   * @retval None
 494:Vendor_HAL/ST/STM32F4xx_HAL_Driver/Src/stm32f4xx_hal.c ****   */
 495:Vendor_HAL/ST/STM32F4xx_HAL_Driver/Src/stm32f4xx_hal.c **** void HAL_DBGMCU_DisableDBGStopMode(void)
 496:Vendor_HAL/ST/STM32F4xx_HAL_Driver/Src/stm32f4xx_hal.c **** {
 737              		.loc 1 496 1 is_stmt 1 view -0
 738              		.cfi_startproc
 739              		@ args = 0, pretend = 0, frame = 0
 740              		@ frame_needed = 0, uses_anonymous_args = 0
 741              		@ link register save eliminated.
 497:Vendor_HAL/ST/STM32F4xx_HAL_Driver/Src/stm32f4xx_hal.c ****   CLEAR_BIT(DBGMCU->CR, DBGMCU_CR_DBG_STOP);
 742              		.loc 1 497 3 view .LVU130
 743 0000 024A     		ldr	r2, .L67
 744 0002 5368     		ldr	r3, [r2, #4]
 745 0004 23F00203 		bic	r3, r3, #2
 746 0008 5360     		str	r3, [r2, #4]
 498:Vendor_HAL/ST/STM32F4xx_HAL_Driver/Src/stm32f4xx_hal.c **** }
 747              		.loc 1 498 1 is_stmt 0 view .LVU131
 748 000a 7047     		bx	lr
ARM GAS  C:\Users\katre\AppData\Local\Temp\ccXpm6zu.s 			page 23


 749              	.L68:
 750              		.align	2
 751              	.L67:
 752 000c 002004E0 		.word	-536600576
 753              		.cfi_endproc
 754              	.LFE149:
 756              		.section	.text.HAL_DBGMCU_EnableDBGStandbyMode,"ax",%progbits
 757              		.align	1
 758              		.global	HAL_DBGMCU_EnableDBGStandbyMode
 759              		.syntax unified
 760              		.thumb
 761              		.thumb_func
 763              	HAL_DBGMCU_EnableDBGStandbyMode:
 764              	.LFB150:
 499:Vendor_HAL/ST/STM32F4xx_HAL_Driver/Src/stm32f4xx_hal.c **** 
 500:Vendor_HAL/ST/STM32F4xx_HAL_Driver/Src/stm32f4xx_hal.c **** /**
 501:Vendor_HAL/ST/STM32F4xx_HAL_Driver/Src/stm32f4xx_hal.c ****   * @brief  Enable the Debug Module during STANDBY mode
 502:Vendor_HAL/ST/STM32F4xx_HAL_Driver/Src/stm32f4xx_hal.c ****   * @retval None
 503:Vendor_HAL/ST/STM32F4xx_HAL_Driver/Src/stm32f4xx_hal.c ****   */
 504:Vendor_HAL/ST/STM32F4xx_HAL_Driver/Src/stm32f4xx_hal.c **** void HAL_DBGMCU_EnableDBGStandbyMode(void)
 505:Vendor_HAL/ST/STM32F4xx_HAL_Driver/Src/stm32f4xx_hal.c **** {
 765              		.loc 1 505 1 is_stmt 1 view -0
 766              		.cfi_startproc
 767              		@ args = 0, pretend = 0, frame = 0
 768              		@ frame_needed = 0, uses_anonymous_args = 0
 769              		@ link register save eliminated.
 506:Vendor_HAL/ST/STM32F4xx_HAL_Driver/Src/stm32f4xx_hal.c ****   SET_BIT(DBGMCU->CR, DBGMCU_CR_DBG_STANDBY);
 770              		.loc 1 506 3 view .LVU133
 771 0000 024A     		ldr	r2, .L70
 772 0002 5368     		ldr	r3, [r2, #4]
 773 0004 43F00403 		orr	r3, r3, #4
 774 0008 5360     		str	r3, [r2, #4]
 507:Vendor_HAL/ST/STM32F4xx_HAL_Driver/Src/stm32f4xx_hal.c **** }
 775              		.loc 1 507 1 is_stmt 0 view .LVU134
 776 000a 7047     		bx	lr
 777              	.L71:
 778              		.align	2
 779              	.L70:
 780 000c 002004E0 		.word	-536600576
 781              		.cfi_endproc
 782              	.LFE150:
 784              		.section	.text.HAL_DBGMCU_DisableDBGStandbyMode,"ax",%progbits
 785              		.align	1
 786              		.global	HAL_DBGMCU_DisableDBGStandbyMode
 787              		.syntax unified
 788              		.thumb
 789              		.thumb_func
 791              	HAL_DBGMCU_DisableDBGStandbyMode:
 792              	.LFB151:
 508:Vendor_HAL/ST/STM32F4xx_HAL_Driver/Src/stm32f4xx_hal.c **** 
 509:Vendor_HAL/ST/STM32F4xx_HAL_Driver/Src/stm32f4xx_hal.c **** /**
 510:Vendor_HAL/ST/STM32F4xx_HAL_Driver/Src/stm32f4xx_hal.c ****   * @brief  Disable the Debug Module during STANDBY mode
 511:Vendor_HAL/ST/STM32F4xx_HAL_Driver/Src/stm32f4xx_hal.c ****   * @retval None
 512:Vendor_HAL/ST/STM32F4xx_HAL_Driver/Src/stm32f4xx_hal.c ****   */
 513:Vendor_HAL/ST/STM32F4xx_HAL_Driver/Src/stm32f4xx_hal.c **** void HAL_DBGMCU_DisableDBGStandbyMode(void)
 514:Vendor_HAL/ST/STM32F4xx_HAL_Driver/Src/stm32f4xx_hal.c **** {
 793              		.loc 1 514 1 is_stmt 1 view -0
ARM GAS  C:\Users\katre\AppData\Local\Temp\ccXpm6zu.s 			page 24


 794              		.cfi_startproc
 795              		@ args = 0, pretend = 0, frame = 0
 796              		@ frame_needed = 0, uses_anonymous_args = 0
 797              		@ link register save eliminated.
 515:Vendor_HAL/ST/STM32F4xx_HAL_Driver/Src/stm32f4xx_hal.c ****   CLEAR_BIT(DBGMCU->CR, DBGMCU_CR_DBG_STANDBY);
 798              		.loc 1 515 3 view .LVU136
 799 0000 024A     		ldr	r2, .L73
 800 0002 5368     		ldr	r3, [r2, #4]
 801 0004 23F00403 		bic	r3, r3, #4
 802 0008 5360     		str	r3, [r2, #4]
 516:Vendor_HAL/ST/STM32F4xx_HAL_Driver/Src/stm32f4xx_hal.c **** }
 803              		.loc 1 516 1 is_stmt 0 view .LVU137
 804 000a 7047     		bx	lr
 805              	.L74:
 806              		.align	2
 807              	.L73:
 808 000c 002004E0 		.word	-536600576
 809              		.cfi_endproc
 810              	.LFE151:
 812              		.section	.text.HAL_EnableCompensationCell,"ax",%progbits
 813              		.align	1
 814              		.global	HAL_EnableCompensationCell
 815              		.syntax unified
 816              		.thumb
 817              		.thumb_func
 819              	HAL_EnableCompensationCell:
 820              	.LFB152:
 517:Vendor_HAL/ST/STM32F4xx_HAL_Driver/Src/stm32f4xx_hal.c **** 
 518:Vendor_HAL/ST/STM32F4xx_HAL_Driver/Src/stm32f4xx_hal.c **** /**
 519:Vendor_HAL/ST/STM32F4xx_HAL_Driver/Src/stm32f4xx_hal.c ****   * @brief  Enables the I/O Compensation Cell.
 520:Vendor_HAL/ST/STM32F4xx_HAL_Driver/Src/stm32f4xx_hal.c ****   * @note   The I/O compensation cell can be used only when the device supply
 521:Vendor_HAL/ST/STM32F4xx_HAL_Driver/Src/stm32f4xx_hal.c ****   *         voltage ranges from 2.4 to 3.6 V.  
 522:Vendor_HAL/ST/STM32F4xx_HAL_Driver/Src/stm32f4xx_hal.c ****   * @retval None
 523:Vendor_HAL/ST/STM32F4xx_HAL_Driver/Src/stm32f4xx_hal.c ****   */
 524:Vendor_HAL/ST/STM32F4xx_HAL_Driver/Src/stm32f4xx_hal.c **** void HAL_EnableCompensationCell(void)
 525:Vendor_HAL/ST/STM32F4xx_HAL_Driver/Src/stm32f4xx_hal.c **** {
 821              		.loc 1 525 1 is_stmt 1 view -0
 822              		.cfi_startproc
 823              		@ args = 0, pretend = 0, frame = 0
 824              		@ frame_needed = 0, uses_anonymous_args = 0
 825              		@ link register save eliminated.
 526:Vendor_HAL/ST/STM32F4xx_HAL_Driver/Src/stm32f4xx_hal.c ****   *(__IO uint32_t *)CMPCR_CMP_PD_BB = (uint32_t)ENABLE;
 826              		.loc 1 526 3 view .LVU139
 827              		.loc 1 526 37 is_stmt 0 view .LVU140
 828 0000 024B     		ldr	r3, .L76
 829 0002 0122     		movs	r2, #1
 830 0004 C3F80024 		str	r2, [r3, #1024]
 527:Vendor_HAL/ST/STM32F4xx_HAL_Driver/Src/stm32f4xx_hal.c **** }
 831              		.loc 1 527 1 view .LVU141
 832 0008 7047     		bx	lr
 833              	.L77:
 834 000a 00BF     		.align	2
 835              	.L76:
 836 000c 00002742 		.word	1109852160
 837              		.cfi_endproc
 838              	.LFE152:
 840              		.section	.text.HAL_DisableCompensationCell,"ax",%progbits
ARM GAS  C:\Users\katre\AppData\Local\Temp\ccXpm6zu.s 			page 25


 841              		.align	1
 842              		.global	HAL_DisableCompensationCell
 843              		.syntax unified
 844              		.thumb
 845              		.thumb_func
 847              	HAL_DisableCompensationCell:
 848              	.LFB153:
 528:Vendor_HAL/ST/STM32F4xx_HAL_Driver/Src/stm32f4xx_hal.c **** 
 529:Vendor_HAL/ST/STM32F4xx_HAL_Driver/Src/stm32f4xx_hal.c **** /**
 530:Vendor_HAL/ST/STM32F4xx_HAL_Driver/Src/stm32f4xx_hal.c ****   * @brief  Power-down the I/O Compensation Cell.
 531:Vendor_HAL/ST/STM32F4xx_HAL_Driver/Src/stm32f4xx_hal.c ****   * @note   The I/O compensation cell can be used only when the device supply
 532:Vendor_HAL/ST/STM32F4xx_HAL_Driver/Src/stm32f4xx_hal.c ****   *         voltage ranges from 2.4 to 3.6 V.  
 533:Vendor_HAL/ST/STM32F4xx_HAL_Driver/Src/stm32f4xx_hal.c ****   * @retval None
 534:Vendor_HAL/ST/STM32F4xx_HAL_Driver/Src/stm32f4xx_hal.c ****   */
 535:Vendor_HAL/ST/STM32F4xx_HAL_Driver/Src/stm32f4xx_hal.c **** void HAL_DisableCompensationCell(void)
 536:Vendor_HAL/ST/STM32F4xx_HAL_Driver/Src/stm32f4xx_hal.c **** {
 849              		.loc 1 536 1 is_stmt 1 view -0
 850              		.cfi_startproc
 851              		@ args = 0, pretend = 0, frame = 0
 852              		@ frame_needed = 0, uses_anonymous_args = 0
 853              		@ link register save eliminated.
 537:Vendor_HAL/ST/STM32F4xx_HAL_Driver/Src/stm32f4xx_hal.c ****   *(__IO uint32_t *)CMPCR_CMP_PD_BB = (uint32_t)DISABLE;
 854              		.loc 1 537 3 view .LVU143
 855              		.loc 1 537 37 is_stmt 0 view .LVU144
 856 0000 024B     		ldr	r3, .L79
 857 0002 0022     		movs	r2, #0
 858 0004 C3F80024 		str	r2, [r3, #1024]
 538:Vendor_HAL/ST/STM32F4xx_HAL_Driver/Src/stm32f4xx_hal.c **** }
 859              		.loc 1 538 1 view .LVU145
 860 0008 7047     		bx	lr
 861              	.L80:
 862 000a 00BF     		.align	2
 863              	.L79:
 864 000c 00002742 		.word	1109852160
 865              		.cfi_endproc
 866              	.LFE153:
 868              		.section	.text.HAL_GetUIDw0,"ax",%progbits
 869              		.align	1
 870              		.global	HAL_GetUIDw0
 871              		.syntax unified
 872              		.thumb
 873              		.thumb_func
 875              	HAL_GetUIDw0:
 876              	.LFB154:
 539:Vendor_HAL/ST/STM32F4xx_HAL_Driver/Src/stm32f4xx_hal.c **** 
 540:Vendor_HAL/ST/STM32F4xx_HAL_Driver/Src/stm32f4xx_hal.c **** /**
 541:Vendor_HAL/ST/STM32F4xx_HAL_Driver/Src/stm32f4xx_hal.c ****   * @brief  Returns first word of the unique device identifier (UID based on 96 bits)
 542:Vendor_HAL/ST/STM32F4xx_HAL_Driver/Src/stm32f4xx_hal.c ****   * @retval Device identifier
 543:Vendor_HAL/ST/STM32F4xx_HAL_Driver/Src/stm32f4xx_hal.c ****   */
 544:Vendor_HAL/ST/STM32F4xx_HAL_Driver/Src/stm32f4xx_hal.c **** uint32_t HAL_GetUIDw0(void)
 545:Vendor_HAL/ST/STM32F4xx_HAL_Driver/Src/stm32f4xx_hal.c **** {
 877              		.loc 1 545 1 is_stmt 1 view -0
 878              		.cfi_startproc
 879              		@ args = 0, pretend = 0, frame = 0
 880              		@ frame_needed = 0, uses_anonymous_args = 0
 881              		@ link register save eliminated.
 546:Vendor_HAL/ST/STM32F4xx_HAL_Driver/Src/stm32f4xx_hal.c ****   return (READ_REG(*((uint32_t *)UID_BASE)));
ARM GAS  C:\Users\katre\AppData\Local\Temp\ccXpm6zu.s 			page 26


 882              		.loc 1 546 3 view .LVU147
 547:Vendor_HAL/ST/STM32F4xx_HAL_Driver/Src/stm32f4xx_hal.c **** }
 883              		.loc 1 547 1 is_stmt 0 view .LVU148
 884 0000 014B     		ldr	r3, .L82
 885 0002 D3F8100A 		ldr	r0, [r3, #2576]
 886 0006 7047     		bx	lr
 887              	.L83:
 888              		.align	2
 889              	.L82:
 890 0008 0070FF1F 		.word	536834048
 891              		.cfi_endproc
 892              	.LFE154:
 894              		.section	.text.HAL_GetUIDw1,"ax",%progbits
 895              		.align	1
 896              		.global	HAL_GetUIDw1
 897              		.syntax unified
 898              		.thumb
 899              		.thumb_func
 901              	HAL_GetUIDw1:
 902              	.LFB155:
 548:Vendor_HAL/ST/STM32F4xx_HAL_Driver/Src/stm32f4xx_hal.c **** 
 549:Vendor_HAL/ST/STM32F4xx_HAL_Driver/Src/stm32f4xx_hal.c **** /**
 550:Vendor_HAL/ST/STM32F4xx_HAL_Driver/Src/stm32f4xx_hal.c ****   * @brief  Returns second word of the unique device identifier (UID based on 96 bits)
 551:Vendor_HAL/ST/STM32F4xx_HAL_Driver/Src/stm32f4xx_hal.c ****   * @retval Device identifier
 552:Vendor_HAL/ST/STM32F4xx_HAL_Driver/Src/stm32f4xx_hal.c ****   */
 553:Vendor_HAL/ST/STM32F4xx_HAL_Driver/Src/stm32f4xx_hal.c **** uint32_t HAL_GetUIDw1(void)
 554:Vendor_HAL/ST/STM32F4xx_HAL_Driver/Src/stm32f4xx_hal.c **** {
 903              		.loc 1 554 1 is_stmt 1 view -0
 904              		.cfi_startproc
 905              		@ args = 0, pretend = 0, frame = 0
 906              		@ frame_needed = 0, uses_anonymous_args = 0
 907              		@ link register save eliminated.
 555:Vendor_HAL/ST/STM32F4xx_HAL_Driver/Src/stm32f4xx_hal.c ****   return (READ_REG(*((uint32_t *)(UID_BASE + 4U))));
 908              		.loc 1 555 3 view .LVU150
 556:Vendor_HAL/ST/STM32F4xx_HAL_Driver/Src/stm32f4xx_hal.c **** }
 909              		.loc 1 556 1 is_stmt 0 view .LVU151
 910 0000 014B     		ldr	r3, .L85
 911 0002 D3F8140A 		ldr	r0, [r3, #2580]
 912 0006 7047     		bx	lr
 913              	.L86:
 914              		.align	2
 915              	.L85:
 916 0008 0070FF1F 		.word	536834048
 917              		.cfi_endproc
 918              	.LFE155:
 920              		.section	.text.HAL_GetUIDw2,"ax",%progbits
 921              		.align	1
 922              		.global	HAL_GetUIDw2
 923              		.syntax unified
 924              		.thumb
 925              		.thumb_func
 927              	HAL_GetUIDw2:
 928              	.LFB156:
 557:Vendor_HAL/ST/STM32F4xx_HAL_Driver/Src/stm32f4xx_hal.c **** 
 558:Vendor_HAL/ST/STM32F4xx_HAL_Driver/Src/stm32f4xx_hal.c **** /**
 559:Vendor_HAL/ST/STM32F4xx_HAL_Driver/Src/stm32f4xx_hal.c ****   * @brief  Returns third word of the unique device identifier (UID based on 96 bits)
 560:Vendor_HAL/ST/STM32F4xx_HAL_Driver/Src/stm32f4xx_hal.c ****   * @retval Device identifier
ARM GAS  C:\Users\katre\AppData\Local\Temp\ccXpm6zu.s 			page 27


 561:Vendor_HAL/ST/STM32F4xx_HAL_Driver/Src/stm32f4xx_hal.c ****   */
 562:Vendor_HAL/ST/STM32F4xx_HAL_Driver/Src/stm32f4xx_hal.c **** uint32_t HAL_GetUIDw2(void)
 563:Vendor_HAL/ST/STM32F4xx_HAL_Driver/Src/stm32f4xx_hal.c **** {
 929              		.loc 1 563 1 is_stmt 1 view -0
 930              		.cfi_startproc
 931              		@ args = 0, pretend = 0, frame = 0
 932              		@ frame_needed = 0, uses_anonymous_args = 0
 933              		@ link register save eliminated.
 564:Vendor_HAL/ST/STM32F4xx_HAL_Driver/Src/stm32f4xx_hal.c ****   return (READ_REG(*((uint32_t *)(UID_BASE + 8U))));
 934              		.loc 1 564 3 view .LVU153
 565:Vendor_HAL/ST/STM32F4xx_HAL_Driver/Src/stm32f4xx_hal.c **** }
 935              		.loc 1 565 1 is_stmt 0 view .LVU154
 936 0000 014B     		ldr	r3, .L88
 937 0002 D3F8180A 		ldr	r0, [r3, #2584]
 938 0006 7047     		bx	lr
 939              	.L89:
 940              		.align	2
 941              	.L88:
 942 0008 0070FF1F 		.word	536834048
 943              		.cfi_endproc
 944              	.LFE156:
 946              		.global	uwTickFreq
 947              		.global	uwTickPrio
 948              		.global	uwTick
 949              		.section	.bss.uwTick,"aw",%nobits
 950              		.align	2
 951              		.set	.LANCHOR2,. + 0
 954              	uwTick:
 955 0000 00000000 		.space	4
 956              		.section	.data.uwTickFreq,"aw"
 957              		.set	.LANCHOR0,. + 0
 960              	uwTickFreq:
 961 0000 01       		.byte	1
 962              		.section	.data.uwTickPrio,"aw"
 963              		.align	2
 964              		.set	.LANCHOR1,. + 0
 967              	uwTickPrio:
 968 0000 10000000 		.word	16
 969              		.text
 970              	.Letext0:
 971              		.file 2 "c:\\program files (x86)\\gnu arm embedded toolchain\\10 2021.10\\arm-none-eabi\\include\\
 972              		.file 3 "c:\\program files (x86)\\gnu arm embedded toolchain\\10 2021.10\\arm-none-eabi\\include\\
 973              		.file 4 "CMSIS/Core/Include/core_cm4.h"
 974              		.file 5 "CMSIS/Vendor_Device/ST/STM32F4xx/Include/stm32f446xx.h"
 975              		.file 6 "CMSIS/Vendor_Device/ST/STM32F4xx/Include/stm32f4xx.h"
 976              		.file 7 "Vendor_HAL/ST/STM32F4xx_HAL_Driver/Inc/stm32f4xx_hal_def.h"
 977              		.file 8 "Vendor_HAL/ST/STM32F4xx_HAL_Driver/Inc/stm32f4xx_hal.h"
 978              		.file 9 "CMSIS/Vendor_Device/ST/STM32F4xx/Include/system_stm32f4xx.h"
 979              		.file 10 "Vendor_HAL/ST/STM32F4xx_HAL_Driver/stm32f4xx_hal_conf.h"
 980              		.file 11 "Vendor_HAL/ST/STM32F4xx_HAL_Driver/Inc/stm32f4xx_hal_cortex.h"
ARM GAS  C:\Users\katre\AppData\Local\Temp\ccXpm6zu.s 			page 28

