ARM GAS  C:\Users\katre\AppData\Local\Temp\ccyg67t2.s 			page 1


   1              		.cpu cortex-m4
   2              		.arch armv7e-m
   3              		.fpu fpv4-sp-d16
   4              		.eabi_attribute 27, 1
   5              		.eabi_attribute 28, 1
   6              		.eabi_attribute 20, 1
   7              		.eabi_attribute 21, 1
   8              		.eabi_attribute 23, 3
   9              		.eabi_attribute 24, 1
  10              		.eabi_attribute 25, 1
  11              		.eabi_attribute 26, 1
  12              		.eabi_attribute 30, 1
  13              		.eabi_attribute 34, 1
  14              		.eabi_attribute 18, 4
  15              		.file	"stm32f4xx_hal_flash.c"
  16              		.text
  17              	.Ltext0:
  18              		.cfi_sections	.debug_frame
  19              		.section	.text.FLASH_SetErrorCode,"ax",%progbits
  20              		.align	1
  21              		.syntax unified
  22              		.thumb
  23              		.thumb_func
  25              	FLASH_SetErrorCode:
  26              	.LFB146:
  27              		.file 1 "Vendor_HAL/ST/STM32F4xx_HAL_Driver/Src/stm32f4xx_hal_flash.c"
   1:Vendor_HAL/ST/STM32F4xx_HAL_Driver/Src/stm32f4xx_hal_flash.c **** /**
   2:Vendor_HAL/ST/STM32F4xx_HAL_Driver/Src/stm32f4xx_hal_flash.c ****   ******************************************************************************
   3:Vendor_HAL/ST/STM32F4xx_HAL_Driver/Src/stm32f4xx_hal_flash.c ****   * @file    stm32f4xx_hal_flash.c
   4:Vendor_HAL/ST/STM32F4xx_HAL_Driver/Src/stm32f4xx_hal_flash.c ****   * @author  MCD Application Team
   5:Vendor_HAL/ST/STM32F4xx_HAL_Driver/Src/stm32f4xx_hal_flash.c ****   * @brief   FLASH HAL module driver.
   6:Vendor_HAL/ST/STM32F4xx_HAL_Driver/Src/stm32f4xx_hal_flash.c ****   *          This file provides firmware functions to manage the following 
   7:Vendor_HAL/ST/STM32F4xx_HAL_Driver/Src/stm32f4xx_hal_flash.c ****   *          functionalities of the internal FLASH memory:
   8:Vendor_HAL/ST/STM32F4xx_HAL_Driver/Src/stm32f4xx_hal_flash.c ****   *           + Program operations functions
   9:Vendor_HAL/ST/STM32F4xx_HAL_Driver/Src/stm32f4xx_hal_flash.c ****   *           + Memory Control functions 
  10:Vendor_HAL/ST/STM32F4xx_HAL_Driver/Src/stm32f4xx_hal_flash.c ****   *           + Peripheral Errors functions
  11:Vendor_HAL/ST/STM32F4xx_HAL_Driver/Src/stm32f4xx_hal_flash.c ****   *         
  12:Vendor_HAL/ST/STM32F4xx_HAL_Driver/Src/stm32f4xx_hal_flash.c ****   @verbatim
  13:Vendor_HAL/ST/STM32F4xx_HAL_Driver/Src/stm32f4xx_hal_flash.c ****   ==============================================================================
  14:Vendor_HAL/ST/STM32F4xx_HAL_Driver/Src/stm32f4xx_hal_flash.c ****                         ##### FLASH peripheral features #####
  15:Vendor_HAL/ST/STM32F4xx_HAL_Driver/Src/stm32f4xx_hal_flash.c ****   ==============================================================================
  16:Vendor_HAL/ST/STM32F4xx_HAL_Driver/Src/stm32f4xx_hal_flash.c ****            
  17:Vendor_HAL/ST/STM32F4xx_HAL_Driver/Src/stm32f4xx_hal_flash.c ****   [..] The Flash memory interface manages CPU AHB I-Code and D-Code accesses 
  18:Vendor_HAL/ST/STM32F4xx_HAL_Driver/Src/stm32f4xx_hal_flash.c ****        to the Flash memory. It implements the erase and program Flash memory operations 
  19:Vendor_HAL/ST/STM32F4xx_HAL_Driver/Src/stm32f4xx_hal_flash.c ****        and the read and write protection mechanisms.
  20:Vendor_HAL/ST/STM32F4xx_HAL_Driver/Src/stm32f4xx_hal_flash.c ****       
  21:Vendor_HAL/ST/STM32F4xx_HAL_Driver/Src/stm32f4xx_hal_flash.c ****   [..] The Flash memory interface accelerates code execution with a system of instruction
  22:Vendor_HAL/ST/STM32F4xx_HAL_Driver/Src/stm32f4xx_hal_flash.c ****        prefetch and cache lines. 
  23:Vendor_HAL/ST/STM32F4xx_HAL_Driver/Src/stm32f4xx_hal_flash.c **** 
  24:Vendor_HAL/ST/STM32F4xx_HAL_Driver/Src/stm32f4xx_hal_flash.c ****   [..] The FLASH main features are:
  25:Vendor_HAL/ST/STM32F4xx_HAL_Driver/Src/stm32f4xx_hal_flash.c ****       (+) Flash memory read operations
  26:Vendor_HAL/ST/STM32F4xx_HAL_Driver/Src/stm32f4xx_hal_flash.c ****       (+) Flash memory program/erase operations
  27:Vendor_HAL/ST/STM32F4xx_HAL_Driver/Src/stm32f4xx_hal_flash.c ****       (+) Read / write protections
  28:Vendor_HAL/ST/STM32F4xx_HAL_Driver/Src/stm32f4xx_hal_flash.c ****       (+) Prefetch on I-Code
  29:Vendor_HAL/ST/STM32F4xx_HAL_Driver/Src/stm32f4xx_hal_flash.c ****       (+) 64 cache lines of 128 bits on I-Code
  30:Vendor_HAL/ST/STM32F4xx_HAL_Driver/Src/stm32f4xx_hal_flash.c ****       (+) 8 cache lines of 128 bits on D-Code
  31:Vendor_HAL/ST/STM32F4xx_HAL_Driver/Src/stm32f4xx_hal_flash.c ****       
ARM GAS  C:\Users\katre\AppData\Local\Temp\ccyg67t2.s 			page 2


  32:Vendor_HAL/ST/STM32F4xx_HAL_Driver/Src/stm32f4xx_hal_flash.c ****       
  33:Vendor_HAL/ST/STM32F4xx_HAL_Driver/Src/stm32f4xx_hal_flash.c ****                      ##### How to use this driver #####
  34:Vendor_HAL/ST/STM32F4xx_HAL_Driver/Src/stm32f4xx_hal_flash.c ****   ==============================================================================
  35:Vendor_HAL/ST/STM32F4xx_HAL_Driver/Src/stm32f4xx_hal_flash.c ****     [..]                             
  36:Vendor_HAL/ST/STM32F4xx_HAL_Driver/Src/stm32f4xx_hal_flash.c ****       This driver provides functions and macros to configure and program the FLASH 
  37:Vendor_HAL/ST/STM32F4xx_HAL_Driver/Src/stm32f4xx_hal_flash.c ****       memory of all STM32F4xx devices.
  38:Vendor_HAL/ST/STM32F4xx_HAL_Driver/Src/stm32f4xx_hal_flash.c ****     
  39:Vendor_HAL/ST/STM32F4xx_HAL_Driver/Src/stm32f4xx_hal_flash.c ****       (#) FLASH Memory IO Programming functions: 
  40:Vendor_HAL/ST/STM32F4xx_HAL_Driver/Src/stm32f4xx_hal_flash.c ****            (++) Lock and Unlock the FLASH interface using HAL_FLASH_Unlock() and 
  41:Vendor_HAL/ST/STM32F4xx_HAL_Driver/Src/stm32f4xx_hal_flash.c ****                 HAL_FLASH_Lock() functions
  42:Vendor_HAL/ST/STM32F4xx_HAL_Driver/Src/stm32f4xx_hal_flash.c ****            (++) Program functions: byte, half word, word and double word
  43:Vendor_HAL/ST/STM32F4xx_HAL_Driver/Src/stm32f4xx_hal_flash.c ****            (++) There Two modes of programming :
  44:Vendor_HAL/ST/STM32F4xx_HAL_Driver/Src/stm32f4xx_hal_flash.c ****             (+++) Polling mode using HAL_FLASH_Program() function
  45:Vendor_HAL/ST/STM32F4xx_HAL_Driver/Src/stm32f4xx_hal_flash.c ****             (+++) Interrupt mode using HAL_FLASH_Program_IT() function
  46:Vendor_HAL/ST/STM32F4xx_HAL_Driver/Src/stm32f4xx_hal_flash.c ****     
  47:Vendor_HAL/ST/STM32F4xx_HAL_Driver/Src/stm32f4xx_hal_flash.c ****       (#) Interrupts and flags management functions : 
  48:Vendor_HAL/ST/STM32F4xx_HAL_Driver/Src/stm32f4xx_hal_flash.c ****            (++) Handle FLASH interrupts by calling HAL_FLASH_IRQHandler()
  49:Vendor_HAL/ST/STM32F4xx_HAL_Driver/Src/stm32f4xx_hal_flash.c ****            (++) Wait for last FLASH operation according to its status
  50:Vendor_HAL/ST/STM32F4xx_HAL_Driver/Src/stm32f4xx_hal_flash.c ****            (++) Get error flag status by calling HAL_SetErrorCode()          
  51:Vendor_HAL/ST/STM32F4xx_HAL_Driver/Src/stm32f4xx_hal_flash.c **** 
  52:Vendor_HAL/ST/STM32F4xx_HAL_Driver/Src/stm32f4xx_hal_flash.c ****     [..] 
  53:Vendor_HAL/ST/STM32F4xx_HAL_Driver/Src/stm32f4xx_hal_flash.c ****       In addition to these functions, this driver includes a set of macros allowing
  54:Vendor_HAL/ST/STM32F4xx_HAL_Driver/Src/stm32f4xx_hal_flash.c ****       to handle the following operations:
  55:Vendor_HAL/ST/STM32F4xx_HAL_Driver/Src/stm32f4xx_hal_flash.c ****        (+) Set the latency
  56:Vendor_HAL/ST/STM32F4xx_HAL_Driver/Src/stm32f4xx_hal_flash.c ****        (+) Enable/Disable the prefetch buffer
  57:Vendor_HAL/ST/STM32F4xx_HAL_Driver/Src/stm32f4xx_hal_flash.c ****        (+) Enable/Disable the Instruction cache and the Data cache
  58:Vendor_HAL/ST/STM32F4xx_HAL_Driver/Src/stm32f4xx_hal_flash.c ****        (+) Reset the Instruction cache and the Data cache
  59:Vendor_HAL/ST/STM32F4xx_HAL_Driver/Src/stm32f4xx_hal_flash.c ****        (+) Enable/Disable the FLASH interrupts
  60:Vendor_HAL/ST/STM32F4xx_HAL_Driver/Src/stm32f4xx_hal_flash.c ****        (+) Monitor the FLASH flags status
  61:Vendor_HAL/ST/STM32F4xx_HAL_Driver/Src/stm32f4xx_hal_flash.c ****           
  62:Vendor_HAL/ST/STM32F4xx_HAL_Driver/Src/stm32f4xx_hal_flash.c ****   @endverbatim
  63:Vendor_HAL/ST/STM32F4xx_HAL_Driver/Src/stm32f4xx_hal_flash.c ****   ******************************************************************************
  64:Vendor_HAL/ST/STM32F4xx_HAL_Driver/Src/stm32f4xx_hal_flash.c ****   * @attention
  65:Vendor_HAL/ST/STM32F4xx_HAL_Driver/Src/stm32f4xx_hal_flash.c ****   *
  66:Vendor_HAL/ST/STM32F4xx_HAL_Driver/Src/stm32f4xx_hal_flash.c ****   * <h2><center>&copy; Copyright (c) 2017 STMicroelectronics.
  67:Vendor_HAL/ST/STM32F4xx_HAL_Driver/Src/stm32f4xx_hal_flash.c ****   * All rights reserved.</center></h2>
  68:Vendor_HAL/ST/STM32F4xx_HAL_Driver/Src/stm32f4xx_hal_flash.c ****   *
  69:Vendor_HAL/ST/STM32F4xx_HAL_Driver/Src/stm32f4xx_hal_flash.c ****   * This software component is licensed by ST under BSD 3-Clause license,
  70:Vendor_HAL/ST/STM32F4xx_HAL_Driver/Src/stm32f4xx_hal_flash.c ****   * the "License"; You may not use this file except in compliance with the
  71:Vendor_HAL/ST/STM32F4xx_HAL_Driver/Src/stm32f4xx_hal_flash.c ****   * License. You may obtain a copy of the License at:
  72:Vendor_HAL/ST/STM32F4xx_HAL_Driver/Src/stm32f4xx_hal_flash.c ****   *                        opensource.org/licenses/BSD-3-Clause
  73:Vendor_HAL/ST/STM32F4xx_HAL_Driver/Src/stm32f4xx_hal_flash.c ****   *
  74:Vendor_HAL/ST/STM32F4xx_HAL_Driver/Src/stm32f4xx_hal_flash.c ****   ******************************************************************************
  75:Vendor_HAL/ST/STM32F4xx_HAL_Driver/Src/stm32f4xx_hal_flash.c ****   */ 
  76:Vendor_HAL/ST/STM32F4xx_HAL_Driver/Src/stm32f4xx_hal_flash.c **** 
  77:Vendor_HAL/ST/STM32F4xx_HAL_Driver/Src/stm32f4xx_hal_flash.c **** /* Includes ------------------------------------------------------------------*/
  78:Vendor_HAL/ST/STM32F4xx_HAL_Driver/Src/stm32f4xx_hal_flash.c **** #include "stm32f4xx_hal.h"
  79:Vendor_HAL/ST/STM32F4xx_HAL_Driver/Src/stm32f4xx_hal_flash.c **** 
  80:Vendor_HAL/ST/STM32F4xx_HAL_Driver/Src/stm32f4xx_hal_flash.c **** /** @addtogroup STM32F4xx_HAL_Driver
  81:Vendor_HAL/ST/STM32F4xx_HAL_Driver/Src/stm32f4xx_hal_flash.c ****   * @{
  82:Vendor_HAL/ST/STM32F4xx_HAL_Driver/Src/stm32f4xx_hal_flash.c ****   */
  83:Vendor_HAL/ST/STM32F4xx_HAL_Driver/Src/stm32f4xx_hal_flash.c **** 
  84:Vendor_HAL/ST/STM32F4xx_HAL_Driver/Src/stm32f4xx_hal_flash.c **** /** @defgroup FLASH FLASH
  85:Vendor_HAL/ST/STM32F4xx_HAL_Driver/Src/stm32f4xx_hal_flash.c ****   * @brief FLASH HAL module driver
  86:Vendor_HAL/ST/STM32F4xx_HAL_Driver/Src/stm32f4xx_hal_flash.c ****   * @{
  87:Vendor_HAL/ST/STM32F4xx_HAL_Driver/Src/stm32f4xx_hal_flash.c ****   */
  88:Vendor_HAL/ST/STM32F4xx_HAL_Driver/Src/stm32f4xx_hal_flash.c **** 
ARM GAS  C:\Users\katre\AppData\Local\Temp\ccyg67t2.s 			page 3


  89:Vendor_HAL/ST/STM32F4xx_HAL_Driver/Src/stm32f4xx_hal_flash.c **** #ifdef HAL_FLASH_MODULE_ENABLED
  90:Vendor_HAL/ST/STM32F4xx_HAL_Driver/Src/stm32f4xx_hal_flash.c **** 
  91:Vendor_HAL/ST/STM32F4xx_HAL_Driver/Src/stm32f4xx_hal_flash.c **** /* Private typedef -----------------------------------------------------------*/
  92:Vendor_HAL/ST/STM32F4xx_HAL_Driver/Src/stm32f4xx_hal_flash.c **** /* Private define ------------------------------------------------------------*/
  93:Vendor_HAL/ST/STM32F4xx_HAL_Driver/Src/stm32f4xx_hal_flash.c **** /** @addtogroup FLASH_Private_Constants
  94:Vendor_HAL/ST/STM32F4xx_HAL_Driver/Src/stm32f4xx_hal_flash.c ****   * @{
  95:Vendor_HAL/ST/STM32F4xx_HAL_Driver/Src/stm32f4xx_hal_flash.c ****   */
  96:Vendor_HAL/ST/STM32F4xx_HAL_Driver/Src/stm32f4xx_hal_flash.c **** #define FLASH_TIMEOUT_VALUE       50000U /* 50 s */
  97:Vendor_HAL/ST/STM32F4xx_HAL_Driver/Src/stm32f4xx_hal_flash.c **** /**
  98:Vendor_HAL/ST/STM32F4xx_HAL_Driver/Src/stm32f4xx_hal_flash.c ****   * @}
  99:Vendor_HAL/ST/STM32F4xx_HAL_Driver/Src/stm32f4xx_hal_flash.c ****   */         
 100:Vendor_HAL/ST/STM32F4xx_HAL_Driver/Src/stm32f4xx_hal_flash.c **** /* Private macro -------------------------------------------------------------*/
 101:Vendor_HAL/ST/STM32F4xx_HAL_Driver/Src/stm32f4xx_hal_flash.c **** /* Private variables ---------------------------------------------------------*/
 102:Vendor_HAL/ST/STM32F4xx_HAL_Driver/Src/stm32f4xx_hal_flash.c **** /** @addtogroup FLASH_Private_Variables
 103:Vendor_HAL/ST/STM32F4xx_HAL_Driver/Src/stm32f4xx_hal_flash.c ****   * @{
 104:Vendor_HAL/ST/STM32F4xx_HAL_Driver/Src/stm32f4xx_hal_flash.c ****   */
 105:Vendor_HAL/ST/STM32F4xx_HAL_Driver/Src/stm32f4xx_hal_flash.c **** /* Variable used for Erase sectors under interruption */
 106:Vendor_HAL/ST/STM32F4xx_HAL_Driver/Src/stm32f4xx_hal_flash.c **** FLASH_ProcessTypeDef pFlash;
 107:Vendor_HAL/ST/STM32F4xx_HAL_Driver/Src/stm32f4xx_hal_flash.c **** /**
 108:Vendor_HAL/ST/STM32F4xx_HAL_Driver/Src/stm32f4xx_hal_flash.c ****   * @}
 109:Vendor_HAL/ST/STM32F4xx_HAL_Driver/Src/stm32f4xx_hal_flash.c ****   */
 110:Vendor_HAL/ST/STM32F4xx_HAL_Driver/Src/stm32f4xx_hal_flash.c **** 
 111:Vendor_HAL/ST/STM32F4xx_HAL_Driver/Src/stm32f4xx_hal_flash.c **** /* Private function prototypes -----------------------------------------------*/
 112:Vendor_HAL/ST/STM32F4xx_HAL_Driver/Src/stm32f4xx_hal_flash.c **** /** @addtogroup FLASH_Private_Functions
 113:Vendor_HAL/ST/STM32F4xx_HAL_Driver/Src/stm32f4xx_hal_flash.c ****   * @{
 114:Vendor_HAL/ST/STM32F4xx_HAL_Driver/Src/stm32f4xx_hal_flash.c ****   */
 115:Vendor_HAL/ST/STM32F4xx_HAL_Driver/Src/stm32f4xx_hal_flash.c **** /* Program operations */
 116:Vendor_HAL/ST/STM32F4xx_HAL_Driver/Src/stm32f4xx_hal_flash.c **** static void   FLASH_Program_DoubleWord(uint32_t Address, uint64_t Data);
 117:Vendor_HAL/ST/STM32F4xx_HAL_Driver/Src/stm32f4xx_hal_flash.c **** static void   FLASH_Program_Word(uint32_t Address, uint32_t Data);
 118:Vendor_HAL/ST/STM32F4xx_HAL_Driver/Src/stm32f4xx_hal_flash.c **** static void   FLASH_Program_HalfWord(uint32_t Address, uint16_t Data);
 119:Vendor_HAL/ST/STM32F4xx_HAL_Driver/Src/stm32f4xx_hal_flash.c **** static void   FLASH_Program_Byte(uint32_t Address, uint8_t Data);
 120:Vendor_HAL/ST/STM32F4xx_HAL_Driver/Src/stm32f4xx_hal_flash.c **** static void   FLASH_SetErrorCode(void);
 121:Vendor_HAL/ST/STM32F4xx_HAL_Driver/Src/stm32f4xx_hal_flash.c **** 
 122:Vendor_HAL/ST/STM32F4xx_HAL_Driver/Src/stm32f4xx_hal_flash.c **** HAL_StatusTypeDef FLASH_WaitForLastOperation(uint32_t Timeout);
 123:Vendor_HAL/ST/STM32F4xx_HAL_Driver/Src/stm32f4xx_hal_flash.c **** /**
 124:Vendor_HAL/ST/STM32F4xx_HAL_Driver/Src/stm32f4xx_hal_flash.c ****   * @}
 125:Vendor_HAL/ST/STM32F4xx_HAL_Driver/Src/stm32f4xx_hal_flash.c ****   */
 126:Vendor_HAL/ST/STM32F4xx_HAL_Driver/Src/stm32f4xx_hal_flash.c **** 
 127:Vendor_HAL/ST/STM32F4xx_HAL_Driver/Src/stm32f4xx_hal_flash.c **** /* Exported functions --------------------------------------------------------*/
 128:Vendor_HAL/ST/STM32F4xx_HAL_Driver/Src/stm32f4xx_hal_flash.c **** /** @defgroup FLASH_Exported_Functions FLASH Exported Functions
 129:Vendor_HAL/ST/STM32F4xx_HAL_Driver/Src/stm32f4xx_hal_flash.c ****   * @{
 130:Vendor_HAL/ST/STM32F4xx_HAL_Driver/Src/stm32f4xx_hal_flash.c ****   */
 131:Vendor_HAL/ST/STM32F4xx_HAL_Driver/Src/stm32f4xx_hal_flash.c ****   
 132:Vendor_HAL/ST/STM32F4xx_HAL_Driver/Src/stm32f4xx_hal_flash.c **** /** @defgroup FLASH_Exported_Functions_Group1 Programming operation functions 
 133:Vendor_HAL/ST/STM32F4xx_HAL_Driver/Src/stm32f4xx_hal_flash.c ****  *  @brief   Programming operation functions 
 134:Vendor_HAL/ST/STM32F4xx_HAL_Driver/Src/stm32f4xx_hal_flash.c ****  *
 135:Vendor_HAL/ST/STM32F4xx_HAL_Driver/Src/stm32f4xx_hal_flash.c **** @verbatim   
 136:Vendor_HAL/ST/STM32F4xx_HAL_Driver/Src/stm32f4xx_hal_flash.c ****  ===============================================================================
 137:Vendor_HAL/ST/STM32F4xx_HAL_Driver/Src/stm32f4xx_hal_flash.c ****                   ##### Programming operation functions #####
 138:Vendor_HAL/ST/STM32F4xx_HAL_Driver/Src/stm32f4xx_hal_flash.c ****  ===============================================================================  
 139:Vendor_HAL/ST/STM32F4xx_HAL_Driver/Src/stm32f4xx_hal_flash.c ****     [..]
 140:Vendor_HAL/ST/STM32F4xx_HAL_Driver/Src/stm32f4xx_hal_flash.c ****     This subsection provides a set of functions allowing to manage the FLASH 
 141:Vendor_HAL/ST/STM32F4xx_HAL_Driver/Src/stm32f4xx_hal_flash.c ****     program operations.
 142:Vendor_HAL/ST/STM32F4xx_HAL_Driver/Src/stm32f4xx_hal_flash.c **** 
 143:Vendor_HAL/ST/STM32F4xx_HAL_Driver/Src/stm32f4xx_hal_flash.c **** @endverbatim
 144:Vendor_HAL/ST/STM32F4xx_HAL_Driver/Src/stm32f4xx_hal_flash.c ****   * @{
 145:Vendor_HAL/ST/STM32F4xx_HAL_Driver/Src/stm32f4xx_hal_flash.c ****   */
ARM GAS  C:\Users\katre\AppData\Local\Temp\ccyg67t2.s 			page 4


 146:Vendor_HAL/ST/STM32F4xx_HAL_Driver/Src/stm32f4xx_hal_flash.c **** 
 147:Vendor_HAL/ST/STM32F4xx_HAL_Driver/Src/stm32f4xx_hal_flash.c **** /**
 148:Vendor_HAL/ST/STM32F4xx_HAL_Driver/Src/stm32f4xx_hal_flash.c ****   * @brief  Program byte, halfword, word or double word at a specified address
 149:Vendor_HAL/ST/STM32F4xx_HAL_Driver/Src/stm32f4xx_hal_flash.c ****   * @param  TypeProgram  Indicate the way to program at a specified address.
 150:Vendor_HAL/ST/STM32F4xx_HAL_Driver/Src/stm32f4xx_hal_flash.c ****   *                           This parameter can be a value of @ref FLASH_Type_Program
 151:Vendor_HAL/ST/STM32F4xx_HAL_Driver/Src/stm32f4xx_hal_flash.c ****   * @param  Address  specifies the address to be programmed.
 152:Vendor_HAL/ST/STM32F4xx_HAL_Driver/Src/stm32f4xx_hal_flash.c ****   * @param  Data specifies the data to be programmed
 153:Vendor_HAL/ST/STM32F4xx_HAL_Driver/Src/stm32f4xx_hal_flash.c ****   * 
 154:Vendor_HAL/ST/STM32F4xx_HAL_Driver/Src/stm32f4xx_hal_flash.c ****   * @retval HAL_StatusTypeDef HAL Status
 155:Vendor_HAL/ST/STM32F4xx_HAL_Driver/Src/stm32f4xx_hal_flash.c ****   */
 156:Vendor_HAL/ST/STM32F4xx_HAL_Driver/Src/stm32f4xx_hal_flash.c **** HAL_StatusTypeDef HAL_FLASH_Program(uint32_t TypeProgram, uint32_t Address, uint64_t Data)
 157:Vendor_HAL/ST/STM32F4xx_HAL_Driver/Src/stm32f4xx_hal_flash.c **** {
 158:Vendor_HAL/ST/STM32F4xx_HAL_Driver/Src/stm32f4xx_hal_flash.c ****   HAL_StatusTypeDef status = HAL_ERROR;
 159:Vendor_HAL/ST/STM32F4xx_HAL_Driver/Src/stm32f4xx_hal_flash.c ****   
 160:Vendor_HAL/ST/STM32F4xx_HAL_Driver/Src/stm32f4xx_hal_flash.c ****   /* Process Locked */
 161:Vendor_HAL/ST/STM32F4xx_HAL_Driver/Src/stm32f4xx_hal_flash.c ****   __HAL_LOCK(&pFlash);
 162:Vendor_HAL/ST/STM32F4xx_HAL_Driver/Src/stm32f4xx_hal_flash.c ****   
 163:Vendor_HAL/ST/STM32F4xx_HAL_Driver/Src/stm32f4xx_hal_flash.c ****   /* Check the parameters */
 164:Vendor_HAL/ST/STM32F4xx_HAL_Driver/Src/stm32f4xx_hal_flash.c ****   assert_param(IS_FLASH_TYPEPROGRAM(TypeProgram));
 165:Vendor_HAL/ST/STM32F4xx_HAL_Driver/Src/stm32f4xx_hal_flash.c ****   
 166:Vendor_HAL/ST/STM32F4xx_HAL_Driver/Src/stm32f4xx_hal_flash.c ****   /* Wait for last operation to be completed */
 167:Vendor_HAL/ST/STM32F4xx_HAL_Driver/Src/stm32f4xx_hal_flash.c ****   status = FLASH_WaitForLastOperation((uint32_t)FLASH_TIMEOUT_VALUE);
 168:Vendor_HAL/ST/STM32F4xx_HAL_Driver/Src/stm32f4xx_hal_flash.c ****   
 169:Vendor_HAL/ST/STM32F4xx_HAL_Driver/Src/stm32f4xx_hal_flash.c ****   if(status == HAL_OK)
 170:Vendor_HAL/ST/STM32F4xx_HAL_Driver/Src/stm32f4xx_hal_flash.c ****   {
 171:Vendor_HAL/ST/STM32F4xx_HAL_Driver/Src/stm32f4xx_hal_flash.c ****     if(TypeProgram == FLASH_TYPEPROGRAM_BYTE)
 172:Vendor_HAL/ST/STM32F4xx_HAL_Driver/Src/stm32f4xx_hal_flash.c ****     {
 173:Vendor_HAL/ST/STM32F4xx_HAL_Driver/Src/stm32f4xx_hal_flash.c ****       /*Program byte (8-bit) at a specified address.*/
 174:Vendor_HAL/ST/STM32F4xx_HAL_Driver/Src/stm32f4xx_hal_flash.c ****       FLASH_Program_Byte(Address, (uint8_t) Data);
 175:Vendor_HAL/ST/STM32F4xx_HAL_Driver/Src/stm32f4xx_hal_flash.c ****     }
 176:Vendor_HAL/ST/STM32F4xx_HAL_Driver/Src/stm32f4xx_hal_flash.c ****     else if(TypeProgram == FLASH_TYPEPROGRAM_HALFWORD)
 177:Vendor_HAL/ST/STM32F4xx_HAL_Driver/Src/stm32f4xx_hal_flash.c ****     {
 178:Vendor_HAL/ST/STM32F4xx_HAL_Driver/Src/stm32f4xx_hal_flash.c ****       /*Program halfword (16-bit) at a specified address.*/
 179:Vendor_HAL/ST/STM32F4xx_HAL_Driver/Src/stm32f4xx_hal_flash.c ****       FLASH_Program_HalfWord(Address, (uint16_t) Data);
 180:Vendor_HAL/ST/STM32F4xx_HAL_Driver/Src/stm32f4xx_hal_flash.c ****     }
 181:Vendor_HAL/ST/STM32F4xx_HAL_Driver/Src/stm32f4xx_hal_flash.c ****     else if(TypeProgram == FLASH_TYPEPROGRAM_WORD)
 182:Vendor_HAL/ST/STM32F4xx_HAL_Driver/Src/stm32f4xx_hal_flash.c ****     {
 183:Vendor_HAL/ST/STM32F4xx_HAL_Driver/Src/stm32f4xx_hal_flash.c ****       /*Program word (32-bit) at a specified address.*/
 184:Vendor_HAL/ST/STM32F4xx_HAL_Driver/Src/stm32f4xx_hal_flash.c ****       FLASH_Program_Word(Address, (uint32_t) Data);
 185:Vendor_HAL/ST/STM32F4xx_HAL_Driver/Src/stm32f4xx_hal_flash.c ****     }
 186:Vendor_HAL/ST/STM32F4xx_HAL_Driver/Src/stm32f4xx_hal_flash.c ****     else
 187:Vendor_HAL/ST/STM32F4xx_HAL_Driver/Src/stm32f4xx_hal_flash.c ****     {
 188:Vendor_HAL/ST/STM32F4xx_HAL_Driver/Src/stm32f4xx_hal_flash.c ****       /*Program double word (64-bit) at a specified address.*/
 189:Vendor_HAL/ST/STM32F4xx_HAL_Driver/Src/stm32f4xx_hal_flash.c ****       FLASH_Program_DoubleWord(Address, Data);
 190:Vendor_HAL/ST/STM32F4xx_HAL_Driver/Src/stm32f4xx_hal_flash.c ****     }
 191:Vendor_HAL/ST/STM32F4xx_HAL_Driver/Src/stm32f4xx_hal_flash.c ****     
 192:Vendor_HAL/ST/STM32F4xx_HAL_Driver/Src/stm32f4xx_hal_flash.c ****     /* Wait for last operation to be completed */
 193:Vendor_HAL/ST/STM32F4xx_HAL_Driver/Src/stm32f4xx_hal_flash.c ****     status = FLASH_WaitForLastOperation((uint32_t)FLASH_TIMEOUT_VALUE);
 194:Vendor_HAL/ST/STM32F4xx_HAL_Driver/Src/stm32f4xx_hal_flash.c ****     
 195:Vendor_HAL/ST/STM32F4xx_HAL_Driver/Src/stm32f4xx_hal_flash.c ****     /* If the program operation is completed, disable the PG Bit */
 196:Vendor_HAL/ST/STM32F4xx_HAL_Driver/Src/stm32f4xx_hal_flash.c ****     FLASH->CR &= (~FLASH_CR_PG);  
 197:Vendor_HAL/ST/STM32F4xx_HAL_Driver/Src/stm32f4xx_hal_flash.c ****   }
 198:Vendor_HAL/ST/STM32F4xx_HAL_Driver/Src/stm32f4xx_hal_flash.c ****   
 199:Vendor_HAL/ST/STM32F4xx_HAL_Driver/Src/stm32f4xx_hal_flash.c ****   /* Process Unlocked */
 200:Vendor_HAL/ST/STM32F4xx_HAL_Driver/Src/stm32f4xx_hal_flash.c ****   __HAL_UNLOCK(&pFlash);
 201:Vendor_HAL/ST/STM32F4xx_HAL_Driver/Src/stm32f4xx_hal_flash.c ****   
 202:Vendor_HAL/ST/STM32F4xx_HAL_Driver/Src/stm32f4xx_hal_flash.c ****   return status;
ARM GAS  C:\Users\katre\AppData\Local\Temp\ccyg67t2.s 			page 5


 203:Vendor_HAL/ST/STM32F4xx_HAL_Driver/Src/stm32f4xx_hal_flash.c **** }
 204:Vendor_HAL/ST/STM32F4xx_HAL_Driver/Src/stm32f4xx_hal_flash.c **** 
 205:Vendor_HAL/ST/STM32F4xx_HAL_Driver/Src/stm32f4xx_hal_flash.c **** /**
 206:Vendor_HAL/ST/STM32F4xx_HAL_Driver/Src/stm32f4xx_hal_flash.c ****   * @brief   Program byte, halfword, word or double word at a specified address  with interrupt ena
 207:Vendor_HAL/ST/STM32F4xx_HAL_Driver/Src/stm32f4xx_hal_flash.c ****   * @param  TypeProgram  Indicate the way to program at a specified address.
 208:Vendor_HAL/ST/STM32F4xx_HAL_Driver/Src/stm32f4xx_hal_flash.c ****   *                           This parameter can be a value of @ref FLASH_Type_Program
 209:Vendor_HAL/ST/STM32F4xx_HAL_Driver/Src/stm32f4xx_hal_flash.c ****   * @param  Address  specifies the address to be programmed.
 210:Vendor_HAL/ST/STM32F4xx_HAL_Driver/Src/stm32f4xx_hal_flash.c ****   * @param  Data specifies the data to be programmed
 211:Vendor_HAL/ST/STM32F4xx_HAL_Driver/Src/stm32f4xx_hal_flash.c ****   * 
 212:Vendor_HAL/ST/STM32F4xx_HAL_Driver/Src/stm32f4xx_hal_flash.c ****   * @retval HAL Status
 213:Vendor_HAL/ST/STM32F4xx_HAL_Driver/Src/stm32f4xx_hal_flash.c ****   */
 214:Vendor_HAL/ST/STM32F4xx_HAL_Driver/Src/stm32f4xx_hal_flash.c **** HAL_StatusTypeDef HAL_FLASH_Program_IT(uint32_t TypeProgram, uint32_t Address, uint64_t Data)
 215:Vendor_HAL/ST/STM32F4xx_HAL_Driver/Src/stm32f4xx_hal_flash.c **** {
 216:Vendor_HAL/ST/STM32F4xx_HAL_Driver/Src/stm32f4xx_hal_flash.c ****   HAL_StatusTypeDef status = HAL_OK;
 217:Vendor_HAL/ST/STM32F4xx_HAL_Driver/Src/stm32f4xx_hal_flash.c ****   
 218:Vendor_HAL/ST/STM32F4xx_HAL_Driver/Src/stm32f4xx_hal_flash.c ****   /* Process Locked */
 219:Vendor_HAL/ST/STM32F4xx_HAL_Driver/Src/stm32f4xx_hal_flash.c ****   __HAL_LOCK(&pFlash);
 220:Vendor_HAL/ST/STM32F4xx_HAL_Driver/Src/stm32f4xx_hal_flash.c **** 
 221:Vendor_HAL/ST/STM32F4xx_HAL_Driver/Src/stm32f4xx_hal_flash.c ****   /* Check the parameters */
 222:Vendor_HAL/ST/STM32F4xx_HAL_Driver/Src/stm32f4xx_hal_flash.c ****   assert_param(IS_FLASH_TYPEPROGRAM(TypeProgram));
 223:Vendor_HAL/ST/STM32F4xx_HAL_Driver/Src/stm32f4xx_hal_flash.c **** 
 224:Vendor_HAL/ST/STM32F4xx_HAL_Driver/Src/stm32f4xx_hal_flash.c ****   /* Enable End of FLASH Operation interrupt */
 225:Vendor_HAL/ST/STM32F4xx_HAL_Driver/Src/stm32f4xx_hal_flash.c ****   __HAL_FLASH_ENABLE_IT(FLASH_IT_EOP);
 226:Vendor_HAL/ST/STM32F4xx_HAL_Driver/Src/stm32f4xx_hal_flash.c ****   
 227:Vendor_HAL/ST/STM32F4xx_HAL_Driver/Src/stm32f4xx_hal_flash.c ****   /* Enable Error source interrupt */
 228:Vendor_HAL/ST/STM32F4xx_HAL_Driver/Src/stm32f4xx_hal_flash.c ****   __HAL_FLASH_ENABLE_IT(FLASH_IT_ERR);
 229:Vendor_HAL/ST/STM32F4xx_HAL_Driver/Src/stm32f4xx_hal_flash.c **** 
 230:Vendor_HAL/ST/STM32F4xx_HAL_Driver/Src/stm32f4xx_hal_flash.c ****   pFlash.ProcedureOnGoing = FLASH_PROC_PROGRAM;
 231:Vendor_HAL/ST/STM32F4xx_HAL_Driver/Src/stm32f4xx_hal_flash.c ****   pFlash.Address = Address;
 232:Vendor_HAL/ST/STM32F4xx_HAL_Driver/Src/stm32f4xx_hal_flash.c **** 
 233:Vendor_HAL/ST/STM32F4xx_HAL_Driver/Src/stm32f4xx_hal_flash.c ****   if(TypeProgram == FLASH_TYPEPROGRAM_BYTE)
 234:Vendor_HAL/ST/STM32F4xx_HAL_Driver/Src/stm32f4xx_hal_flash.c ****   {
 235:Vendor_HAL/ST/STM32F4xx_HAL_Driver/Src/stm32f4xx_hal_flash.c ****     /*Program byte (8-bit) at a specified address.*/
 236:Vendor_HAL/ST/STM32F4xx_HAL_Driver/Src/stm32f4xx_hal_flash.c ****       FLASH_Program_Byte(Address, (uint8_t) Data);
 237:Vendor_HAL/ST/STM32F4xx_HAL_Driver/Src/stm32f4xx_hal_flash.c ****   }
 238:Vendor_HAL/ST/STM32F4xx_HAL_Driver/Src/stm32f4xx_hal_flash.c ****   else if(TypeProgram == FLASH_TYPEPROGRAM_HALFWORD)
 239:Vendor_HAL/ST/STM32F4xx_HAL_Driver/Src/stm32f4xx_hal_flash.c ****   {
 240:Vendor_HAL/ST/STM32F4xx_HAL_Driver/Src/stm32f4xx_hal_flash.c ****     /*Program halfword (16-bit) at a specified address.*/
 241:Vendor_HAL/ST/STM32F4xx_HAL_Driver/Src/stm32f4xx_hal_flash.c ****     FLASH_Program_HalfWord(Address, (uint16_t) Data);
 242:Vendor_HAL/ST/STM32F4xx_HAL_Driver/Src/stm32f4xx_hal_flash.c ****   }
 243:Vendor_HAL/ST/STM32F4xx_HAL_Driver/Src/stm32f4xx_hal_flash.c ****   else if(TypeProgram == FLASH_TYPEPROGRAM_WORD)
 244:Vendor_HAL/ST/STM32F4xx_HAL_Driver/Src/stm32f4xx_hal_flash.c ****   {
 245:Vendor_HAL/ST/STM32F4xx_HAL_Driver/Src/stm32f4xx_hal_flash.c ****     /*Program word (32-bit) at a specified address.*/
 246:Vendor_HAL/ST/STM32F4xx_HAL_Driver/Src/stm32f4xx_hal_flash.c ****     FLASH_Program_Word(Address, (uint32_t) Data);
 247:Vendor_HAL/ST/STM32F4xx_HAL_Driver/Src/stm32f4xx_hal_flash.c ****   }
 248:Vendor_HAL/ST/STM32F4xx_HAL_Driver/Src/stm32f4xx_hal_flash.c ****   else
 249:Vendor_HAL/ST/STM32F4xx_HAL_Driver/Src/stm32f4xx_hal_flash.c ****   {
 250:Vendor_HAL/ST/STM32F4xx_HAL_Driver/Src/stm32f4xx_hal_flash.c ****     /*Program double word (64-bit) at a specified address.*/
 251:Vendor_HAL/ST/STM32F4xx_HAL_Driver/Src/stm32f4xx_hal_flash.c ****     FLASH_Program_DoubleWord(Address, Data);
 252:Vendor_HAL/ST/STM32F4xx_HAL_Driver/Src/stm32f4xx_hal_flash.c ****   }
 253:Vendor_HAL/ST/STM32F4xx_HAL_Driver/Src/stm32f4xx_hal_flash.c **** 
 254:Vendor_HAL/ST/STM32F4xx_HAL_Driver/Src/stm32f4xx_hal_flash.c ****   return status;
 255:Vendor_HAL/ST/STM32F4xx_HAL_Driver/Src/stm32f4xx_hal_flash.c **** }
 256:Vendor_HAL/ST/STM32F4xx_HAL_Driver/Src/stm32f4xx_hal_flash.c **** 
 257:Vendor_HAL/ST/STM32F4xx_HAL_Driver/Src/stm32f4xx_hal_flash.c **** /**
 258:Vendor_HAL/ST/STM32F4xx_HAL_Driver/Src/stm32f4xx_hal_flash.c ****   * @brief This function handles FLASH interrupt request.
 259:Vendor_HAL/ST/STM32F4xx_HAL_Driver/Src/stm32f4xx_hal_flash.c ****   * @retval None
ARM GAS  C:\Users\katre\AppData\Local\Temp\ccyg67t2.s 			page 6


 260:Vendor_HAL/ST/STM32F4xx_HAL_Driver/Src/stm32f4xx_hal_flash.c ****   */
 261:Vendor_HAL/ST/STM32F4xx_HAL_Driver/Src/stm32f4xx_hal_flash.c **** void HAL_FLASH_IRQHandler(void)
 262:Vendor_HAL/ST/STM32F4xx_HAL_Driver/Src/stm32f4xx_hal_flash.c **** {
 263:Vendor_HAL/ST/STM32F4xx_HAL_Driver/Src/stm32f4xx_hal_flash.c ****   uint32_t addresstmp = 0U;
 264:Vendor_HAL/ST/STM32F4xx_HAL_Driver/Src/stm32f4xx_hal_flash.c ****   
 265:Vendor_HAL/ST/STM32F4xx_HAL_Driver/Src/stm32f4xx_hal_flash.c ****   /* Check FLASH operation error flags */
 266:Vendor_HAL/ST/STM32F4xx_HAL_Driver/Src/stm32f4xx_hal_flash.c **** #if defined(FLASH_SR_RDERR) 
 267:Vendor_HAL/ST/STM32F4xx_HAL_Driver/Src/stm32f4xx_hal_flash.c ****   if(__HAL_FLASH_GET_FLAG((FLASH_FLAG_OPERR | FLASH_FLAG_WRPERR | FLASH_FLAG_PGAERR | \
 268:Vendor_HAL/ST/STM32F4xx_HAL_Driver/Src/stm32f4xx_hal_flash.c ****     FLASH_FLAG_PGPERR | FLASH_FLAG_PGSERR | FLASH_FLAG_RDERR)) != RESET)
 269:Vendor_HAL/ST/STM32F4xx_HAL_Driver/Src/stm32f4xx_hal_flash.c **** #else
 270:Vendor_HAL/ST/STM32F4xx_HAL_Driver/Src/stm32f4xx_hal_flash.c ****   if(__HAL_FLASH_GET_FLAG((FLASH_FLAG_OPERR | FLASH_FLAG_WRPERR | FLASH_FLAG_PGAERR | \
 271:Vendor_HAL/ST/STM32F4xx_HAL_Driver/Src/stm32f4xx_hal_flash.c ****     FLASH_FLAG_PGPERR | FLASH_FLAG_PGSERR)) != RESET)
 272:Vendor_HAL/ST/STM32F4xx_HAL_Driver/Src/stm32f4xx_hal_flash.c **** #endif /* FLASH_SR_RDERR */
 273:Vendor_HAL/ST/STM32F4xx_HAL_Driver/Src/stm32f4xx_hal_flash.c ****   {
 274:Vendor_HAL/ST/STM32F4xx_HAL_Driver/Src/stm32f4xx_hal_flash.c ****     if(pFlash.ProcedureOnGoing == FLASH_PROC_SECTERASE)
 275:Vendor_HAL/ST/STM32F4xx_HAL_Driver/Src/stm32f4xx_hal_flash.c ****     {
 276:Vendor_HAL/ST/STM32F4xx_HAL_Driver/Src/stm32f4xx_hal_flash.c ****       /*return the faulty sector*/
 277:Vendor_HAL/ST/STM32F4xx_HAL_Driver/Src/stm32f4xx_hal_flash.c ****       addresstmp = pFlash.Sector;
 278:Vendor_HAL/ST/STM32F4xx_HAL_Driver/Src/stm32f4xx_hal_flash.c ****       pFlash.Sector = 0xFFFFFFFFU;
 279:Vendor_HAL/ST/STM32F4xx_HAL_Driver/Src/stm32f4xx_hal_flash.c ****     }
 280:Vendor_HAL/ST/STM32F4xx_HAL_Driver/Src/stm32f4xx_hal_flash.c ****     else if(pFlash.ProcedureOnGoing == FLASH_PROC_MASSERASE)
 281:Vendor_HAL/ST/STM32F4xx_HAL_Driver/Src/stm32f4xx_hal_flash.c ****     {
 282:Vendor_HAL/ST/STM32F4xx_HAL_Driver/Src/stm32f4xx_hal_flash.c ****       /*return the faulty bank*/
 283:Vendor_HAL/ST/STM32F4xx_HAL_Driver/Src/stm32f4xx_hal_flash.c ****       addresstmp = pFlash.Bank;
 284:Vendor_HAL/ST/STM32F4xx_HAL_Driver/Src/stm32f4xx_hal_flash.c ****     }
 285:Vendor_HAL/ST/STM32F4xx_HAL_Driver/Src/stm32f4xx_hal_flash.c ****     else
 286:Vendor_HAL/ST/STM32F4xx_HAL_Driver/Src/stm32f4xx_hal_flash.c ****     {
 287:Vendor_HAL/ST/STM32F4xx_HAL_Driver/Src/stm32f4xx_hal_flash.c ****       /*return the faulty address*/
 288:Vendor_HAL/ST/STM32F4xx_HAL_Driver/Src/stm32f4xx_hal_flash.c ****       addresstmp = pFlash.Address;
 289:Vendor_HAL/ST/STM32F4xx_HAL_Driver/Src/stm32f4xx_hal_flash.c ****     }
 290:Vendor_HAL/ST/STM32F4xx_HAL_Driver/Src/stm32f4xx_hal_flash.c ****     
 291:Vendor_HAL/ST/STM32F4xx_HAL_Driver/Src/stm32f4xx_hal_flash.c ****     /*Save the Error code*/
 292:Vendor_HAL/ST/STM32F4xx_HAL_Driver/Src/stm32f4xx_hal_flash.c ****     FLASH_SetErrorCode();
 293:Vendor_HAL/ST/STM32F4xx_HAL_Driver/Src/stm32f4xx_hal_flash.c ****     
 294:Vendor_HAL/ST/STM32F4xx_HAL_Driver/Src/stm32f4xx_hal_flash.c ****     /* FLASH error interrupt user callback */
 295:Vendor_HAL/ST/STM32F4xx_HAL_Driver/Src/stm32f4xx_hal_flash.c ****     HAL_FLASH_OperationErrorCallback(addresstmp);
 296:Vendor_HAL/ST/STM32F4xx_HAL_Driver/Src/stm32f4xx_hal_flash.c ****     
 297:Vendor_HAL/ST/STM32F4xx_HAL_Driver/Src/stm32f4xx_hal_flash.c ****     /*Stop the procedure ongoing*/
 298:Vendor_HAL/ST/STM32F4xx_HAL_Driver/Src/stm32f4xx_hal_flash.c ****     pFlash.ProcedureOnGoing = FLASH_PROC_NONE;
 299:Vendor_HAL/ST/STM32F4xx_HAL_Driver/Src/stm32f4xx_hal_flash.c ****   }
 300:Vendor_HAL/ST/STM32F4xx_HAL_Driver/Src/stm32f4xx_hal_flash.c ****   
 301:Vendor_HAL/ST/STM32F4xx_HAL_Driver/Src/stm32f4xx_hal_flash.c ****   /* Check FLASH End of Operation flag  */
 302:Vendor_HAL/ST/STM32F4xx_HAL_Driver/Src/stm32f4xx_hal_flash.c ****   if(__HAL_FLASH_GET_FLAG(FLASH_FLAG_EOP) != RESET)
 303:Vendor_HAL/ST/STM32F4xx_HAL_Driver/Src/stm32f4xx_hal_flash.c ****   {
 304:Vendor_HAL/ST/STM32F4xx_HAL_Driver/Src/stm32f4xx_hal_flash.c ****     /* Clear FLASH End of Operation pending bit */
 305:Vendor_HAL/ST/STM32F4xx_HAL_Driver/Src/stm32f4xx_hal_flash.c ****     __HAL_FLASH_CLEAR_FLAG(FLASH_FLAG_EOP);
 306:Vendor_HAL/ST/STM32F4xx_HAL_Driver/Src/stm32f4xx_hal_flash.c ****     
 307:Vendor_HAL/ST/STM32F4xx_HAL_Driver/Src/stm32f4xx_hal_flash.c ****     if(pFlash.ProcedureOnGoing == FLASH_PROC_SECTERASE)
 308:Vendor_HAL/ST/STM32F4xx_HAL_Driver/Src/stm32f4xx_hal_flash.c ****     {
 309:Vendor_HAL/ST/STM32F4xx_HAL_Driver/Src/stm32f4xx_hal_flash.c ****       /*Nb of sector to erased can be decreased*/
 310:Vendor_HAL/ST/STM32F4xx_HAL_Driver/Src/stm32f4xx_hal_flash.c ****       pFlash.NbSectorsToErase--;
 311:Vendor_HAL/ST/STM32F4xx_HAL_Driver/Src/stm32f4xx_hal_flash.c ****       
 312:Vendor_HAL/ST/STM32F4xx_HAL_Driver/Src/stm32f4xx_hal_flash.c ****       /* Check if there are still sectors to erase*/
 313:Vendor_HAL/ST/STM32F4xx_HAL_Driver/Src/stm32f4xx_hal_flash.c ****       if(pFlash.NbSectorsToErase != 0U)
 314:Vendor_HAL/ST/STM32F4xx_HAL_Driver/Src/stm32f4xx_hal_flash.c ****       {
 315:Vendor_HAL/ST/STM32F4xx_HAL_Driver/Src/stm32f4xx_hal_flash.c ****         addresstmp = pFlash.Sector;
 316:Vendor_HAL/ST/STM32F4xx_HAL_Driver/Src/stm32f4xx_hal_flash.c ****         /*Indicate user which sector has been erased*/
ARM GAS  C:\Users\katre\AppData\Local\Temp\ccyg67t2.s 			page 7


 317:Vendor_HAL/ST/STM32F4xx_HAL_Driver/Src/stm32f4xx_hal_flash.c ****         HAL_FLASH_EndOfOperationCallback(addresstmp);
 318:Vendor_HAL/ST/STM32F4xx_HAL_Driver/Src/stm32f4xx_hal_flash.c ****         
 319:Vendor_HAL/ST/STM32F4xx_HAL_Driver/Src/stm32f4xx_hal_flash.c ****         /*Increment sector number*/
 320:Vendor_HAL/ST/STM32F4xx_HAL_Driver/Src/stm32f4xx_hal_flash.c ****         pFlash.Sector++;
 321:Vendor_HAL/ST/STM32F4xx_HAL_Driver/Src/stm32f4xx_hal_flash.c ****         addresstmp = pFlash.Sector;
 322:Vendor_HAL/ST/STM32F4xx_HAL_Driver/Src/stm32f4xx_hal_flash.c ****         FLASH_Erase_Sector(addresstmp, pFlash.VoltageForErase);
 323:Vendor_HAL/ST/STM32F4xx_HAL_Driver/Src/stm32f4xx_hal_flash.c ****       }
 324:Vendor_HAL/ST/STM32F4xx_HAL_Driver/Src/stm32f4xx_hal_flash.c ****       else
 325:Vendor_HAL/ST/STM32F4xx_HAL_Driver/Src/stm32f4xx_hal_flash.c ****       {
 326:Vendor_HAL/ST/STM32F4xx_HAL_Driver/Src/stm32f4xx_hal_flash.c ****         /*No more sectors to Erase, user callback can be called.*/
 327:Vendor_HAL/ST/STM32F4xx_HAL_Driver/Src/stm32f4xx_hal_flash.c ****         /*Reset Sector and stop Erase sectors procedure*/
 328:Vendor_HAL/ST/STM32F4xx_HAL_Driver/Src/stm32f4xx_hal_flash.c ****         pFlash.Sector = addresstmp = 0xFFFFFFFFU;
 329:Vendor_HAL/ST/STM32F4xx_HAL_Driver/Src/stm32f4xx_hal_flash.c ****         pFlash.ProcedureOnGoing = FLASH_PROC_NONE;
 330:Vendor_HAL/ST/STM32F4xx_HAL_Driver/Src/stm32f4xx_hal_flash.c ****         
 331:Vendor_HAL/ST/STM32F4xx_HAL_Driver/Src/stm32f4xx_hal_flash.c ****         /* Flush the caches to be sure of the data consistency */
 332:Vendor_HAL/ST/STM32F4xx_HAL_Driver/Src/stm32f4xx_hal_flash.c ****         FLASH_FlushCaches() ;
 333:Vendor_HAL/ST/STM32F4xx_HAL_Driver/Src/stm32f4xx_hal_flash.c ****                 
 334:Vendor_HAL/ST/STM32F4xx_HAL_Driver/Src/stm32f4xx_hal_flash.c ****         /* FLASH EOP interrupt user callback */
 335:Vendor_HAL/ST/STM32F4xx_HAL_Driver/Src/stm32f4xx_hal_flash.c ****         HAL_FLASH_EndOfOperationCallback(addresstmp);
 336:Vendor_HAL/ST/STM32F4xx_HAL_Driver/Src/stm32f4xx_hal_flash.c ****       }
 337:Vendor_HAL/ST/STM32F4xx_HAL_Driver/Src/stm32f4xx_hal_flash.c ****     }
 338:Vendor_HAL/ST/STM32F4xx_HAL_Driver/Src/stm32f4xx_hal_flash.c ****     else 
 339:Vendor_HAL/ST/STM32F4xx_HAL_Driver/Src/stm32f4xx_hal_flash.c ****     {
 340:Vendor_HAL/ST/STM32F4xx_HAL_Driver/Src/stm32f4xx_hal_flash.c ****       if(pFlash.ProcedureOnGoing == FLASH_PROC_MASSERASE) 
 341:Vendor_HAL/ST/STM32F4xx_HAL_Driver/Src/stm32f4xx_hal_flash.c ****       {
 342:Vendor_HAL/ST/STM32F4xx_HAL_Driver/Src/stm32f4xx_hal_flash.c ****         /* MassErase ended. Return the selected bank */
 343:Vendor_HAL/ST/STM32F4xx_HAL_Driver/Src/stm32f4xx_hal_flash.c ****         /* Flush the caches to be sure of the data consistency */
 344:Vendor_HAL/ST/STM32F4xx_HAL_Driver/Src/stm32f4xx_hal_flash.c ****         FLASH_FlushCaches() ;
 345:Vendor_HAL/ST/STM32F4xx_HAL_Driver/Src/stm32f4xx_hal_flash.c **** 
 346:Vendor_HAL/ST/STM32F4xx_HAL_Driver/Src/stm32f4xx_hal_flash.c ****         /* FLASH EOP interrupt user callback */
 347:Vendor_HAL/ST/STM32F4xx_HAL_Driver/Src/stm32f4xx_hal_flash.c ****         HAL_FLASH_EndOfOperationCallback(pFlash.Bank);
 348:Vendor_HAL/ST/STM32F4xx_HAL_Driver/Src/stm32f4xx_hal_flash.c ****       }
 349:Vendor_HAL/ST/STM32F4xx_HAL_Driver/Src/stm32f4xx_hal_flash.c ****       else
 350:Vendor_HAL/ST/STM32F4xx_HAL_Driver/Src/stm32f4xx_hal_flash.c ****       {
 351:Vendor_HAL/ST/STM32F4xx_HAL_Driver/Src/stm32f4xx_hal_flash.c ****         /*Program ended. Return the selected address*/
 352:Vendor_HAL/ST/STM32F4xx_HAL_Driver/Src/stm32f4xx_hal_flash.c ****         /* FLASH EOP interrupt user callback */
 353:Vendor_HAL/ST/STM32F4xx_HAL_Driver/Src/stm32f4xx_hal_flash.c ****         HAL_FLASH_EndOfOperationCallback(pFlash.Address);
 354:Vendor_HAL/ST/STM32F4xx_HAL_Driver/Src/stm32f4xx_hal_flash.c ****       }
 355:Vendor_HAL/ST/STM32F4xx_HAL_Driver/Src/stm32f4xx_hal_flash.c ****       pFlash.ProcedureOnGoing = FLASH_PROC_NONE;
 356:Vendor_HAL/ST/STM32F4xx_HAL_Driver/Src/stm32f4xx_hal_flash.c ****     }
 357:Vendor_HAL/ST/STM32F4xx_HAL_Driver/Src/stm32f4xx_hal_flash.c ****   }
 358:Vendor_HAL/ST/STM32F4xx_HAL_Driver/Src/stm32f4xx_hal_flash.c ****   
 359:Vendor_HAL/ST/STM32F4xx_HAL_Driver/Src/stm32f4xx_hal_flash.c ****   if(pFlash.ProcedureOnGoing == FLASH_PROC_NONE)
 360:Vendor_HAL/ST/STM32F4xx_HAL_Driver/Src/stm32f4xx_hal_flash.c ****   {
 361:Vendor_HAL/ST/STM32F4xx_HAL_Driver/Src/stm32f4xx_hal_flash.c ****     /* Operation is completed, disable the PG, SER, SNB and MER Bits */
 362:Vendor_HAL/ST/STM32F4xx_HAL_Driver/Src/stm32f4xx_hal_flash.c ****     CLEAR_BIT(FLASH->CR, (FLASH_CR_PG | FLASH_CR_SER | FLASH_CR_SNB | FLASH_MER_BIT));
 363:Vendor_HAL/ST/STM32F4xx_HAL_Driver/Src/stm32f4xx_hal_flash.c **** 
 364:Vendor_HAL/ST/STM32F4xx_HAL_Driver/Src/stm32f4xx_hal_flash.c ****     /* Disable End of FLASH Operation interrupt */
 365:Vendor_HAL/ST/STM32F4xx_HAL_Driver/Src/stm32f4xx_hal_flash.c ****     __HAL_FLASH_DISABLE_IT(FLASH_IT_EOP);
 366:Vendor_HAL/ST/STM32F4xx_HAL_Driver/Src/stm32f4xx_hal_flash.c ****     
 367:Vendor_HAL/ST/STM32F4xx_HAL_Driver/Src/stm32f4xx_hal_flash.c ****     /* Disable Error source interrupt */
 368:Vendor_HAL/ST/STM32F4xx_HAL_Driver/Src/stm32f4xx_hal_flash.c ****     __HAL_FLASH_DISABLE_IT(FLASH_IT_ERR);
 369:Vendor_HAL/ST/STM32F4xx_HAL_Driver/Src/stm32f4xx_hal_flash.c ****     
 370:Vendor_HAL/ST/STM32F4xx_HAL_Driver/Src/stm32f4xx_hal_flash.c ****     /* Process Unlocked */
 371:Vendor_HAL/ST/STM32F4xx_HAL_Driver/Src/stm32f4xx_hal_flash.c ****     __HAL_UNLOCK(&pFlash);
 372:Vendor_HAL/ST/STM32F4xx_HAL_Driver/Src/stm32f4xx_hal_flash.c ****   }
 373:Vendor_HAL/ST/STM32F4xx_HAL_Driver/Src/stm32f4xx_hal_flash.c **** }
ARM GAS  C:\Users\katre\AppData\Local\Temp\ccyg67t2.s 			page 8


 374:Vendor_HAL/ST/STM32F4xx_HAL_Driver/Src/stm32f4xx_hal_flash.c **** 
 375:Vendor_HAL/ST/STM32F4xx_HAL_Driver/Src/stm32f4xx_hal_flash.c **** /**
 376:Vendor_HAL/ST/STM32F4xx_HAL_Driver/Src/stm32f4xx_hal_flash.c ****   * @brief  FLASH end of operation interrupt callback
 377:Vendor_HAL/ST/STM32F4xx_HAL_Driver/Src/stm32f4xx_hal_flash.c ****   * @param  ReturnValue The value saved in this parameter depends on the ongoing procedure
 378:Vendor_HAL/ST/STM32F4xx_HAL_Driver/Src/stm32f4xx_hal_flash.c ****   *                  Mass Erase: Bank number which has been requested to erase
 379:Vendor_HAL/ST/STM32F4xx_HAL_Driver/Src/stm32f4xx_hal_flash.c ****   *                  Sectors Erase: Sector which has been erased 
 380:Vendor_HAL/ST/STM32F4xx_HAL_Driver/Src/stm32f4xx_hal_flash.c ****   *                    (if 0xFFFFFFFFU, it means that all the selected sectors have been erased)
 381:Vendor_HAL/ST/STM32F4xx_HAL_Driver/Src/stm32f4xx_hal_flash.c ****   *                  Program: Address which was selected for data program
 382:Vendor_HAL/ST/STM32F4xx_HAL_Driver/Src/stm32f4xx_hal_flash.c ****   * @retval None
 383:Vendor_HAL/ST/STM32F4xx_HAL_Driver/Src/stm32f4xx_hal_flash.c ****   */
 384:Vendor_HAL/ST/STM32F4xx_HAL_Driver/Src/stm32f4xx_hal_flash.c **** __weak void HAL_FLASH_EndOfOperationCallback(uint32_t ReturnValue)
 385:Vendor_HAL/ST/STM32F4xx_HAL_Driver/Src/stm32f4xx_hal_flash.c **** {
 386:Vendor_HAL/ST/STM32F4xx_HAL_Driver/Src/stm32f4xx_hal_flash.c ****   /* Prevent unused argument(s) compilation warning */
 387:Vendor_HAL/ST/STM32F4xx_HAL_Driver/Src/stm32f4xx_hal_flash.c ****   UNUSED(ReturnValue);
 388:Vendor_HAL/ST/STM32F4xx_HAL_Driver/Src/stm32f4xx_hal_flash.c ****   /* NOTE : This function Should not be modified, when the callback is needed,
 389:Vendor_HAL/ST/STM32F4xx_HAL_Driver/Src/stm32f4xx_hal_flash.c ****             the HAL_FLASH_EndOfOperationCallback could be implemented in the user file
 390:Vendor_HAL/ST/STM32F4xx_HAL_Driver/Src/stm32f4xx_hal_flash.c ****    */ 
 391:Vendor_HAL/ST/STM32F4xx_HAL_Driver/Src/stm32f4xx_hal_flash.c **** }
 392:Vendor_HAL/ST/STM32F4xx_HAL_Driver/Src/stm32f4xx_hal_flash.c **** 
 393:Vendor_HAL/ST/STM32F4xx_HAL_Driver/Src/stm32f4xx_hal_flash.c **** /**
 394:Vendor_HAL/ST/STM32F4xx_HAL_Driver/Src/stm32f4xx_hal_flash.c ****   * @brief  FLASH operation error interrupt callback
 395:Vendor_HAL/ST/STM32F4xx_HAL_Driver/Src/stm32f4xx_hal_flash.c ****   * @param  ReturnValue The value saved in this parameter depends on the ongoing procedure
 396:Vendor_HAL/ST/STM32F4xx_HAL_Driver/Src/stm32f4xx_hal_flash.c ****   *                 Mass Erase: Bank number which has been requested to erase
 397:Vendor_HAL/ST/STM32F4xx_HAL_Driver/Src/stm32f4xx_hal_flash.c ****   *                 Sectors Erase: Sector number which returned an error
 398:Vendor_HAL/ST/STM32F4xx_HAL_Driver/Src/stm32f4xx_hal_flash.c ****   *                 Program: Address which was selected for data program
 399:Vendor_HAL/ST/STM32F4xx_HAL_Driver/Src/stm32f4xx_hal_flash.c ****   * @retval None
 400:Vendor_HAL/ST/STM32F4xx_HAL_Driver/Src/stm32f4xx_hal_flash.c ****   */
 401:Vendor_HAL/ST/STM32F4xx_HAL_Driver/Src/stm32f4xx_hal_flash.c **** __weak void HAL_FLASH_OperationErrorCallback(uint32_t ReturnValue)
 402:Vendor_HAL/ST/STM32F4xx_HAL_Driver/Src/stm32f4xx_hal_flash.c **** {
 403:Vendor_HAL/ST/STM32F4xx_HAL_Driver/Src/stm32f4xx_hal_flash.c ****   /* Prevent unused argument(s) compilation warning */
 404:Vendor_HAL/ST/STM32F4xx_HAL_Driver/Src/stm32f4xx_hal_flash.c ****   UNUSED(ReturnValue);
 405:Vendor_HAL/ST/STM32F4xx_HAL_Driver/Src/stm32f4xx_hal_flash.c ****   /* NOTE : This function Should not be modified, when the callback is needed,
 406:Vendor_HAL/ST/STM32F4xx_HAL_Driver/Src/stm32f4xx_hal_flash.c ****             the HAL_FLASH_OperationErrorCallback could be implemented in the user file
 407:Vendor_HAL/ST/STM32F4xx_HAL_Driver/Src/stm32f4xx_hal_flash.c ****    */ 
 408:Vendor_HAL/ST/STM32F4xx_HAL_Driver/Src/stm32f4xx_hal_flash.c **** }
 409:Vendor_HAL/ST/STM32F4xx_HAL_Driver/Src/stm32f4xx_hal_flash.c **** 
 410:Vendor_HAL/ST/STM32F4xx_HAL_Driver/Src/stm32f4xx_hal_flash.c **** /**
 411:Vendor_HAL/ST/STM32F4xx_HAL_Driver/Src/stm32f4xx_hal_flash.c ****   * @}
 412:Vendor_HAL/ST/STM32F4xx_HAL_Driver/Src/stm32f4xx_hal_flash.c ****   */
 413:Vendor_HAL/ST/STM32F4xx_HAL_Driver/Src/stm32f4xx_hal_flash.c **** 
 414:Vendor_HAL/ST/STM32F4xx_HAL_Driver/Src/stm32f4xx_hal_flash.c **** /** @defgroup FLASH_Exported_Functions_Group2 Peripheral Control functions 
 415:Vendor_HAL/ST/STM32F4xx_HAL_Driver/Src/stm32f4xx_hal_flash.c ****  *  @brief   management functions 
 416:Vendor_HAL/ST/STM32F4xx_HAL_Driver/Src/stm32f4xx_hal_flash.c ****  *
 417:Vendor_HAL/ST/STM32F4xx_HAL_Driver/Src/stm32f4xx_hal_flash.c **** @verbatim   
 418:Vendor_HAL/ST/STM32F4xx_HAL_Driver/Src/stm32f4xx_hal_flash.c ****  ===============================================================================
 419:Vendor_HAL/ST/STM32F4xx_HAL_Driver/Src/stm32f4xx_hal_flash.c ****                       ##### Peripheral Control functions #####
 420:Vendor_HAL/ST/STM32F4xx_HAL_Driver/Src/stm32f4xx_hal_flash.c ****  ===============================================================================  
 421:Vendor_HAL/ST/STM32F4xx_HAL_Driver/Src/stm32f4xx_hal_flash.c ****     [..]
 422:Vendor_HAL/ST/STM32F4xx_HAL_Driver/Src/stm32f4xx_hal_flash.c ****     This subsection provides a set of functions allowing to control the FLASH 
 423:Vendor_HAL/ST/STM32F4xx_HAL_Driver/Src/stm32f4xx_hal_flash.c ****     memory operations.
 424:Vendor_HAL/ST/STM32F4xx_HAL_Driver/Src/stm32f4xx_hal_flash.c **** 
 425:Vendor_HAL/ST/STM32F4xx_HAL_Driver/Src/stm32f4xx_hal_flash.c **** @endverbatim
 426:Vendor_HAL/ST/STM32F4xx_HAL_Driver/Src/stm32f4xx_hal_flash.c ****   * @{
 427:Vendor_HAL/ST/STM32F4xx_HAL_Driver/Src/stm32f4xx_hal_flash.c ****   */
 428:Vendor_HAL/ST/STM32F4xx_HAL_Driver/Src/stm32f4xx_hal_flash.c **** 
 429:Vendor_HAL/ST/STM32F4xx_HAL_Driver/Src/stm32f4xx_hal_flash.c **** /**
 430:Vendor_HAL/ST/STM32F4xx_HAL_Driver/Src/stm32f4xx_hal_flash.c ****   * @brief  Unlock the FLASH control register access
ARM GAS  C:\Users\katre\AppData\Local\Temp\ccyg67t2.s 			page 9


 431:Vendor_HAL/ST/STM32F4xx_HAL_Driver/Src/stm32f4xx_hal_flash.c ****   * @retval HAL Status
 432:Vendor_HAL/ST/STM32F4xx_HAL_Driver/Src/stm32f4xx_hal_flash.c ****   */
 433:Vendor_HAL/ST/STM32F4xx_HAL_Driver/Src/stm32f4xx_hal_flash.c **** HAL_StatusTypeDef HAL_FLASH_Unlock(void)
 434:Vendor_HAL/ST/STM32F4xx_HAL_Driver/Src/stm32f4xx_hal_flash.c **** {
 435:Vendor_HAL/ST/STM32F4xx_HAL_Driver/Src/stm32f4xx_hal_flash.c ****   HAL_StatusTypeDef status = HAL_OK;
 436:Vendor_HAL/ST/STM32F4xx_HAL_Driver/Src/stm32f4xx_hal_flash.c **** 
 437:Vendor_HAL/ST/STM32F4xx_HAL_Driver/Src/stm32f4xx_hal_flash.c ****   if(READ_BIT(FLASH->CR, FLASH_CR_LOCK) != RESET)
 438:Vendor_HAL/ST/STM32F4xx_HAL_Driver/Src/stm32f4xx_hal_flash.c ****   {
 439:Vendor_HAL/ST/STM32F4xx_HAL_Driver/Src/stm32f4xx_hal_flash.c ****     /* Authorize the FLASH Registers access */
 440:Vendor_HAL/ST/STM32F4xx_HAL_Driver/Src/stm32f4xx_hal_flash.c ****     WRITE_REG(FLASH->KEYR, FLASH_KEY1);
 441:Vendor_HAL/ST/STM32F4xx_HAL_Driver/Src/stm32f4xx_hal_flash.c ****     WRITE_REG(FLASH->KEYR, FLASH_KEY2);
 442:Vendor_HAL/ST/STM32F4xx_HAL_Driver/Src/stm32f4xx_hal_flash.c **** 
 443:Vendor_HAL/ST/STM32F4xx_HAL_Driver/Src/stm32f4xx_hal_flash.c ****     /* Verify Flash is unlocked */
 444:Vendor_HAL/ST/STM32F4xx_HAL_Driver/Src/stm32f4xx_hal_flash.c ****     if(READ_BIT(FLASH->CR, FLASH_CR_LOCK) != RESET)
 445:Vendor_HAL/ST/STM32F4xx_HAL_Driver/Src/stm32f4xx_hal_flash.c ****     {
 446:Vendor_HAL/ST/STM32F4xx_HAL_Driver/Src/stm32f4xx_hal_flash.c ****       status = HAL_ERROR;
 447:Vendor_HAL/ST/STM32F4xx_HAL_Driver/Src/stm32f4xx_hal_flash.c ****     }
 448:Vendor_HAL/ST/STM32F4xx_HAL_Driver/Src/stm32f4xx_hal_flash.c ****   }
 449:Vendor_HAL/ST/STM32F4xx_HAL_Driver/Src/stm32f4xx_hal_flash.c **** 
 450:Vendor_HAL/ST/STM32F4xx_HAL_Driver/Src/stm32f4xx_hal_flash.c ****   return status;
 451:Vendor_HAL/ST/STM32F4xx_HAL_Driver/Src/stm32f4xx_hal_flash.c **** }
 452:Vendor_HAL/ST/STM32F4xx_HAL_Driver/Src/stm32f4xx_hal_flash.c **** 
 453:Vendor_HAL/ST/STM32F4xx_HAL_Driver/Src/stm32f4xx_hal_flash.c **** /**
 454:Vendor_HAL/ST/STM32F4xx_HAL_Driver/Src/stm32f4xx_hal_flash.c ****   * @brief  Locks the FLASH control register access
 455:Vendor_HAL/ST/STM32F4xx_HAL_Driver/Src/stm32f4xx_hal_flash.c ****   * @retval HAL Status
 456:Vendor_HAL/ST/STM32F4xx_HAL_Driver/Src/stm32f4xx_hal_flash.c ****   */
 457:Vendor_HAL/ST/STM32F4xx_HAL_Driver/Src/stm32f4xx_hal_flash.c **** HAL_StatusTypeDef HAL_FLASH_Lock(void)
 458:Vendor_HAL/ST/STM32F4xx_HAL_Driver/Src/stm32f4xx_hal_flash.c **** {
 459:Vendor_HAL/ST/STM32F4xx_HAL_Driver/Src/stm32f4xx_hal_flash.c ****   /* Set the LOCK Bit to lock the FLASH Registers access */
 460:Vendor_HAL/ST/STM32F4xx_HAL_Driver/Src/stm32f4xx_hal_flash.c ****   FLASH->CR |= FLASH_CR_LOCK;
 461:Vendor_HAL/ST/STM32F4xx_HAL_Driver/Src/stm32f4xx_hal_flash.c ****   
 462:Vendor_HAL/ST/STM32F4xx_HAL_Driver/Src/stm32f4xx_hal_flash.c ****   return HAL_OK;  
 463:Vendor_HAL/ST/STM32F4xx_HAL_Driver/Src/stm32f4xx_hal_flash.c **** }
 464:Vendor_HAL/ST/STM32F4xx_HAL_Driver/Src/stm32f4xx_hal_flash.c **** 
 465:Vendor_HAL/ST/STM32F4xx_HAL_Driver/Src/stm32f4xx_hal_flash.c **** /**
 466:Vendor_HAL/ST/STM32F4xx_HAL_Driver/Src/stm32f4xx_hal_flash.c ****   * @brief  Unlock the FLASH Option Control Registers access.
 467:Vendor_HAL/ST/STM32F4xx_HAL_Driver/Src/stm32f4xx_hal_flash.c ****   * @retval HAL Status
 468:Vendor_HAL/ST/STM32F4xx_HAL_Driver/Src/stm32f4xx_hal_flash.c ****   */
 469:Vendor_HAL/ST/STM32F4xx_HAL_Driver/Src/stm32f4xx_hal_flash.c **** HAL_StatusTypeDef HAL_FLASH_OB_Unlock(void)
 470:Vendor_HAL/ST/STM32F4xx_HAL_Driver/Src/stm32f4xx_hal_flash.c **** {
 471:Vendor_HAL/ST/STM32F4xx_HAL_Driver/Src/stm32f4xx_hal_flash.c ****   if((FLASH->OPTCR & FLASH_OPTCR_OPTLOCK) != RESET)
 472:Vendor_HAL/ST/STM32F4xx_HAL_Driver/Src/stm32f4xx_hal_flash.c ****   {
 473:Vendor_HAL/ST/STM32F4xx_HAL_Driver/Src/stm32f4xx_hal_flash.c ****     /* Authorizes the Option Byte register programming */
 474:Vendor_HAL/ST/STM32F4xx_HAL_Driver/Src/stm32f4xx_hal_flash.c ****     FLASH->OPTKEYR = FLASH_OPT_KEY1;
 475:Vendor_HAL/ST/STM32F4xx_HAL_Driver/Src/stm32f4xx_hal_flash.c ****     FLASH->OPTKEYR = FLASH_OPT_KEY2;
 476:Vendor_HAL/ST/STM32F4xx_HAL_Driver/Src/stm32f4xx_hal_flash.c ****   }
 477:Vendor_HAL/ST/STM32F4xx_HAL_Driver/Src/stm32f4xx_hal_flash.c ****   else
 478:Vendor_HAL/ST/STM32F4xx_HAL_Driver/Src/stm32f4xx_hal_flash.c ****   {
 479:Vendor_HAL/ST/STM32F4xx_HAL_Driver/Src/stm32f4xx_hal_flash.c ****     return HAL_ERROR;
 480:Vendor_HAL/ST/STM32F4xx_HAL_Driver/Src/stm32f4xx_hal_flash.c ****   }  
 481:Vendor_HAL/ST/STM32F4xx_HAL_Driver/Src/stm32f4xx_hal_flash.c ****   
 482:Vendor_HAL/ST/STM32F4xx_HAL_Driver/Src/stm32f4xx_hal_flash.c ****   return HAL_OK;  
 483:Vendor_HAL/ST/STM32F4xx_HAL_Driver/Src/stm32f4xx_hal_flash.c **** }
 484:Vendor_HAL/ST/STM32F4xx_HAL_Driver/Src/stm32f4xx_hal_flash.c **** 
 485:Vendor_HAL/ST/STM32F4xx_HAL_Driver/Src/stm32f4xx_hal_flash.c **** /**
 486:Vendor_HAL/ST/STM32F4xx_HAL_Driver/Src/stm32f4xx_hal_flash.c ****   * @brief  Lock the FLASH Option Control Registers access.
 487:Vendor_HAL/ST/STM32F4xx_HAL_Driver/Src/stm32f4xx_hal_flash.c ****   * @retval HAL Status 
ARM GAS  C:\Users\katre\AppData\Local\Temp\ccyg67t2.s 			page 10


 488:Vendor_HAL/ST/STM32F4xx_HAL_Driver/Src/stm32f4xx_hal_flash.c ****   */
 489:Vendor_HAL/ST/STM32F4xx_HAL_Driver/Src/stm32f4xx_hal_flash.c **** HAL_StatusTypeDef HAL_FLASH_OB_Lock(void)
 490:Vendor_HAL/ST/STM32F4xx_HAL_Driver/Src/stm32f4xx_hal_flash.c **** {
 491:Vendor_HAL/ST/STM32F4xx_HAL_Driver/Src/stm32f4xx_hal_flash.c ****   /* Set the OPTLOCK Bit to lock the FLASH Option Byte Registers access */
 492:Vendor_HAL/ST/STM32F4xx_HAL_Driver/Src/stm32f4xx_hal_flash.c ****   FLASH->OPTCR |= FLASH_OPTCR_OPTLOCK;
 493:Vendor_HAL/ST/STM32F4xx_HAL_Driver/Src/stm32f4xx_hal_flash.c ****   
 494:Vendor_HAL/ST/STM32F4xx_HAL_Driver/Src/stm32f4xx_hal_flash.c ****   return HAL_OK;  
 495:Vendor_HAL/ST/STM32F4xx_HAL_Driver/Src/stm32f4xx_hal_flash.c **** }
 496:Vendor_HAL/ST/STM32F4xx_HAL_Driver/Src/stm32f4xx_hal_flash.c **** 
 497:Vendor_HAL/ST/STM32F4xx_HAL_Driver/Src/stm32f4xx_hal_flash.c **** /**
 498:Vendor_HAL/ST/STM32F4xx_HAL_Driver/Src/stm32f4xx_hal_flash.c ****   * @brief  Launch the option byte loading.
 499:Vendor_HAL/ST/STM32F4xx_HAL_Driver/Src/stm32f4xx_hal_flash.c ****   * @retval HAL Status
 500:Vendor_HAL/ST/STM32F4xx_HAL_Driver/Src/stm32f4xx_hal_flash.c ****   */
 501:Vendor_HAL/ST/STM32F4xx_HAL_Driver/Src/stm32f4xx_hal_flash.c **** HAL_StatusTypeDef HAL_FLASH_OB_Launch(void)
 502:Vendor_HAL/ST/STM32F4xx_HAL_Driver/Src/stm32f4xx_hal_flash.c **** {
 503:Vendor_HAL/ST/STM32F4xx_HAL_Driver/Src/stm32f4xx_hal_flash.c ****   /* Set the OPTSTRT bit in OPTCR register */
 504:Vendor_HAL/ST/STM32F4xx_HAL_Driver/Src/stm32f4xx_hal_flash.c ****   *(__IO uint8_t *)OPTCR_BYTE0_ADDRESS |= FLASH_OPTCR_OPTSTRT;
 505:Vendor_HAL/ST/STM32F4xx_HAL_Driver/Src/stm32f4xx_hal_flash.c **** 
 506:Vendor_HAL/ST/STM32F4xx_HAL_Driver/Src/stm32f4xx_hal_flash.c ****   /* Wait for last operation to be completed */
 507:Vendor_HAL/ST/STM32F4xx_HAL_Driver/Src/stm32f4xx_hal_flash.c ****   return(FLASH_WaitForLastOperation((uint32_t)FLASH_TIMEOUT_VALUE)); 
 508:Vendor_HAL/ST/STM32F4xx_HAL_Driver/Src/stm32f4xx_hal_flash.c **** }
 509:Vendor_HAL/ST/STM32F4xx_HAL_Driver/Src/stm32f4xx_hal_flash.c **** 
 510:Vendor_HAL/ST/STM32F4xx_HAL_Driver/Src/stm32f4xx_hal_flash.c **** /**
 511:Vendor_HAL/ST/STM32F4xx_HAL_Driver/Src/stm32f4xx_hal_flash.c ****   * @}
 512:Vendor_HAL/ST/STM32F4xx_HAL_Driver/Src/stm32f4xx_hal_flash.c ****   */
 513:Vendor_HAL/ST/STM32F4xx_HAL_Driver/Src/stm32f4xx_hal_flash.c **** 
 514:Vendor_HAL/ST/STM32F4xx_HAL_Driver/Src/stm32f4xx_hal_flash.c **** /** @defgroup FLASH_Exported_Functions_Group3 Peripheral State and Errors functions 
 515:Vendor_HAL/ST/STM32F4xx_HAL_Driver/Src/stm32f4xx_hal_flash.c ****  *  @brief   Peripheral Errors functions 
 516:Vendor_HAL/ST/STM32F4xx_HAL_Driver/Src/stm32f4xx_hal_flash.c ****  *
 517:Vendor_HAL/ST/STM32F4xx_HAL_Driver/Src/stm32f4xx_hal_flash.c **** @verbatim   
 518:Vendor_HAL/ST/STM32F4xx_HAL_Driver/Src/stm32f4xx_hal_flash.c ****  ===============================================================================
 519:Vendor_HAL/ST/STM32F4xx_HAL_Driver/Src/stm32f4xx_hal_flash.c ****                 ##### Peripheral Errors functions #####
 520:Vendor_HAL/ST/STM32F4xx_HAL_Driver/Src/stm32f4xx_hal_flash.c ****  ===============================================================================  
 521:Vendor_HAL/ST/STM32F4xx_HAL_Driver/Src/stm32f4xx_hal_flash.c ****     [..]
 522:Vendor_HAL/ST/STM32F4xx_HAL_Driver/Src/stm32f4xx_hal_flash.c ****     This subsection permits to get in run-time Errors of the FLASH peripheral.
 523:Vendor_HAL/ST/STM32F4xx_HAL_Driver/Src/stm32f4xx_hal_flash.c **** 
 524:Vendor_HAL/ST/STM32F4xx_HAL_Driver/Src/stm32f4xx_hal_flash.c **** @endverbatim
 525:Vendor_HAL/ST/STM32F4xx_HAL_Driver/Src/stm32f4xx_hal_flash.c ****   * @{
 526:Vendor_HAL/ST/STM32F4xx_HAL_Driver/Src/stm32f4xx_hal_flash.c ****   */
 527:Vendor_HAL/ST/STM32F4xx_HAL_Driver/Src/stm32f4xx_hal_flash.c **** 
 528:Vendor_HAL/ST/STM32F4xx_HAL_Driver/Src/stm32f4xx_hal_flash.c **** /**
 529:Vendor_HAL/ST/STM32F4xx_HAL_Driver/Src/stm32f4xx_hal_flash.c ****   * @brief  Get the specific FLASH error flag.
 530:Vendor_HAL/ST/STM32F4xx_HAL_Driver/Src/stm32f4xx_hal_flash.c ****   * @retval FLASH_ErrorCode: The returned value can be a combination of:
 531:Vendor_HAL/ST/STM32F4xx_HAL_Driver/Src/stm32f4xx_hal_flash.c ****   *            @arg HAL_FLASH_ERROR_RD: FLASH Read Protection error flag (PCROP)
 532:Vendor_HAL/ST/STM32F4xx_HAL_Driver/Src/stm32f4xx_hal_flash.c ****   *            @arg HAL_FLASH_ERROR_PGS: FLASH Programming Sequence error flag 
 533:Vendor_HAL/ST/STM32F4xx_HAL_Driver/Src/stm32f4xx_hal_flash.c ****   *            @arg HAL_FLASH_ERROR_PGP: FLASH Programming Parallelism error flag  
 534:Vendor_HAL/ST/STM32F4xx_HAL_Driver/Src/stm32f4xx_hal_flash.c ****   *            @arg HAL_FLASH_ERROR_PGA: FLASH Programming Alignment error flag
 535:Vendor_HAL/ST/STM32F4xx_HAL_Driver/Src/stm32f4xx_hal_flash.c ****   *            @arg HAL_FLASH_ERROR_WRP: FLASH Write protected error flag
 536:Vendor_HAL/ST/STM32F4xx_HAL_Driver/Src/stm32f4xx_hal_flash.c ****   *            @arg HAL_FLASH_ERROR_OPERATION: FLASH operation Error flag 
 537:Vendor_HAL/ST/STM32F4xx_HAL_Driver/Src/stm32f4xx_hal_flash.c ****   */
 538:Vendor_HAL/ST/STM32F4xx_HAL_Driver/Src/stm32f4xx_hal_flash.c **** uint32_t HAL_FLASH_GetError(void)
 539:Vendor_HAL/ST/STM32F4xx_HAL_Driver/Src/stm32f4xx_hal_flash.c **** { 
 540:Vendor_HAL/ST/STM32F4xx_HAL_Driver/Src/stm32f4xx_hal_flash.c ****    return pFlash.ErrorCode;
 541:Vendor_HAL/ST/STM32F4xx_HAL_Driver/Src/stm32f4xx_hal_flash.c **** }  
 542:Vendor_HAL/ST/STM32F4xx_HAL_Driver/Src/stm32f4xx_hal_flash.c ****   
 543:Vendor_HAL/ST/STM32F4xx_HAL_Driver/Src/stm32f4xx_hal_flash.c **** /**
 544:Vendor_HAL/ST/STM32F4xx_HAL_Driver/Src/stm32f4xx_hal_flash.c ****   * @}
ARM GAS  C:\Users\katre\AppData\Local\Temp\ccyg67t2.s 			page 11


 545:Vendor_HAL/ST/STM32F4xx_HAL_Driver/Src/stm32f4xx_hal_flash.c ****   */    
 546:Vendor_HAL/ST/STM32F4xx_HAL_Driver/Src/stm32f4xx_hal_flash.c **** 
 547:Vendor_HAL/ST/STM32F4xx_HAL_Driver/Src/stm32f4xx_hal_flash.c **** /**
 548:Vendor_HAL/ST/STM32F4xx_HAL_Driver/Src/stm32f4xx_hal_flash.c ****   * @brief  Wait for a FLASH operation to complete.
 549:Vendor_HAL/ST/STM32F4xx_HAL_Driver/Src/stm32f4xx_hal_flash.c ****   * @param  Timeout maximum flash operationtimeout
 550:Vendor_HAL/ST/STM32F4xx_HAL_Driver/Src/stm32f4xx_hal_flash.c ****   * @retval HAL Status
 551:Vendor_HAL/ST/STM32F4xx_HAL_Driver/Src/stm32f4xx_hal_flash.c ****   */
 552:Vendor_HAL/ST/STM32F4xx_HAL_Driver/Src/stm32f4xx_hal_flash.c **** HAL_StatusTypeDef FLASH_WaitForLastOperation(uint32_t Timeout)
 553:Vendor_HAL/ST/STM32F4xx_HAL_Driver/Src/stm32f4xx_hal_flash.c **** { 
 554:Vendor_HAL/ST/STM32F4xx_HAL_Driver/Src/stm32f4xx_hal_flash.c ****   uint32_t tickstart = 0U;
 555:Vendor_HAL/ST/STM32F4xx_HAL_Driver/Src/stm32f4xx_hal_flash.c ****   
 556:Vendor_HAL/ST/STM32F4xx_HAL_Driver/Src/stm32f4xx_hal_flash.c ****   /* Clear Error Code */
 557:Vendor_HAL/ST/STM32F4xx_HAL_Driver/Src/stm32f4xx_hal_flash.c ****   pFlash.ErrorCode = HAL_FLASH_ERROR_NONE;
 558:Vendor_HAL/ST/STM32F4xx_HAL_Driver/Src/stm32f4xx_hal_flash.c ****   
 559:Vendor_HAL/ST/STM32F4xx_HAL_Driver/Src/stm32f4xx_hal_flash.c ****   /* Wait for the FLASH operation to complete by polling on BUSY flag to be reset.
 560:Vendor_HAL/ST/STM32F4xx_HAL_Driver/Src/stm32f4xx_hal_flash.c ****      Even if the FLASH operation fails, the BUSY flag will be reset and an error
 561:Vendor_HAL/ST/STM32F4xx_HAL_Driver/Src/stm32f4xx_hal_flash.c ****      flag will be set */
 562:Vendor_HAL/ST/STM32F4xx_HAL_Driver/Src/stm32f4xx_hal_flash.c ****   /* Get tick */
 563:Vendor_HAL/ST/STM32F4xx_HAL_Driver/Src/stm32f4xx_hal_flash.c ****   tickstart = HAL_GetTick();
 564:Vendor_HAL/ST/STM32F4xx_HAL_Driver/Src/stm32f4xx_hal_flash.c **** 
 565:Vendor_HAL/ST/STM32F4xx_HAL_Driver/Src/stm32f4xx_hal_flash.c ****   while(__HAL_FLASH_GET_FLAG(FLASH_FLAG_BSY) != RESET) 
 566:Vendor_HAL/ST/STM32F4xx_HAL_Driver/Src/stm32f4xx_hal_flash.c ****   { 
 567:Vendor_HAL/ST/STM32F4xx_HAL_Driver/Src/stm32f4xx_hal_flash.c ****     if(Timeout != HAL_MAX_DELAY)
 568:Vendor_HAL/ST/STM32F4xx_HAL_Driver/Src/stm32f4xx_hal_flash.c ****     {
 569:Vendor_HAL/ST/STM32F4xx_HAL_Driver/Src/stm32f4xx_hal_flash.c ****       if((Timeout == 0U)||((HAL_GetTick() - tickstart ) > Timeout))
 570:Vendor_HAL/ST/STM32F4xx_HAL_Driver/Src/stm32f4xx_hal_flash.c ****       {
 571:Vendor_HAL/ST/STM32F4xx_HAL_Driver/Src/stm32f4xx_hal_flash.c ****         return HAL_TIMEOUT;
 572:Vendor_HAL/ST/STM32F4xx_HAL_Driver/Src/stm32f4xx_hal_flash.c ****       }
 573:Vendor_HAL/ST/STM32F4xx_HAL_Driver/Src/stm32f4xx_hal_flash.c ****     } 
 574:Vendor_HAL/ST/STM32F4xx_HAL_Driver/Src/stm32f4xx_hal_flash.c ****   }
 575:Vendor_HAL/ST/STM32F4xx_HAL_Driver/Src/stm32f4xx_hal_flash.c **** 
 576:Vendor_HAL/ST/STM32F4xx_HAL_Driver/Src/stm32f4xx_hal_flash.c ****   /* Check FLASH End of Operation flag  */
 577:Vendor_HAL/ST/STM32F4xx_HAL_Driver/Src/stm32f4xx_hal_flash.c ****   if (__HAL_FLASH_GET_FLAG(FLASH_FLAG_EOP) != RESET)
 578:Vendor_HAL/ST/STM32F4xx_HAL_Driver/Src/stm32f4xx_hal_flash.c ****   {
 579:Vendor_HAL/ST/STM32F4xx_HAL_Driver/Src/stm32f4xx_hal_flash.c ****     /* Clear FLASH End of Operation pending bit */
 580:Vendor_HAL/ST/STM32F4xx_HAL_Driver/Src/stm32f4xx_hal_flash.c ****     __HAL_FLASH_CLEAR_FLAG(FLASH_FLAG_EOP);
 581:Vendor_HAL/ST/STM32F4xx_HAL_Driver/Src/stm32f4xx_hal_flash.c ****   }
 582:Vendor_HAL/ST/STM32F4xx_HAL_Driver/Src/stm32f4xx_hal_flash.c **** #if defined(FLASH_SR_RDERR)  
 583:Vendor_HAL/ST/STM32F4xx_HAL_Driver/Src/stm32f4xx_hal_flash.c ****   if(__HAL_FLASH_GET_FLAG((FLASH_FLAG_OPERR | FLASH_FLAG_WRPERR | FLASH_FLAG_PGAERR | \
 584:Vendor_HAL/ST/STM32F4xx_HAL_Driver/Src/stm32f4xx_hal_flash.c ****                            FLASH_FLAG_PGPERR | FLASH_FLAG_PGSERR | FLASH_FLAG_RDERR)) != RESET)
 585:Vendor_HAL/ST/STM32F4xx_HAL_Driver/Src/stm32f4xx_hal_flash.c **** #else
 586:Vendor_HAL/ST/STM32F4xx_HAL_Driver/Src/stm32f4xx_hal_flash.c ****   if(__HAL_FLASH_GET_FLAG((FLASH_FLAG_OPERR | FLASH_FLAG_WRPERR | FLASH_FLAG_PGAERR | \
 587:Vendor_HAL/ST/STM32F4xx_HAL_Driver/Src/stm32f4xx_hal_flash.c ****                            FLASH_FLAG_PGPERR | FLASH_FLAG_PGSERR)) != RESET)
 588:Vendor_HAL/ST/STM32F4xx_HAL_Driver/Src/stm32f4xx_hal_flash.c **** #endif /* FLASH_SR_RDERR */
 589:Vendor_HAL/ST/STM32F4xx_HAL_Driver/Src/stm32f4xx_hal_flash.c ****   {
 590:Vendor_HAL/ST/STM32F4xx_HAL_Driver/Src/stm32f4xx_hal_flash.c ****     /*Save the error code*/
 591:Vendor_HAL/ST/STM32F4xx_HAL_Driver/Src/stm32f4xx_hal_flash.c ****     FLASH_SetErrorCode();
 592:Vendor_HAL/ST/STM32F4xx_HAL_Driver/Src/stm32f4xx_hal_flash.c ****     return HAL_ERROR;
 593:Vendor_HAL/ST/STM32F4xx_HAL_Driver/Src/stm32f4xx_hal_flash.c ****   }
 594:Vendor_HAL/ST/STM32F4xx_HAL_Driver/Src/stm32f4xx_hal_flash.c **** 
 595:Vendor_HAL/ST/STM32F4xx_HAL_Driver/Src/stm32f4xx_hal_flash.c ****   /* If there is no error flag set */
 596:Vendor_HAL/ST/STM32F4xx_HAL_Driver/Src/stm32f4xx_hal_flash.c ****   return HAL_OK;
 597:Vendor_HAL/ST/STM32F4xx_HAL_Driver/Src/stm32f4xx_hal_flash.c ****   
 598:Vendor_HAL/ST/STM32F4xx_HAL_Driver/Src/stm32f4xx_hal_flash.c **** }  
 599:Vendor_HAL/ST/STM32F4xx_HAL_Driver/Src/stm32f4xx_hal_flash.c **** 
 600:Vendor_HAL/ST/STM32F4xx_HAL_Driver/Src/stm32f4xx_hal_flash.c **** /**
 601:Vendor_HAL/ST/STM32F4xx_HAL_Driver/Src/stm32f4xx_hal_flash.c ****   * @brief  Program a double word (64-bit) at a specified address.
ARM GAS  C:\Users\katre\AppData\Local\Temp\ccyg67t2.s 			page 12


 602:Vendor_HAL/ST/STM32F4xx_HAL_Driver/Src/stm32f4xx_hal_flash.c ****   * @note   This function must be used when the device voltage range is from
 603:Vendor_HAL/ST/STM32F4xx_HAL_Driver/Src/stm32f4xx_hal_flash.c ****   *         2.7V to 3.6V and Vpp in the range 7V to 9V.
 604:Vendor_HAL/ST/STM32F4xx_HAL_Driver/Src/stm32f4xx_hal_flash.c ****   *
 605:Vendor_HAL/ST/STM32F4xx_HAL_Driver/Src/stm32f4xx_hal_flash.c ****   * @note   If an erase and a program operations are requested simultaneously,    
 606:Vendor_HAL/ST/STM32F4xx_HAL_Driver/Src/stm32f4xx_hal_flash.c ****   *         the erase operation is performed before the program one.
 607:Vendor_HAL/ST/STM32F4xx_HAL_Driver/Src/stm32f4xx_hal_flash.c ****   *  
 608:Vendor_HAL/ST/STM32F4xx_HAL_Driver/Src/stm32f4xx_hal_flash.c ****   * @param  Address specifies the address to be programmed.
 609:Vendor_HAL/ST/STM32F4xx_HAL_Driver/Src/stm32f4xx_hal_flash.c ****   * @param  Data specifies the data to be programmed.
 610:Vendor_HAL/ST/STM32F4xx_HAL_Driver/Src/stm32f4xx_hal_flash.c ****   * @retval None
 611:Vendor_HAL/ST/STM32F4xx_HAL_Driver/Src/stm32f4xx_hal_flash.c ****   */
 612:Vendor_HAL/ST/STM32F4xx_HAL_Driver/Src/stm32f4xx_hal_flash.c **** static void FLASH_Program_DoubleWord(uint32_t Address, uint64_t Data)
 613:Vendor_HAL/ST/STM32F4xx_HAL_Driver/Src/stm32f4xx_hal_flash.c **** {
 614:Vendor_HAL/ST/STM32F4xx_HAL_Driver/Src/stm32f4xx_hal_flash.c ****   /* Check the parameters */
 615:Vendor_HAL/ST/STM32F4xx_HAL_Driver/Src/stm32f4xx_hal_flash.c ****   assert_param(IS_FLASH_ADDRESS(Address));
 616:Vendor_HAL/ST/STM32F4xx_HAL_Driver/Src/stm32f4xx_hal_flash.c ****   
 617:Vendor_HAL/ST/STM32F4xx_HAL_Driver/Src/stm32f4xx_hal_flash.c ****   /* If the previous operation is completed, proceed to program the new data */
 618:Vendor_HAL/ST/STM32F4xx_HAL_Driver/Src/stm32f4xx_hal_flash.c ****   CLEAR_BIT(FLASH->CR, FLASH_CR_PSIZE);
 619:Vendor_HAL/ST/STM32F4xx_HAL_Driver/Src/stm32f4xx_hal_flash.c ****   FLASH->CR |= FLASH_PSIZE_DOUBLE_WORD;
 620:Vendor_HAL/ST/STM32F4xx_HAL_Driver/Src/stm32f4xx_hal_flash.c ****   FLASH->CR |= FLASH_CR_PG;
 621:Vendor_HAL/ST/STM32F4xx_HAL_Driver/Src/stm32f4xx_hal_flash.c **** 
 622:Vendor_HAL/ST/STM32F4xx_HAL_Driver/Src/stm32f4xx_hal_flash.c ****   /* Program first word */
 623:Vendor_HAL/ST/STM32F4xx_HAL_Driver/Src/stm32f4xx_hal_flash.c ****   *(__IO uint32_t*)Address = (uint32_t)Data;
 624:Vendor_HAL/ST/STM32F4xx_HAL_Driver/Src/stm32f4xx_hal_flash.c **** 
 625:Vendor_HAL/ST/STM32F4xx_HAL_Driver/Src/stm32f4xx_hal_flash.c ****   /* Barrier to ensure programming is performed in 2 steps, in right order
 626:Vendor_HAL/ST/STM32F4xx_HAL_Driver/Src/stm32f4xx_hal_flash.c ****     (independently of compiler optimization behavior) */
 627:Vendor_HAL/ST/STM32F4xx_HAL_Driver/Src/stm32f4xx_hal_flash.c ****   __ISB();
 628:Vendor_HAL/ST/STM32F4xx_HAL_Driver/Src/stm32f4xx_hal_flash.c **** 
 629:Vendor_HAL/ST/STM32F4xx_HAL_Driver/Src/stm32f4xx_hal_flash.c ****   /* Program second word */
 630:Vendor_HAL/ST/STM32F4xx_HAL_Driver/Src/stm32f4xx_hal_flash.c ****   *(__IO uint32_t*)(Address+4) = (uint32_t)(Data >> 32);
 631:Vendor_HAL/ST/STM32F4xx_HAL_Driver/Src/stm32f4xx_hal_flash.c **** }
 632:Vendor_HAL/ST/STM32F4xx_HAL_Driver/Src/stm32f4xx_hal_flash.c **** 
 633:Vendor_HAL/ST/STM32F4xx_HAL_Driver/Src/stm32f4xx_hal_flash.c **** 
 634:Vendor_HAL/ST/STM32F4xx_HAL_Driver/Src/stm32f4xx_hal_flash.c **** /**
 635:Vendor_HAL/ST/STM32F4xx_HAL_Driver/Src/stm32f4xx_hal_flash.c ****   * @brief  Program word (32-bit) at a specified address.
 636:Vendor_HAL/ST/STM32F4xx_HAL_Driver/Src/stm32f4xx_hal_flash.c ****   * @note   This function must be used when the device voltage range is from
 637:Vendor_HAL/ST/STM32F4xx_HAL_Driver/Src/stm32f4xx_hal_flash.c ****   *         2.7V to 3.6V.
 638:Vendor_HAL/ST/STM32F4xx_HAL_Driver/Src/stm32f4xx_hal_flash.c ****   *
 639:Vendor_HAL/ST/STM32F4xx_HAL_Driver/Src/stm32f4xx_hal_flash.c ****   * @note   If an erase and a program operations are requested simultaneously,    
 640:Vendor_HAL/ST/STM32F4xx_HAL_Driver/Src/stm32f4xx_hal_flash.c ****   *         the erase operation is performed before the program one.
 641:Vendor_HAL/ST/STM32F4xx_HAL_Driver/Src/stm32f4xx_hal_flash.c ****   *  
 642:Vendor_HAL/ST/STM32F4xx_HAL_Driver/Src/stm32f4xx_hal_flash.c ****   * @param  Address specifies the address to be programmed.
 643:Vendor_HAL/ST/STM32F4xx_HAL_Driver/Src/stm32f4xx_hal_flash.c ****   * @param  Data specifies the data to be programmed.
 644:Vendor_HAL/ST/STM32F4xx_HAL_Driver/Src/stm32f4xx_hal_flash.c ****   * @retval None
 645:Vendor_HAL/ST/STM32F4xx_HAL_Driver/Src/stm32f4xx_hal_flash.c ****   */
 646:Vendor_HAL/ST/STM32F4xx_HAL_Driver/Src/stm32f4xx_hal_flash.c **** static void FLASH_Program_Word(uint32_t Address, uint32_t Data)
 647:Vendor_HAL/ST/STM32F4xx_HAL_Driver/Src/stm32f4xx_hal_flash.c **** {
 648:Vendor_HAL/ST/STM32F4xx_HAL_Driver/Src/stm32f4xx_hal_flash.c ****   /* Check the parameters */
 649:Vendor_HAL/ST/STM32F4xx_HAL_Driver/Src/stm32f4xx_hal_flash.c ****   assert_param(IS_FLASH_ADDRESS(Address));
 650:Vendor_HAL/ST/STM32F4xx_HAL_Driver/Src/stm32f4xx_hal_flash.c ****   
 651:Vendor_HAL/ST/STM32F4xx_HAL_Driver/Src/stm32f4xx_hal_flash.c ****   /* If the previous operation is completed, proceed to program the new data */
 652:Vendor_HAL/ST/STM32F4xx_HAL_Driver/Src/stm32f4xx_hal_flash.c ****   CLEAR_BIT(FLASH->CR, FLASH_CR_PSIZE);
 653:Vendor_HAL/ST/STM32F4xx_HAL_Driver/Src/stm32f4xx_hal_flash.c ****   FLASH->CR |= FLASH_PSIZE_WORD;
 654:Vendor_HAL/ST/STM32F4xx_HAL_Driver/Src/stm32f4xx_hal_flash.c ****   FLASH->CR |= FLASH_CR_PG;
 655:Vendor_HAL/ST/STM32F4xx_HAL_Driver/Src/stm32f4xx_hal_flash.c **** 
 656:Vendor_HAL/ST/STM32F4xx_HAL_Driver/Src/stm32f4xx_hal_flash.c ****   *(__IO uint32_t*)Address = Data;
 657:Vendor_HAL/ST/STM32F4xx_HAL_Driver/Src/stm32f4xx_hal_flash.c **** }
 658:Vendor_HAL/ST/STM32F4xx_HAL_Driver/Src/stm32f4xx_hal_flash.c **** 
ARM GAS  C:\Users\katre\AppData\Local\Temp\ccyg67t2.s 			page 13


 659:Vendor_HAL/ST/STM32F4xx_HAL_Driver/Src/stm32f4xx_hal_flash.c **** /**
 660:Vendor_HAL/ST/STM32F4xx_HAL_Driver/Src/stm32f4xx_hal_flash.c ****   * @brief  Program a half-word (16-bit) at a specified address.
 661:Vendor_HAL/ST/STM32F4xx_HAL_Driver/Src/stm32f4xx_hal_flash.c ****   * @note   This function must be used when the device voltage range is from
 662:Vendor_HAL/ST/STM32F4xx_HAL_Driver/Src/stm32f4xx_hal_flash.c ****   *         2.1V to 3.6V.
 663:Vendor_HAL/ST/STM32F4xx_HAL_Driver/Src/stm32f4xx_hal_flash.c ****   *
 664:Vendor_HAL/ST/STM32F4xx_HAL_Driver/Src/stm32f4xx_hal_flash.c ****   * @note   If an erase and a program operations are requested simultaneously,    
 665:Vendor_HAL/ST/STM32F4xx_HAL_Driver/Src/stm32f4xx_hal_flash.c ****   *         the erase operation is performed before the program one.
 666:Vendor_HAL/ST/STM32F4xx_HAL_Driver/Src/stm32f4xx_hal_flash.c ****   *  
 667:Vendor_HAL/ST/STM32F4xx_HAL_Driver/Src/stm32f4xx_hal_flash.c ****   * @param  Address specifies the address to be programmed.
 668:Vendor_HAL/ST/STM32F4xx_HAL_Driver/Src/stm32f4xx_hal_flash.c ****   * @param  Data specifies the data to be programmed.
 669:Vendor_HAL/ST/STM32F4xx_HAL_Driver/Src/stm32f4xx_hal_flash.c ****   * @retval None
 670:Vendor_HAL/ST/STM32F4xx_HAL_Driver/Src/stm32f4xx_hal_flash.c ****   */
 671:Vendor_HAL/ST/STM32F4xx_HAL_Driver/Src/stm32f4xx_hal_flash.c **** static void FLASH_Program_HalfWord(uint32_t Address, uint16_t Data)
 672:Vendor_HAL/ST/STM32F4xx_HAL_Driver/Src/stm32f4xx_hal_flash.c **** {
 673:Vendor_HAL/ST/STM32F4xx_HAL_Driver/Src/stm32f4xx_hal_flash.c ****   /* Check the parameters */
 674:Vendor_HAL/ST/STM32F4xx_HAL_Driver/Src/stm32f4xx_hal_flash.c ****   assert_param(IS_FLASH_ADDRESS(Address));
 675:Vendor_HAL/ST/STM32F4xx_HAL_Driver/Src/stm32f4xx_hal_flash.c ****   
 676:Vendor_HAL/ST/STM32F4xx_HAL_Driver/Src/stm32f4xx_hal_flash.c ****   /* If the previous operation is completed, proceed to program the new data */
 677:Vendor_HAL/ST/STM32F4xx_HAL_Driver/Src/stm32f4xx_hal_flash.c ****   CLEAR_BIT(FLASH->CR, FLASH_CR_PSIZE);
 678:Vendor_HAL/ST/STM32F4xx_HAL_Driver/Src/stm32f4xx_hal_flash.c ****   FLASH->CR |= FLASH_PSIZE_HALF_WORD;
 679:Vendor_HAL/ST/STM32F4xx_HAL_Driver/Src/stm32f4xx_hal_flash.c ****   FLASH->CR |= FLASH_CR_PG;
 680:Vendor_HAL/ST/STM32F4xx_HAL_Driver/Src/stm32f4xx_hal_flash.c **** 
 681:Vendor_HAL/ST/STM32F4xx_HAL_Driver/Src/stm32f4xx_hal_flash.c ****   *(__IO uint16_t*)Address = Data;
 682:Vendor_HAL/ST/STM32F4xx_HAL_Driver/Src/stm32f4xx_hal_flash.c **** }
 683:Vendor_HAL/ST/STM32F4xx_HAL_Driver/Src/stm32f4xx_hal_flash.c **** 
 684:Vendor_HAL/ST/STM32F4xx_HAL_Driver/Src/stm32f4xx_hal_flash.c **** /**
 685:Vendor_HAL/ST/STM32F4xx_HAL_Driver/Src/stm32f4xx_hal_flash.c ****   * @brief  Program byte (8-bit) at a specified address.
 686:Vendor_HAL/ST/STM32F4xx_HAL_Driver/Src/stm32f4xx_hal_flash.c ****   * @note   This function must be used when the device voltage range is from
 687:Vendor_HAL/ST/STM32F4xx_HAL_Driver/Src/stm32f4xx_hal_flash.c ****   *         1.8V to 3.6V.
 688:Vendor_HAL/ST/STM32F4xx_HAL_Driver/Src/stm32f4xx_hal_flash.c ****   *
 689:Vendor_HAL/ST/STM32F4xx_HAL_Driver/Src/stm32f4xx_hal_flash.c ****   * @note   If an erase and a program operations are requested simultaneously,    
 690:Vendor_HAL/ST/STM32F4xx_HAL_Driver/Src/stm32f4xx_hal_flash.c ****   *         the erase operation is performed before the program one.
 691:Vendor_HAL/ST/STM32F4xx_HAL_Driver/Src/stm32f4xx_hal_flash.c ****   *  
 692:Vendor_HAL/ST/STM32F4xx_HAL_Driver/Src/stm32f4xx_hal_flash.c ****   * @param  Address specifies the address to be programmed.
 693:Vendor_HAL/ST/STM32F4xx_HAL_Driver/Src/stm32f4xx_hal_flash.c ****   * @param  Data specifies the data to be programmed.
 694:Vendor_HAL/ST/STM32F4xx_HAL_Driver/Src/stm32f4xx_hal_flash.c ****   * @retval None
 695:Vendor_HAL/ST/STM32F4xx_HAL_Driver/Src/stm32f4xx_hal_flash.c ****   */
 696:Vendor_HAL/ST/STM32F4xx_HAL_Driver/Src/stm32f4xx_hal_flash.c **** static void FLASH_Program_Byte(uint32_t Address, uint8_t Data)
 697:Vendor_HAL/ST/STM32F4xx_HAL_Driver/Src/stm32f4xx_hal_flash.c **** {
 698:Vendor_HAL/ST/STM32F4xx_HAL_Driver/Src/stm32f4xx_hal_flash.c ****   /* Check the parameters */
 699:Vendor_HAL/ST/STM32F4xx_HAL_Driver/Src/stm32f4xx_hal_flash.c ****   assert_param(IS_FLASH_ADDRESS(Address));
 700:Vendor_HAL/ST/STM32F4xx_HAL_Driver/Src/stm32f4xx_hal_flash.c ****   
 701:Vendor_HAL/ST/STM32F4xx_HAL_Driver/Src/stm32f4xx_hal_flash.c ****   /* If the previous operation is completed, proceed to program the new data */
 702:Vendor_HAL/ST/STM32F4xx_HAL_Driver/Src/stm32f4xx_hal_flash.c ****   CLEAR_BIT(FLASH->CR, FLASH_CR_PSIZE);
 703:Vendor_HAL/ST/STM32F4xx_HAL_Driver/Src/stm32f4xx_hal_flash.c ****   FLASH->CR |= FLASH_PSIZE_BYTE;
 704:Vendor_HAL/ST/STM32F4xx_HAL_Driver/Src/stm32f4xx_hal_flash.c ****   FLASH->CR |= FLASH_CR_PG;
 705:Vendor_HAL/ST/STM32F4xx_HAL_Driver/Src/stm32f4xx_hal_flash.c **** 
 706:Vendor_HAL/ST/STM32F4xx_HAL_Driver/Src/stm32f4xx_hal_flash.c ****   *(__IO uint8_t*)Address = Data;
 707:Vendor_HAL/ST/STM32F4xx_HAL_Driver/Src/stm32f4xx_hal_flash.c **** }
 708:Vendor_HAL/ST/STM32F4xx_HAL_Driver/Src/stm32f4xx_hal_flash.c **** 
 709:Vendor_HAL/ST/STM32F4xx_HAL_Driver/Src/stm32f4xx_hal_flash.c **** /**
 710:Vendor_HAL/ST/STM32F4xx_HAL_Driver/Src/stm32f4xx_hal_flash.c ****   * @brief  Set the specific FLASH error flag.
 711:Vendor_HAL/ST/STM32F4xx_HAL_Driver/Src/stm32f4xx_hal_flash.c ****   * @retval None
 712:Vendor_HAL/ST/STM32F4xx_HAL_Driver/Src/stm32f4xx_hal_flash.c ****   */
 713:Vendor_HAL/ST/STM32F4xx_HAL_Driver/Src/stm32f4xx_hal_flash.c **** static void FLASH_SetErrorCode(void)
 714:Vendor_HAL/ST/STM32F4xx_HAL_Driver/Src/stm32f4xx_hal_flash.c **** { 
  28              		.loc 1 714 1 view -0
ARM GAS  C:\Users\katre\AppData\Local\Temp\ccyg67t2.s 			page 14


  29              		.cfi_startproc
  30              		@ args = 0, pretend = 0, frame = 0
  31              		@ frame_needed = 0, uses_anonymous_args = 0
  32              		@ link register save eliminated.
 715:Vendor_HAL/ST/STM32F4xx_HAL_Driver/Src/stm32f4xx_hal_flash.c ****   if(__HAL_FLASH_GET_FLAG(FLASH_FLAG_WRPERR) != RESET)
  33              		.loc 1 715 3 view .LVU1
  34              		.loc 1 715 6 is_stmt 0 view .LVU2
  35 0000 274B     		ldr	r3, .L8
  36 0002 DB68     		ldr	r3, [r3, #12]
  37              		.loc 1 715 5 view .LVU3
  38 0004 13F0100F 		tst	r3, #16
  39 0008 07D0     		beq	.L2
 716:Vendor_HAL/ST/STM32F4xx_HAL_Driver/Src/stm32f4xx_hal_flash.c ****   {
 717:Vendor_HAL/ST/STM32F4xx_HAL_Driver/Src/stm32f4xx_hal_flash.c ****    pFlash.ErrorCode |= HAL_FLASH_ERROR_WRP;
  40              		.loc 1 717 4 is_stmt 1 view .LVU4
  41              		.loc 1 717 21 is_stmt 0 view .LVU5
  42 000a 264A     		ldr	r2, .L8+4
  43 000c D369     		ldr	r3, [r2, #28]
  44 000e 43F01003 		orr	r3, r3, #16
  45 0012 D361     		str	r3, [r2, #28]
 718:Vendor_HAL/ST/STM32F4xx_HAL_Driver/Src/stm32f4xx_hal_flash.c ****    
 719:Vendor_HAL/ST/STM32F4xx_HAL_Driver/Src/stm32f4xx_hal_flash.c ****    /* Clear FLASH write protection error pending bit */
 720:Vendor_HAL/ST/STM32F4xx_HAL_Driver/Src/stm32f4xx_hal_flash.c ****    __HAL_FLASH_CLEAR_FLAG(FLASH_FLAG_WRPERR);
  46              		.loc 1 720 4 is_stmt 1 view .LVU6
  47 0014 224B     		ldr	r3, .L8
  48 0016 1022     		movs	r2, #16
  49 0018 DA60     		str	r2, [r3, #12]
  50              	.L2:
 721:Vendor_HAL/ST/STM32F4xx_HAL_Driver/Src/stm32f4xx_hal_flash.c ****   }
 722:Vendor_HAL/ST/STM32F4xx_HAL_Driver/Src/stm32f4xx_hal_flash.c ****   
 723:Vendor_HAL/ST/STM32F4xx_HAL_Driver/Src/stm32f4xx_hal_flash.c ****   if(__HAL_FLASH_GET_FLAG(FLASH_FLAG_PGAERR) != RESET)
  51              		.loc 1 723 3 view .LVU7
  52              		.loc 1 723 6 is_stmt 0 view .LVU8
  53 001a 214B     		ldr	r3, .L8
  54 001c DB68     		ldr	r3, [r3, #12]
  55              		.loc 1 723 5 view .LVU9
  56 001e 13F0200F 		tst	r3, #32
  57 0022 07D0     		beq	.L3
 724:Vendor_HAL/ST/STM32F4xx_HAL_Driver/Src/stm32f4xx_hal_flash.c ****   {
 725:Vendor_HAL/ST/STM32F4xx_HAL_Driver/Src/stm32f4xx_hal_flash.c ****    pFlash.ErrorCode |= HAL_FLASH_ERROR_PGA;
  58              		.loc 1 725 4 is_stmt 1 view .LVU10
  59              		.loc 1 725 21 is_stmt 0 view .LVU11
  60 0024 1F4A     		ldr	r2, .L8+4
  61 0026 D369     		ldr	r3, [r2, #28]
  62 0028 43F00803 		orr	r3, r3, #8
  63 002c D361     		str	r3, [r2, #28]
 726:Vendor_HAL/ST/STM32F4xx_HAL_Driver/Src/stm32f4xx_hal_flash.c ****    
 727:Vendor_HAL/ST/STM32F4xx_HAL_Driver/Src/stm32f4xx_hal_flash.c ****    /* Clear FLASH Programming alignment error pending bit */
 728:Vendor_HAL/ST/STM32F4xx_HAL_Driver/Src/stm32f4xx_hal_flash.c ****    __HAL_FLASH_CLEAR_FLAG(FLASH_FLAG_PGAERR);
  64              		.loc 1 728 4 is_stmt 1 view .LVU12
  65 002e 1C4B     		ldr	r3, .L8
  66 0030 2022     		movs	r2, #32
  67 0032 DA60     		str	r2, [r3, #12]
  68              	.L3:
 729:Vendor_HAL/ST/STM32F4xx_HAL_Driver/Src/stm32f4xx_hal_flash.c ****   }
 730:Vendor_HAL/ST/STM32F4xx_HAL_Driver/Src/stm32f4xx_hal_flash.c ****   
 731:Vendor_HAL/ST/STM32F4xx_HAL_Driver/Src/stm32f4xx_hal_flash.c ****   if(__HAL_FLASH_GET_FLAG(FLASH_FLAG_PGPERR) != RESET)
ARM GAS  C:\Users\katre\AppData\Local\Temp\ccyg67t2.s 			page 15


  69              		.loc 1 731 3 view .LVU13
  70              		.loc 1 731 6 is_stmt 0 view .LVU14
  71 0034 1A4B     		ldr	r3, .L8
  72 0036 DB68     		ldr	r3, [r3, #12]
  73              		.loc 1 731 5 view .LVU15
  74 0038 13F0400F 		tst	r3, #64
  75 003c 07D0     		beq	.L4
 732:Vendor_HAL/ST/STM32F4xx_HAL_Driver/Src/stm32f4xx_hal_flash.c ****   {
 733:Vendor_HAL/ST/STM32F4xx_HAL_Driver/Src/stm32f4xx_hal_flash.c ****     pFlash.ErrorCode |= HAL_FLASH_ERROR_PGP;
  76              		.loc 1 733 5 is_stmt 1 view .LVU16
  77              		.loc 1 733 22 is_stmt 0 view .LVU17
  78 003e 194A     		ldr	r2, .L8+4
  79 0040 D369     		ldr	r3, [r2, #28]
  80 0042 43F00403 		orr	r3, r3, #4
  81 0046 D361     		str	r3, [r2, #28]
 734:Vendor_HAL/ST/STM32F4xx_HAL_Driver/Src/stm32f4xx_hal_flash.c ****     
 735:Vendor_HAL/ST/STM32F4xx_HAL_Driver/Src/stm32f4xx_hal_flash.c ****     /* Clear FLASH Programming parallelism error pending bit */
 736:Vendor_HAL/ST/STM32F4xx_HAL_Driver/Src/stm32f4xx_hal_flash.c ****     __HAL_FLASH_CLEAR_FLAG(FLASH_FLAG_PGPERR);
  82              		.loc 1 736 5 is_stmt 1 view .LVU18
  83 0048 154B     		ldr	r3, .L8
  84 004a 4022     		movs	r2, #64
  85 004c DA60     		str	r2, [r3, #12]
  86              	.L4:
 737:Vendor_HAL/ST/STM32F4xx_HAL_Driver/Src/stm32f4xx_hal_flash.c ****   }
 738:Vendor_HAL/ST/STM32F4xx_HAL_Driver/Src/stm32f4xx_hal_flash.c ****   
 739:Vendor_HAL/ST/STM32F4xx_HAL_Driver/Src/stm32f4xx_hal_flash.c ****   if(__HAL_FLASH_GET_FLAG(FLASH_FLAG_PGSERR) != RESET)
  87              		.loc 1 739 3 view .LVU19
  88              		.loc 1 739 6 is_stmt 0 view .LVU20
  89 004e 144B     		ldr	r3, .L8
  90 0050 DB68     		ldr	r3, [r3, #12]
  91              		.loc 1 739 5 view .LVU21
  92 0052 13F0800F 		tst	r3, #128
  93 0056 07D0     		beq	.L5
 740:Vendor_HAL/ST/STM32F4xx_HAL_Driver/Src/stm32f4xx_hal_flash.c ****   {
 741:Vendor_HAL/ST/STM32F4xx_HAL_Driver/Src/stm32f4xx_hal_flash.c ****     pFlash.ErrorCode |= HAL_FLASH_ERROR_PGS;
  94              		.loc 1 741 5 is_stmt 1 view .LVU22
  95              		.loc 1 741 22 is_stmt 0 view .LVU23
  96 0058 124A     		ldr	r2, .L8+4
  97 005a D369     		ldr	r3, [r2, #28]
  98 005c 43F00203 		orr	r3, r3, #2
  99 0060 D361     		str	r3, [r2, #28]
 742:Vendor_HAL/ST/STM32F4xx_HAL_Driver/Src/stm32f4xx_hal_flash.c ****     
 743:Vendor_HAL/ST/STM32F4xx_HAL_Driver/Src/stm32f4xx_hal_flash.c ****     /* Clear FLASH Programming sequence error pending bit */
 744:Vendor_HAL/ST/STM32F4xx_HAL_Driver/Src/stm32f4xx_hal_flash.c ****     __HAL_FLASH_CLEAR_FLAG(FLASH_FLAG_PGSERR);
 100              		.loc 1 744 5 is_stmt 1 view .LVU24
 101 0062 0F4B     		ldr	r3, .L8
 102 0064 8022     		movs	r2, #128
 103 0066 DA60     		str	r2, [r3, #12]
 104              	.L5:
 745:Vendor_HAL/ST/STM32F4xx_HAL_Driver/Src/stm32f4xx_hal_flash.c ****   }
 746:Vendor_HAL/ST/STM32F4xx_HAL_Driver/Src/stm32f4xx_hal_flash.c **** #if defined(FLASH_SR_RDERR) 
 747:Vendor_HAL/ST/STM32F4xx_HAL_Driver/Src/stm32f4xx_hal_flash.c ****   if(__HAL_FLASH_GET_FLAG(FLASH_FLAG_RDERR) != RESET)
 105              		.loc 1 747 3 view .LVU25
 106              		.loc 1 747 6 is_stmt 0 view .LVU26
 107 0068 0D4B     		ldr	r3, .L8
 108 006a DB68     		ldr	r3, [r3, #12]
 109              		.loc 1 747 5 view .LVU27
ARM GAS  C:\Users\katre\AppData\Local\Temp\ccyg67t2.s 			page 16


 110 006c 13F4807F 		tst	r3, #256
 111 0070 08D0     		beq	.L6
 748:Vendor_HAL/ST/STM32F4xx_HAL_Driver/Src/stm32f4xx_hal_flash.c ****   {
 749:Vendor_HAL/ST/STM32F4xx_HAL_Driver/Src/stm32f4xx_hal_flash.c ****     pFlash.ErrorCode |= HAL_FLASH_ERROR_RD;
 112              		.loc 1 749 5 is_stmt 1 view .LVU28
 113              		.loc 1 749 22 is_stmt 0 view .LVU29
 114 0072 0C4A     		ldr	r2, .L8+4
 115 0074 D369     		ldr	r3, [r2, #28]
 116 0076 43F00103 		orr	r3, r3, #1
 117 007a D361     		str	r3, [r2, #28]
 750:Vendor_HAL/ST/STM32F4xx_HAL_Driver/Src/stm32f4xx_hal_flash.c ****     
 751:Vendor_HAL/ST/STM32F4xx_HAL_Driver/Src/stm32f4xx_hal_flash.c ****     /* Clear FLASH Proprietary readout protection error pending bit */
 752:Vendor_HAL/ST/STM32F4xx_HAL_Driver/Src/stm32f4xx_hal_flash.c ****     __HAL_FLASH_CLEAR_FLAG(FLASH_FLAG_RDERR);
 118              		.loc 1 752 5 is_stmt 1 view .LVU30
 119 007c 084B     		ldr	r3, .L8
 120 007e 4FF48072 		mov	r2, #256
 121 0082 DA60     		str	r2, [r3, #12]
 122              	.L6:
 753:Vendor_HAL/ST/STM32F4xx_HAL_Driver/Src/stm32f4xx_hal_flash.c ****   }
 754:Vendor_HAL/ST/STM32F4xx_HAL_Driver/Src/stm32f4xx_hal_flash.c **** #endif /* FLASH_SR_RDERR */  
 755:Vendor_HAL/ST/STM32F4xx_HAL_Driver/Src/stm32f4xx_hal_flash.c ****   if(__HAL_FLASH_GET_FLAG(FLASH_FLAG_OPERR) != RESET)
 123              		.loc 1 755 3 view .LVU31
 124              		.loc 1 755 6 is_stmt 0 view .LVU32
 125 0084 064B     		ldr	r3, .L8
 126 0086 DB68     		ldr	r3, [r3, #12]
 127              		.loc 1 755 5 view .LVU33
 128 0088 13F0020F 		tst	r3, #2
 129 008c 07D0     		beq	.L1
 756:Vendor_HAL/ST/STM32F4xx_HAL_Driver/Src/stm32f4xx_hal_flash.c ****   {
 757:Vendor_HAL/ST/STM32F4xx_HAL_Driver/Src/stm32f4xx_hal_flash.c ****     pFlash.ErrorCode |= HAL_FLASH_ERROR_OPERATION;
 130              		.loc 1 757 5 is_stmt 1 view .LVU34
 131              		.loc 1 757 22 is_stmt 0 view .LVU35
 132 008e 054A     		ldr	r2, .L8+4
 133 0090 D369     		ldr	r3, [r2, #28]
 134 0092 43F02003 		orr	r3, r3, #32
 135 0096 D361     		str	r3, [r2, #28]
 758:Vendor_HAL/ST/STM32F4xx_HAL_Driver/Src/stm32f4xx_hal_flash.c ****     
 759:Vendor_HAL/ST/STM32F4xx_HAL_Driver/Src/stm32f4xx_hal_flash.c ****     /* Clear FLASH Operation error pending bit */
 760:Vendor_HAL/ST/STM32F4xx_HAL_Driver/Src/stm32f4xx_hal_flash.c ****     __HAL_FLASH_CLEAR_FLAG(FLASH_FLAG_OPERR);
 136              		.loc 1 760 5 is_stmt 1 view .LVU36
 137 0098 014B     		ldr	r3, .L8
 138 009a 0222     		movs	r2, #2
 139 009c DA60     		str	r2, [r3, #12]
 140              	.L1:
 761:Vendor_HAL/ST/STM32F4xx_HAL_Driver/Src/stm32f4xx_hal_flash.c ****   }
 762:Vendor_HAL/ST/STM32F4xx_HAL_Driver/Src/stm32f4xx_hal_flash.c **** }
 141              		.loc 1 762 1 is_stmt 0 view .LVU37
 142 009e 7047     		bx	lr
 143              	.L9:
 144              		.align	2
 145              	.L8:
 146 00a0 003C0240 		.word	1073888256
 147 00a4 00000000 		.word	.LANCHOR0
 148              		.cfi_endproc
 149              	.LFE146:
 151              		.section	.rodata.FLASH_Program_Byte.str1.4,"aMS",%progbits,1
 152              		.align	2
ARM GAS  C:\Users\katre\AppData\Local\Temp\ccyg67t2.s 			page 17


 153              	.LC0:
 154 0000 56656E64 		.ascii	"Vendor_HAL/ST/STM32F4xx_HAL_Driver/Src/stm32f4xx_ha"
 154      6F725F48 
 154      414C2F53 
 154      542F5354 
 154      4D333246 
 155 0033 6C5F666C 		.ascii	"l_flash.c\000"
 155      6173682E 
 155      6300
 156              		.section	.text.FLASH_Program_Byte,"ax",%progbits
 157              		.align	1
 158              		.syntax unified
 159              		.thumb
 160              		.thumb_func
 162              	FLASH_Program_Byte:
 163              	.LVL0:
 164              	.LFB145:
 697:Vendor_HAL/ST/STM32F4xx_HAL_Driver/Src/stm32f4xx_hal_flash.c ****   /* Check the parameters */
 165              		.loc 1 697 1 is_stmt 1 view -0
 166              		.cfi_startproc
 167              		@ args = 0, pretend = 0, frame = 0
 168              		@ frame_needed = 0, uses_anonymous_args = 0
 697:Vendor_HAL/ST/STM32F4xx_HAL_Driver/Src/stm32f4xx_hal_flash.c ****   /* Check the parameters */
 169              		.loc 1 697 1 is_stmt 0 view .LVU39
 170 0000 38B5     		push	{r3, r4, r5, lr}
 171              	.LCFI0:
 172              		.cfi_def_cfa_offset 16
 173              		.cfi_offset 3, -16
 174              		.cfi_offset 4, -12
 175              		.cfi_offset 5, -8
 176              		.cfi_offset 14, -4
 177 0002 0446     		mov	r4, r0
 178 0004 0D46     		mov	r5, r1
 699:Vendor_HAL/ST/STM32F4xx_HAL_Driver/Src/stm32f4xx_hal_flash.c ****   
 179              		.loc 1 699 3 is_stmt 1 view .LVU40
 180 0006 00F17843 		add	r3, r0, #-134217728
 181 000a B3F5002F 		cmp	r3, #524288
 182 000e 06D3     		bcc	.L11
 699:Vendor_HAL/ST/STM32F4xx_HAL_Driver/Src/stm32f4xx_hal_flash.c ****   
 183              		.loc 1 699 3 is_stmt 0 discriminator 1 view .LVU41
 184 0010 00F16043 		add	r3, r0, #-536870912
 185 0014 03F50843 		add	r3, r3, #34816
 186 0018 B3F5047F 		cmp	r3, #528
 187 001c 0CD2     		bcs	.L13
 188              	.LVL1:
 189              	.L11:
 702:Vendor_HAL/ST/STM32F4xx_HAL_Driver/Src/stm32f4xx_hal_flash.c ****   FLASH->CR |= FLASH_PSIZE_BYTE;
 190              		.loc 1 702 3 is_stmt 1 view .LVU42
 191 001e 094B     		ldr	r3, .L14
 192 0020 1A69     		ldr	r2, [r3, #16]
 193 0022 22F44072 		bic	r2, r2, #768
 194 0026 1A61     		str	r2, [r3, #16]
 703:Vendor_HAL/ST/STM32F4xx_HAL_Driver/Src/stm32f4xx_hal_flash.c ****   FLASH->CR |= FLASH_CR_PG;
 195              		.loc 1 703 3 view .LVU43
 703:Vendor_HAL/ST/STM32F4xx_HAL_Driver/Src/stm32f4xx_hal_flash.c ****   FLASH->CR |= FLASH_CR_PG;
 196              		.loc 1 703 13 is_stmt 0 view .LVU44
 197 0028 1A69     		ldr	r2, [r3, #16]
ARM GAS  C:\Users\katre\AppData\Local\Temp\ccyg67t2.s 			page 18


 198 002a 1A61     		str	r2, [r3, #16]
 704:Vendor_HAL/ST/STM32F4xx_HAL_Driver/Src/stm32f4xx_hal_flash.c **** 
 199              		.loc 1 704 3 is_stmt 1 view .LVU45
 704:Vendor_HAL/ST/STM32F4xx_HAL_Driver/Src/stm32f4xx_hal_flash.c **** 
 200              		.loc 1 704 13 is_stmt 0 view .LVU46
 201 002c 1A69     		ldr	r2, [r3, #16]
 202 002e 42F00102 		orr	r2, r2, #1
 203 0032 1A61     		str	r2, [r3, #16]
 706:Vendor_HAL/ST/STM32F4xx_HAL_Driver/Src/stm32f4xx_hal_flash.c **** }
 204              		.loc 1 706 3 is_stmt 1 view .LVU47
 706:Vendor_HAL/ST/STM32F4xx_HAL_Driver/Src/stm32f4xx_hal_flash.c **** }
 205              		.loc 1 706 27 is_stmt 0 view .LVU48
 206 0034 2570     		strb	r5, [r4]
 707:Vendor_HAL/ST/STM32F4xx_HAL_Driver/Src/stm32f4xx_hal_flash.c **** 
 207              		.loc 1 707 1 view .LVU49
 208 0036 38BD     		pop	{r3, r4, r5, pc}
 209              	.LVL2:
 210              	.L13:
 699:Vendor_HAL/ST/STM32F4xx_HAL_Driver/Src/stm32f4xx_hal_flash.c ****   
 211              		.loc 1 699 3 discriminator 2 view .LVU50
 212 0038 40F2BB21 		movw	r1, #699
 213              	.LVL3:
 699:Vendor_HAL/ST/STM32F4xx_HAL_Driver/Src/stm32f4xx_hal_flash.c ****   
 214              		.loc 1 699 3 discriminator 2 view .LVU51
 215 003c 0248     		ldr	r0, .L14+4
 216              	.LVL4:
 699:Vendor_HAL/ST/STM32F4xx_HAL_Driver/Src/stm32f4xx_hal_flash.c ****   
 217              		.loc 1 699 3 discriminator 2 view .LVU52
 218 003e FFF7FEFF 		bl	assert_failed
 219              	.LVL5:
 220 0042 ECE7     		b	.L11
 221              	.L15:
 222              		.align	2
 223              	.L14:
 224 0044 003C0240 		.word	1073888256
 225 0048 00000000 		.word	.LC0
 226              		.cfi_endproc
 227              	.LFE145:
 229              		.section	.text.FLASH_Program_HalfWord,"ax",%progbits
 230              		.align	1
 231              		.syntax unified
 232              		.thumb
 233              		.thumb_func
 235              	FLASH_Program_HalfWord:
 236              	.LVL6:
 237              	.LFB144:
 672:Vendor_HAL/ST/STM32F4xx_HAL_Driver/Src/stm32f4xx_hal_flash.c ****   /* Check the parameters */
 238              		.loc 1 672 1 is_stmt 1 view -0
 239              		.cfi_startproc
 240              		@ args = 0, pretend = 0, frame = 0
 241              		@ frame_needed = 0, uses_anonymous_args = 0
 672:Vendor_HAL/ST/STM32F4xx_HAL_Driver/Src/stm32f4xx_hal_flash.c ****   /* Check the parameters */
 242              		.loc 1 672 1 is_stmt 0 view .LVU54
 243 0000 38B5     		push	{r3, r4, r5, lr}
 244              	.LCFI1:
 245              		.cfi_def_cfa_offset 16
 246              		.cfi_offset 3, -16
ARM GAS  C:\Users\katre\AppData\Local\Temp\ccyg67t2.s 			page 19


 247              		.cfi_offset 4, -12
 248              		.cfi_offset 5, -8
 249              		.cfi_offset 14, -4
 250 0002 0446     		mov	r4, r0
 251 0004 0D46     		mov	r5, r1
 674:Vendor_HAL/ST/STM32F4xx_HAL_Driver/Src/stm32f4xx_hal_flash.c ****   
 252              		.loc 1 674 3 is_stmt 1 view .LVU55
 253 0006 00F17843 		add	r3, r0, #-134217728
 254 000a B3F5002F 		cmp	r3, #524288
 255 000e 06D3     		bcc	.L17
 674:Vendor_HAL/ST/STM32F4xx_HAL_Driver/Src/stm32f4xx_hal_flash.c ****   
 256              		.loc 1 674 3 is_stmt 0 discriminator 1 view .LVU56
 257 0010 00F16043 		add	r3, r0, #-536870912
 258 0014 03F50843 		add	r3, r3, #34816
 259 0018 B3F5047F 		cmp	r3, #528
 260 001c 0ED2     		bcs	.L19
 261              	.LVL7:
 262              	.L17:
 677:Vendor_HAL/ST/STM32F4xx_HAL_Driver/Src/stm32f4xx_hal_flash.c ****   FLASH->CR |= FLASH_PSIZE_HALF_WORD;
 263              		.loc 1 677 3 is_stmt 1 view .LVU57
 264 001e 0A4B     		ldr	r3, .L20
 265 0020 1A69     		ldr	r2, [r3, #16]
 266 0022 22F44072 		bic	r2, r2, #768
 267 0026 1A61     		str	r2, [r3, #16]
 678:Vendor_HAL/ST/STM32F4xx_HAL_Driver/Src/stm32f4xx_hal_flash.c ****   FLASH->CR |= FLASH_CR_PG;
 268              		.loc 1 678 3 view .LVU58
 678:Vendor_HAL/ST/STM32F4xx_HAL_Driver/Src/stm32f4xx_hal_flash.c ****   FLASH->CR |= FLASH_CR_PG;
 269              		.loc 1 678 13 is_stmt 0 view .LVU59
 270 0028 1A69     		ldr	r2, [r3, #16]
 271 002a 42F48072 		orr	r2, r2, #256
 272 002e 1A61     		str	r2, [r3, #16]
 679:Vendor_HAL/ST/STM32F4xx_HAL_Driver/Src/stm32f4xx_hal_flash.c **** 
 273              		.loc 1 679 3 is_stmt 1 view .LVU60
 679:Vendor_HAL/ST/STM32F4xx_HAL_Driver/Src/stm32f4xx_hal_flash.c **** 
 274              		.loc 1 679 13 is_stmt 0 view .LVU61
 275 0030 1A69     		ldr	r2, [r3, #16]
 276 0032 42F00102 		orr	r2, r2, #1
 277 0036 1A61     		str	r2, [r3, #16]
 681:Vendor_HAL/ST/STM32F4xx_HAL_Driver/Src/stm32f4xx_hal_flash.c **** }
 278              		.loc 1 681 3 is_stmt 1 view .LVU62
 681:Vendor_HAL/ST/STM32F4xx_HAL_Driver/Src/stm32f4xx_hal_flash.c **** }
 279              		.loc 1 681 28 is_stmt 0 view .LVU63
 280 0038 2580     		strh	r5, [r4]	@ movhi
 682:Vendor_HAL/ST/STM32F4xx_HAL_Driver/Src/stm32f4xx_hal_flash.c **** 
 281              		.loc 1 682 1 view .LVU64
 282 003a 38BD     		pop	{r3, r4, r5, pc}
 283              	.LVL8:
 284              	.L19:
 674:Vendor_HAL/ST/STM32F4xx_HAL_Driver/Src/stm32f4xx_hal_flash.c ****   
 285              		.loc 1 674 3 discriminator 2 view .LVU65
 286 003c 40F2A221 		movw	r1, #674
 287              	.LVL9:
 674:Vendor_HAL/ST/STM32F4xx_HAL_Driver/Src/stm32f4xx_hal_flash.c ****   
 288              		.loc 1 674 3 discriminator 2 view .LVU66
 289 0040 0248     		ldr	r0, .L20+4
 290              	.LVL10:
 674:Vendor_HAL/ST/STM32F4xx_HAL_Driver/Src/stm32f4xx_hal_flash.c ****   
ARM GAS  C:\Users\katre\AppData\Local\Temp\ccyg67t2.s 			page 20


 291              		.loc 1 674 3 discriminator 2 view .LVU67
 292 0042 FFF7FEFF 		bl	assert_failed
 293              	.LVL11:
 294 0046 EAE7     		b	.L17
 295              	.L21:
 296              		.align	2
 297              	.L20:
 298 0048 003C0240 		.word	1073888256
 299 004c 00000000 		.word	.LC0
 300              		.cfi_endproc
 301              	.LFE144:
 303              		.section	.text.FLASH_Program_Word,"ax",%progbits
 304              		.align	1
 305              		.syntax unified
 306              		.thumb
 307              		.thumb_func
 309              	FLASH_Program_Word:
 310              	.LVL12:
 311              	.LFB143:
 647:Vendor_HAL/ST/STM32F4xx_HAL_Driver/Src/stm32f4xx_hal_flash.c ****   /* Check the parameters */
 312              		.loc 1 647 1 is_stmt 1 view -0
 313              		.cfi_startproc
 314              		@ args = 0, pretend = 0, frame = 0
 315              		@ frame_needed = 0, uses_anonymous_args = 0
 647:Vendor_HAL/ST/STM32F4xx_HAL_Driver/Src/stm32f4xx_hal_flash.c ****   /* Check the parameters */
 316              		.loc 1 647 1 is_stmt 0 view .LVU69
 317 0000 38B5     		push	{r3, r4, r5, lr}
 318              	.LCFI2:
 319              		.cfi_def_cfa_offset 16
 320              		.cfi_offset 3, -16
 321              		.cfi_offset 4, -12
 322              		.cfi_offset 5, -8
 323              		.cfi_offset 14, -4
 324 0002 0446     		mov	r4, r0
 325 0004 0D46     		mov	r5, r1
 649:Vendor_HAL/ST/STM32F4xx_HAL_Driver/Src/stm32f4xx_hal_flash.c ****   
 326              		.loc 1 649 3 is_stmt 1 view .LVU70
 327 0006 00F17843 		add	r3, r0, #-134217728
 328 000a B3F5002F 		cmp	r3, #524288
 329 000e 06D3     		bcc	.L23
 649:Vendor_HAL/ST/STM32F4xx_HAL_Driver/Src/stm32f4xx_hal_flash.c ****   
 330              		.loc 1 649 3 is_stmt 0 discriminator 1 view .LVU71
 331 0010 00F16043 		add	r3, r0, #-536870912
 332 0014 03F50843 		add	r3, r3, #34816
 333 0018 B3F5047F 		cmp	r3, #528
 334 001c 0ED2     		bcs	.L25
 335              	.LVL13:
 336              	.L23:
 652:Vendor_HAL/ST/STM32F4xx_HAL_Driver/Src/stm32f4xx_hal_flash.c ****   FLASH->CR |= FLASH_PSIZE_WORD;
 337              		.loc 1 652 3 is_stmt 1 view .LVU72
 338 001e 0A4B     		ldr	r3, .L26
 339 0020 1A69     		ldr	r2, [r3, #16]
 340 0022 22F44072 		bic	r2, r2, #768
 341 0026 1A61     		str	r2, [r3, #16]
 653:Vendor_HAL/ST/STM32F4xx_HAL_Driver/Src/stm32f4xx_hal_flash.c ****   FLASH->CR |= FLASH_CR_PG;
 342              		.loc 1 653 3 view .LVU73
 653:Vendor_HAL/ST/STM32F4xx_HAL_Driver/Src/stm32f4xx_hal_flash.c ****   FLASH->CR |= FLASH_CR_PG;
ARM GAS  C:\Users\katre\AppData\Local\Temp\ccyg67t2.s 			page 21


 343              		.loc 1 653 13 is_stmt 0 view .LVU74
 344 0028 1A69     		ldr	r2, [r3, #16]
 345 002a 42F40072 		orr	r2, r2, #512
 346 002e 1A61     		str	r2, [r3, #16]
 654:Vendor_HAL/ST/STM32F4xx_HAL_Driver/Src/stm32f4xx_hal_flash.c **** 
 347              		.loc 1 654 3 is_stmt 1 view .LVU75
 654:Vendor_HAL/ST/STM32F4xx_HAL_Driver/Src/stm32f4xx_hal_flash.c **** 
 348              		.loc 1 654 13 is_stmt 0 view .LVU76
 349 0030 1A69     		ldr	r2, [r3, #16]
 350 0032 42F00102 		orr	r2, r2, #1
 351 0036 1A61     		str	r2, [r3, #16]
 656:Vendor_HAL/ST/STM32F4xx_HAL_Driver/Src/stm32f4xx_hal_flash.c **** }
 352              		.loc 1 656 3 is_stmt 1 view .LVU77
 656:Vendor_HAL/ST/STM32F4xx_HAL_Driver/Src/stm32f4xx_hal_flash.c **** }
 353              		.loc 1 656 28 is_stmt 0 view .LVU78
 354 0038 2560     		str	r5, [r4]
 657:Vendor_HAL/ST/STM32F4xx_HAL_Driver/Src/stm32f4xx_hal_flash.c **** 
 355              		.loc 1 657 1 view .LVU79
 356 003a 38BD     		pop	{r3, r4, r5, pc}
 357              	.LVL14:
 358              	.L25:
 649:Vendor_HAL/ST/STM32F4xx_HAL_Driver/Src/stm32f4xx_hal_flash.c ****   
 359              		.loc 1 649 3 discriminator 2 view .LVU80
 360 003c 40F28921 		movw	r1, #649
 361              	.LVL15:
 649:Vendor_HAL/ST/STM32F4xx_HAL_Driver/Src/stm32f4xx_hal_flash.c ****   
 362              		.loc 1 649 3 discriminator 2 view .LVU81
 363 0040 0248     		ldr	r0, .L26+4
 364              	.LVL16:
 649:Vendor_HAL/ST/STM32F4xx_HAL_Driver/Src/stm32f4xx_hal_flash.c ****   
 365              		.loc 1 649 3 discriminator 2 view .LVU82
 366 0042 FFF7FEFF 		bl	assert_failed
 367              	.LVL17:
 368 0046 EAE7     		b	.L23
 369              	.L27:
 370              		.align	2
 371              	.L26:
 372 0048 003C0240 		.word	1073888256
 373 004c 00000000 		.word	.LC0
 374              		.cfi_endproc
 375              	.LFE143:
 377              		.section	.text.FLASH_Program_DoubleWord,"ax",%progbits
 378              		.align	1
 379              		.syntax unified
 380              		.thumb
 381              		.thumb_func
 383              	FLASH_Program_DoubleWord:
 384              	.LVL18:
 385              	.LFB142:
 613:Vendor_HAL/ST/STM32F4xx_HAL_Driver/Src/stm32f4xx_hal_flash.c ****   /* Check the parameters */
 386              		.loc 1 613 1 is_stmt 1 view -0
 387              		.cfi_startproc
 388              		@ args = 0, pretend = 0, frame = 0
 389              		@ frame_needed = 0, uses_anonymous_args = 0
 613:Vendor_HAL/ST/STM32F4xx_HAL_Driver/Src/stm32f4xx_hal_flash.c ****   /* Check the parameters */
 390              		.loc 1 613 1 is_stmt 0 view .LVU84
 391 0000 70B5     		push	{r4, r5, r6, lr}
ARM GAS  C:\Users\katre\AppData\Local\Temp\ccyg67t2.s 			page 22


 392              	.LCFI3:
 393              		.cfi_def_cfa_offset 16
 394              		.cfi_offset 4, -16
 395              		.cfi_offset 5, -12
 396              		.cfi_offset 6, -8
 397              		.cfi_offset 14, -4
 398 0002 0446     		mov	r4, r0
 399 0004 1646     		mov	r6, r2
 400 0006 1D46     		mov	r5, r3
 615:Vendor_HAL/ST/STM32F4xx_HAL_Driver/Src/stm32f4xx_hal_flash.c ****   
 401              		.loc 1 615 3 is_stmt 1 view .LVU85
 402 0008 00F17843 		add	r3, r0, #-134217728
 403 000c B3F5002F 		cmp	r3, #524288
 404 0010 06D3     		bcc	.L29
 615:Vendor_HAL/ST/STM32F4xx_HAL_Driver/Src/stm32f4xx_hal_flash.c ****   
 405              		.loc 1 615 3 is_stmt 0 discriminator 1 view .LVU86
 406 0012 00F16043 		add	r3, r0, #-536870912
 407 0016 03F50843 		add	r3, r3, #34816
 408 001a B3F5047F 		cmp	r3, #528
 409 001e 11D2     		bcs	.L31
 410              	.LVL19:
 411              	.L29:
 618:Vendor_HAL/ST/STM32F4xx_HAL_Driver/Src/stm32f4xx_hal_flash.c ****   FLASH->CR |= FLASH_PSIZE_DOUBLE_WORD;
 412              		.loc 1 618 3 is_stmt 1 view .LVU87
 413 0020 0B49     		ldr	r1, .L32
 414 0022 0B69     		ldr	r3, [r1, #16]
 415 0024 23F44073 		bic	r3, r3, #768
 416 0028 0B61     		str	r3, [r1, #16]
 619:Vendor_HAL/ST/STM32F4xx_HAL_Driver/Src/stm32f4xx_hal_flash.c ****   FLASH->CR |= FLASH_CR_PG;
 417              		.loc 1 619 3 view .LVU88
 619:Vendor_HAL/ST/STM32F4xx_HAL_Driver/Src/stm32f4xx_hal_flash.c ****   FLASH->CR |= FLASH_CR_PG;
 418              		.loc 1 619 13 is_stmt 0 view .LVU89
 419 002a 0B69     		ldr	r3, [r1, #16]
 420 002c 43F44073 		orr	r3, r3, #768
 421 0030 0B61     		str	r3, [r1, #16]
 620:Vendor_HAL/ST/STM32F4xx_HAL_Driver/Src/stm32f4xx_hal_flash.c **** 
 422              		.loc 1 620 3 is_stmt 1 view .LVU90
 620:Vendor_HAL/ST/STM32F4xx_HAL_Driver/Src/stm32f4xx_hal_flash.c **** 
 423              		.loc 1 620 13 is_stmt 0 view .LVU91
 424 0032 0B69     		ldr	r3, [r1, #16]
 425 0034 43F00103 		orr	r3, r3, #1
 426 0038 0B61     		str	r3, [r1, #16]
 623:Vendor_HAL/ST/STM32F4xx_HAL_Driver/Src/stm32f4xx_hal_flash.c **** 
 427              		.loc 1 623 3 is_stmt 1 view .LVU92
 623:Vendor_HAL/ST/STM32F4xx_HAL_Driver/Src/stm32f4xx_hal_flash.c **** 
 428              		.loc 1 623 28 is_stmt 0 view .LVU93
 429 003a 2660     		str	r6, [r4]
 627:Vendor_HAL/ST/STM32F4xx_HAL_Driver/Src/stm32f4xx_hal_flash.c **** 
 430              		.loc 1 627 3 is_stmt 1 view .LVU94
 431              	.LBB4:
 432              	.LBI4:
 433              		.file 2 "CMSIS/Core/Include/cmsis_gcc.h"
   1:CMSIS/Core/Include/cmsis_gcc.h **** /**************************************************************************//**
   2:CMSIS/Core/Include/cmsis_gcc.h ****  * @file     cmsis_gcc.h
   3:CMSIS/Core/Include/cmsis_gcc.h ****  * @brief    CMSIS compiler GCC header file
   4:CMSIS/Core/Include/cmsis_gcc.h ****  * @version  V5.0.4
   5:CMSIS/Core/Include/cmsis_gcc.h ****  * @date     09. April 2018
ARM GAS  C:\Users\katre\AppData\Local\Temp\ccyg67t2.s 			page 23


   6:CMSIS/Core/Include/cmsis_gcc.h ****  ******************************************************************************/
   7:CMSIS/Core/Include/cmsis_gcc.h **** /*
   8:CMSIS/Core/Include/cmsis_gcc.h ****  * Copyright (c) 2009-2018 Arm Limited. All rights reserved.
   9:CMSIS/Core/Include/cmsis_gcc.h ****  *
  10:CMSIS/Core/Include/cmsis_gcc.h ****  * SPDX-License-Identifier: Apache-2.0
  11:CMSIS/Core/Include/cmsis_gcc.h ****  *
  12:CMSIS/Core/Include/cmsis_gcc.h ****  * Licensed under the Apache License, Version 2.0 (the License); you may
  13:CMSIS/Core/Include/cmsis_gcc.h ****  * not use this file except in compliance with the License.
  14:CMSIS/Core/Include/cmsis_gcc.h ****  * You may obtain a copy of the License at
  15:CMSIS/Core/Include/cmsis_gcc.h ****  *
  16:CMSIS/Core/Include/cmsis_gcc.h ****  * www.apache.org/licenses/LICENSE-2.0
  17:CMSIS/Core/Include/cmsis_gcc.h ****  *
  18:CMSIS/Core/Include/cmsis_gcc.h ****  * Unless required by applicable law or agreed to in writing, software
  19:CMSIS/Core/Include/cmsis_gcc.h ****  * distributed under the License is distributed on an AS IS BASIS, WITHOUT
  20:CMSIS/Core/Include/cmsis_gcc.h ****  * WARRANTIES OR CONDITIONS OF ANY KIND, either express or implied.
  21:CMSIS/Core/Include/cmsis_gcc.h ****  * See the License for the specific language governing permissions and
  22:CMSIS/Core/Include/cmsis_gcc.h ****  * limitations under the License.
  23:CMSIS/Core/Include/cmsis_gcc.h ****  */
  24:CMSIS/Core/Include/cmsis_gcc.h **** 
  25:CMSIS/Core/Include/cmsis_gcc.h **** #ifndef __CMSIS_GCC_H
  26:CMSIS/Core/Include/cmsis_gcc.h **** #define __CMSIS_GCC_H
  27:CMSIS/Core/Include/cmsis_gcc.h **** 
  28:CMSIS/Core/Include/cmsis_gcc.h **** /* ignore some GCC warnings */
  29:CMSIS/Core/Include/cmsis_gcc.h **** #pragma GCC diagnostic push
  30:CMSIS/Core/Include/cmsis_gcc.h **** #pragma GCC diagnostic ignored "-Wsign-conversion"
  31:CMSIS/Core/Include/cmsis_gcc.h **** #pragma GCC diagnostic ignored "-Wconversion"
  32:CMSIS/Core/Include/cmsis_gcc.h **** #pragma GCC diagnostic ignored "-Wunused-parameter"
  33:CMSIS/Core/Include/cmsis_gcc.h **** 
  34:CMSIS/Core/Include/cmsis_gcc.h **** /* Fallback for __has_builtin */
  35:CMSIS/Core/Include/cmsis_gcc.h **** #ifndef __has_builtin
  36:CMSIS/Core/Include/cmsis_gcc.h ****   #define __has_builtin(x) (0)
  37:CMSIS/Core/Include/cmsis_gcc.h **** #endif
  38:CMSIS/Core/Include/cmsis_gcc.h **** 
  39:CMSIS/Core/Include/cmsis_gcc.h **** /* CMSIS compiler specific defines */
  40:CMSIS/Core/Include/cmsis_gcc.h **** #ifndef   __ASM
  41:CMSIS/Core/Include/cmsis_gcc.h ****   #define __ASM                                  __asm
  42:CMSIS/Core/Include/cmsis_gcc.h **** #endif
  43:CMSIS/Core/Include/cmsis_gcc.h **** #ifndef   __INLINE
  44:CMSIS/Core/Include/cmsis_gcc.h ****   #define __INLINE                               inline
  45:CMSIS/Core/Include/cmsis_gcc.h **** #endif
  46:CMSIS/Core/Include/cmsis_gcc.h **** #ifndef   __STATIC_INLINE
  47:CMSIS/Core/Include/cmsis_gcc.h ****   #define __STATIC_INLINE                        static inline
  48:CMSIS/Core/Include/cmsis_gcc.h **** #endif
  49:CMSIS/Core/Include/cmsis_gcc.h **** #ifndef   __STATIC_FORCEINLINE                 
  50:CMSIS/Core/Include/cmsis_gcc.h ****   #define __STATIC_FORCEINLINE                   __attribute__((always_inline)) static inline
  51:CMSIS/Core/Include/cmsis_gcc.h **** #endif                                           
  52:CMSIS/Core/Include/cmsis_gcc.h **** #ifndef   __NO_RETURN
  53:CMSIS/Core/Include/cmsis_gcc.h ****   #define __NO_RETURN                            __attribute__((__noreturn__))
  54:CMSIS/Core/Include/cmsis_gcc.h **** #endif
  55:CMSIS/Core/Include/cmsis_gcc.h **** #ifndef   __USED
  56:CMSIS/Core/Include/cmsis_gcc.h ****   #define __USED                                 __attribute__((used))
  57:CMSIS/Core/Include/cmsis_gcc.h **** #endif
  58:CMSIS/Core/Include/cmsis_gcc.h **** #ifndef   __WEAK
  59:CMSIS/Core/Include/cmsis_gcc.h ****   #define __WEAK                                 __attribute__((weak))
  60:CMSIS/Core/Include/cmsis_gcc.h **** #endif
  61:CMSIS/Core/Include/cmsis_gcc.h **** #ifndef   __PACKED
  62:CMSIS/Core/Include/cmsis_gcc.h ****   #define __PACKED                               __attribute__((packed, aligned(1)))
ARM GAS  C:\Users\katre\AppData\Local\Temp\ccyg67t2.s 			page 24


  63:CMSIS/Core/Include/cmsis_gcc.h **** #endif
  64:CMSIS/Core/Include/cmsis_gcc.h **** #ifndef   __PACKED_STRUCT
  65:CMSIS/Core/Include/cmsis_gcc.h ****   #define __PACKED_STRUCT                        struct __attribute__((packed, aligned(1)))
  66:CMSIS/Core/Include/cmsis_gcc.h **** #endif
  67:CMSIS/Core/Include/cmsis_gcc.h **** #ifndef   __PACKED_UNION
  68:CMSIS/Core/Include/cmsis_gcc.h ****   #define __PACKED_UNION                         union __attribute__((packed, aligned(1)))
  69:CMSIS/Core/Include/cmsis_gcc.h **** #endif
  70:CMSIS/Core/Include/cmsis_gcc.h **** #ifndef   __UNALIGNED_UINT32        /* deprecated */
  71:CMSIS/Core/Include/cmsis_gcc.h ****   #pragma GCC diagnostic push
  72:CMSIS/Core/Include/cmsis_gcc.h ****   #pragma GCC diagnostic ignored "-Wpacked"
  73:CMSIS/Core/Include/cmsis_gcc.h ****   #pragma GCC diagnostic ignored "-Wattributes"
  74:CMSIS/Core/Include/cmsis_gcc.h ****   struct __attribute__((packed)) T_UINT32 { uint32_t v; };
  75:CMSIS/Core/Include/cmsis_gcc.h ****   #pragma GCC diagnostic pop
  76:CMSIS/Core/Include/cmsis_gcc.h ****   #define __UNALIGNED_UINT32(x)                  (((struct T_UINT32 *)(x))->v)
  77:CMSIS/Core/Include/cmsis_gcc.h **** #endif
  78:CMSIS/Core/Include/cmsis_gcc.h **** #ifndef   __UNALIGNED_UINT16_WRITE
  79:CMSIS/Core/Include/cmsis_gcc.h ****   #pragma GCC diagnostic push
  80:CMSIS/Core/Include/cmsis_gcc.h ****   #pragma GCC diagnostic ignored "-Wpacked"
  81:CMSIS/Core/Include/cmsis_gcc.h ****   #pragma GCC diagnostic ignored "-Wattributes"
  82:CMSIS/Core/Include/cmsis_gcc.h ****   __PACKED_STRUCT T_UINT16_WRITE { uint16_t v; };
  83:CMSIS/Core/Include/cmsis_gcc.h ****   #pragma GCC diagnostic pop
  84:CMSIS/Core/Include/cmsis_gcc.h ****   #define __UNALIGNED_UINT16_WRITE(addr, val)    (void)((((struct T_UINT16_WRITE *)(void *)(addr))-
  85:CMSIS/Core/Include/cmsis_gcc.h **** #endif
  86:CMSIS/Core/Include/cmsis_gcc.h **** #ifndef   __UNALIGNED_UINT16_READ
  87:CMSIS/Core/Include/cmsis_gcc.h ****   #pragma GCC diagnostic push
  88:CMSIS/Core/Include/cmsis_gcc.h ****   #pragma GCC diagnostic ignored "-Wpacked"
  89:CMSIS/Core/Include/cmsis_gcc.h ****   #pragma GCC diagnostic ignored "-Wattributes"
  90:CMSIS/Core/Include/cmsis_gcc.h ****   __PACKED_STRUCT T_UINT16_READ { uint16_t v; };
  91:CMSIS/Core/Include/cmsis_gcc.h ****   #pragma GCC diagnostic pop
  92:CMSIS/Core/Include/cmsis_gcc.h ****   #define __UNALIGNED_UINT16_READ(addr)          (((const struct T_UINT16_READ *)(const void *)(add
  93:CMSIS/Core/Include/cmsis_gcc.h **** #endif
  94:CMSIS/Core/Include/cmsis_gcc.h **** #ifndef   __UNALIGNED_UINT32_WRITE
  95:CMSIS/Core/Include/cmsis_gcc.h ****   #pragma GCC diagnostic push
  96:CMSIS/Core/Include/cmsis_gcc.h ****   #pragma GCC diagnostic ignored "-Wpacked"
  97:CMSIS/Core/Include/cmsis_gcc.h ****   #pragma GCC diagnostic ignored "-Wattributes"
  98:CMSIS/Core/Include/cmsis_gcc.h ****   __PACKED_STRUCT T_UINT32_WRITE { uint32_t v; };
  99:CMSIS/Core/Include/cmsis_gcc.h ****   #pragma GCC diagnostic pop
 100:CMSIS/Core/Include/cmsis_gcc.h ****   #define __UNALIGNED_UINT32_WRITE(addr, val)    (void)((((struct T_UINT32_WRITE *)(void *)(addr))-
 101:CMSIS/Core/Include/cmsis_gcc.h **** #endif
 102:CMSIS/Core/Include/cmsis_gcc.h **** #ifndef   __UNALIGNED_UINT32_READ
 103:CMSIS/Core/Include/cmsis_gcc.h ****   #pragma GCC diagnostic push
 104:CMSIS/Core/Include/cmsis_gcc.h ****   #pragma GCC diagnostic ignored "-Wpacked"
 105:CMSIS/Core/Include/cmsis_gcc.h ****   #pragma GCC diagnostic ignored "-Wattributes"
 106:CMSIS/Core/Include/cmsis_gcc.h ****   __PACKED_STRUCT T_UINT32_READ { uint32_t v; };
 107:CMSIS/Core/Include/cmsis_gcc.h ****   #pragma GCC diagnostic pop
 108:CMSIS/Core/Include/cmsis_gcc.h ****   #define __UNALIGNED_UINT32_READ(addr)          (((const struct T_UINT32_READ *)(const void *)(add
 109:CMSIS/Core/Include/cmsis_gcc.h **** #endif
 110:CMSIS/Core/Include/cmsis_gcc.h **** #ifndef   __ALIGNED
 111:CMSIS/Core/Include/cmsis_gcc.h ****   #define __ALIGNED(x)                           __attribute__((aligned(x)))
 112:CMSIS/Core/Include/cmsis_gcc.h **** #endif
 113:CMSIS/Core/Include/cmsis_gcc.h **** #ifndef   __RESTRICT
 114:CMSIS/Core/Include/cmsis_gcc.h ****   #define __RESTRICT                             __restrict
 115:CMSIS/Core/Include/cmsis_gcc.h **** #endif
 116:CMSIS/Core/Include/cmsis_gcc.h **** 
 117:CMSIS/Core/Include/cmsis_gcc.h **** 
 118:CMSIS/Core/Include/cmsis_gcc.h **** /* ###########################  Core Function Access  ########################### */
 119:CMSIS/Core/Include/cmsis_gcc.h **** /** \ingroup  CMSIS_Core_FunctionInterface
ARM GAS  C:\Users\katre\AppData\Local\Temp\ccyg67t2.s 			page 25


 120:CMSIS/Core/Include/cmsis_gcc.h ****     \defgroup CMSIS_Core_RegAccFunctions CMSIS Core Register Access Functions
 121:CMSIS/Core/Include/cmsis_gcc.h ****   @{
 122:CMSIS/Core/Include/cmsis_gcc.h ****  */
 123:CMSIS/Core/Include/cmsis_gcc.h **** 
 124:CMSIS/Core/Include/cmsis_gcc.h **** /**
 125:CMSIS/Core/Include/cmsis_gcc.h ****   \brief   Enable IRQ Interrupts
 126:CMSIS/Core/Include/cmsis_gcc.h ****   \details Enables IRQ interrupts by clearing the I-bit in the CPSR.
 127:CMSIS/Core/Include/cmsis_gcc.h ****            Can only be executed in Privileged modes.
 128:CMSIS/Core/Include/cmsis_gcc.h ****  */
 129:CMSIS/Core/Include/cmsis_gcc.h **** __STATIC_FORCEINLINE void __enable_irq(void)
 130:CMSIS/Core/Include/cmsis_gcc.h **** {
 131:CMSIS/Core/Include/cmsis_gcc.h ****   __ASM volatile ("cpsie i" : : : "memory");
 132:CMSIS/Core/Include/cmsis_gcc.h **** }
 133:CMSIS/Core/Include/cmsis_gcc.h **** 
 134:CMSIS/Core/Include/cmsis_gcc.h **** 
 135:CMSIS/Core/Include/cmsis_gcc.h **** /**
 136:CMSIS/Core/Include/cmsis_gcc.h ****   \brief   Disable IRQ Interrupts
 137:CMSIS/Core/Include/cmsis_gcc.h ****   \details Disables IRQ interrupts by setting the I-bit in the CPSR.
 138:CMSIS/Core/Include/cmsis_gcc.h ****            Can only be executed in Privileged modes.
 139:CMSIS/Core/Include/cmsis_gcc.h ****  */
 140:CMSIS/Core/Include/cmsis_gcc.h **** __STATIC_FORCEINLINE void __disable_irq(void)
 141:CMSIS/Core/Include/cmsis_gcc.h **** {
 142:CMSIS/Core/Include/cmsis_gcc.h ****   __ASM volatile ("cpsid i" : : : "memory");
 143:CMSIS/Core/Include/cmsis_gcc.h **** }
 144:CMSIS/Core/Include/cmsis_gcc.h **** 
 145:CMSIS/Core/Include/cmsis_gcc.h **** 
 146:CMSIS/Core/Include/cmsis_gcc.h **** /**
 147:CMSIS/Core/Include/cmsis_gcc.h ****   \brief   Get Control Register
 148:CMSIS/Core/Include/cmsis_gcc.h ****   \details Returns the content of the Control Register.
 149:CMSIS/Core/Include/cmsis_gcc.h ****   \return               Control Register value
 150:CMSIS/Core/Include/cmsis_gcc.h ****  */
 151:CMSIS/Core/Include/cmsis_gcc.h **** __STATIC_FORCEINLINE uint32_t __get_CONTROL(void)
 152:CMSIS/Core/Include/cmsis_gcc.h **** {
 153:CMSIS/Core/Include/cmsis_gcc.h ****   uint32_t result;
 154:CMSIS/Core/Include/cmsis_gcc.h **** 
 155:CMSIS/Core/Include/cmsis_gcc.h ****   __ASM volatile ("MRS %0, control" : "=r" (result) );
 156:CMSIS/Core/Include/cmsis_gcc.h ****   return(result);
 157:CMSIS/Core/Include/cmsis_gcc.h **** }
 158:CMSIS/Core/Include/cmsis_gcc.h **** 
 159:CMSIS/Core/Include/cmsis_gcc.h **** 
 160:CMSIS/Core/Include/cmsis_gcc.h **** #if (defined (__ARM_FEATURE_CMSE ) && (__ARM_FEATURE_CMSE == 3))
 161:CMSIS/Core/Include/cmsis_gcc.h **** /**
 162:CMSIS/Core/Include/cmsis_gcc.h ****   \brief   Get Control Register (non-secure)
 163:CMSIS/Core/Include/cmsis_gcc.h ****   \details Returns the content of the non-secure Control Register when in secure mode.
 164:CMSIS/Core/Include/cmsis_gcc.h ****   \return               non-secure Control Register value
 165:CMSIS/Core/Include/cmsis_gcc.h ****  */
 166:CMSIS/Core/Include/cmsis_gcc.h **** __STATIC_FORCEINLINE uint32_t __TZ_get_CONTROL_NS(void)
 167:CMSIS/Core/Include/cmsis_gcc.h **** {
 168:CMSIS/Core/Include/cmsis_gcc.h ****   uint32_t result;
 169:CMSIS/Core/Include/cmsis_gcc.h **** 
 170:CMSIS/Core/Include/cmsis_gcc.h ****   __ASM volatile ("MRS %0, control_ns" : "=r" (result) );
 171:CMSIS/Core/Include/cmsis_gcc.h ****   return(result);
 172:CMSIS/Core/Include/cmsis_gcc.h **** }
 173:CMSIS/Core/Include/cmsis_gcc.h **** #endif
 174:CMSIS/Core/Include/cmsis_gcc.h **** 
 175:CMSIS/Core/Include/cmsis_gcc.h **** 
 176:CMSIS/Core/Include/cmsis_gcc.h **** /**
ARM GAS  C:\Users\katre\AppData\Local\Temp\ccyg67t2.s 			page 26


 177:CMSIS/Core/Include/cmsis_gcc.h ****   \brief   Set Control Register
 178:CMSIS/Core/Include/cmsis_gcc.h ****   \details Writes the given value to the Control Register.
 179:CMSIS/Core/Include/cmsis_gcc.h ****   \param [in]    control  Control Register value to set
 180:CMSIS/Core/Include/cmsis_gcc.h ****  */
 181:CMSIS/Core/Include/cmsis_gcc.h **** __STATIC_FORCEINLINE void __set_CONTROL(uint32_t control)
 182:CMSIS/Core/Include/cmsis_gcc.h **** {
 183:CMSIS/Core/Include/cmsis_gcc.h ****   __ASM volatile ("MSR control, %0" : : "r" (control) : "memory");
 184:CMSIS/Core/Include/cmsis_gcc.h **** }
 185:CMSIS/Core/Include/cmsis_gcc.h **** 
 186:CMSIS/Core/Include/cmsis_gcc.h **** 
 187:CMSIS/Core/Include/cmsis_gcc.h **** #if (defined (__ARM_FEATURE_CMSE ) && (__ARM_FEATURE_CMSE == 3))
 188:CMSIS/Core/Include/cmsis_gcc.h **** /**
 189:CMSIS/Core/Include/cmsis_gcc.h ****   \brief   Set Control Register (non-secure)
 190:CMSIS/Core/Include/cmsis_gcc.h ****   \details Writes the given value to the non-secure Control Register when in secure state.
 191:CMSIS/Core/Include/cmsis_gcc.h ****   \param [in]    control  Control Register value to set
 192:CMSIS/Core/Include/cmsis_gcc.h ****  */
 193:CMSIS/Core/Include/cmsis_gcc.h **** __STATIC_FORCEINLINE void __TZ_set_CONTROL_NS(uint32_t control)
 194:CMSIS/Core/Include/cmsis_gcc.h **** {
 195:CMSIS/Core/Include/cmsis_gcc.h ****   __ASM volatile ("MSR control_ns, %0" : : "r" (control) : "memory");
 196:CMSIS/Core/Include/cmsis_gcc.h **** }
 197:CMSIS/Core/Include/cmsis_gcc.h **** #endif
 198:CMSIS/Core/Include/cmsis_gcc.h **** 
 199:CMSIS/Core/Include/cmsis_gcc.h **** 
 200:CMSIS/Core/Include/cmsis_gcc.h **** /**
 201:CMSIS/Core/Include/cmsis_gcc.h ****   \brief   Get IPSR Register
 202:CMSIS/Core/Include/cmsis_gcc.h ****   \details Returns the content of the IPSR Register.
 203:CMSIS/Core/Include/cmsis_gcc.h ****   \return               IPSR Register value
 204:CMSIS/Core/Include/cmsis_gcc.h ****  */
 205:CMSIS/Core/Include/cmsis_gcc.h **** __STATIC_FORCEINLINE uint32_t __get_IPSR(void)
 206:CMSIS/Core/Include/cmsis_gcc.h **** {
 207:CMSIS/Core/Include/cmsis_gcc.h ****   uint32_t result;
 208:CMSIS/Core/Include/cmsis_gcc.h **** 
 209:CMSIS/Core/Include/cmsis_gcc.h ****   __ASM volatile ("MRS %0, ipsr" : "=r" (result) );
 210:CMSIS/Core/Include/cmsis_gcc.h ****   return(result);
 211:CMSIS/Core/Include/cmsis_gcc.h **** }
 212:CMSIS/Core/Include/cmsis_gcc.h **** 
 213:CMSIS/Core/Include/cmsis_gcc.h **** 
 214:CMSIS/Core/Include/cmsis_gcc.h **** /**
 215:CMSIS/Core/Include/cmsis_gcc.h ****   \brief   Get APSR Register
 216:CMSIS/Core/Include/cmsis_gcc.h ****   \details Returns the content of the APSR Register.
 217:CMSIS/Core/Include/cmsis_gcc.h ****   \return               APSR Register value
 218:CMSIS/Core/Include/cmsis_gcc.h ****  */
 219:CMSIS/Core/Include/cmsis_gcc.h **** __STATIC_FORCEINLINE uint32_t __get_APSR(void)
 220:CMSIS/Core/Include/cmsis_gcc.h **** {
 221:CMSIS/Core/Include/cmsis_gcc.h ****   uint32_t result;
 222:CMSIS/Core/Include/cmsis_gcc.h **** 
 223:CMSIS/Core/Include/cmsis_gcc.h ****   __ASM volatile ("MRS %0, apsr" : "=r" (result) );
 224:CMSIS/Core/Include/cmsis_gcc.h ****   return(result);
 225:CMSIS/Core/Include/cmsis_gcc.h **** }
 226:CMSIS/Core/Include/cmsis_gcc.h **** 
 227:CMSIS/Core/Include/cmsis_gcc.h **** 
 228:CMSIS/Core/Include/cmsis_gcc.h **** /**
 229:CMSIS/Core/Include/cmsis_gcc.h ****   \brief   Get xPSR Register
 230:CMSIS/Core/Include/cmsis_gcc.h ****   \details Returns the content of the xPSR Register.
 231:CMSIS/Core/Include/cmsis_gcc.h ****   \return               xPSR Register value
 232:CMSIS/Core/Include/cmsis_gcc.h ****  */
 233:CMSIS/Core/Include/cmsis_gcc.h **** __STATIC_FORCEINLINE uint32_t __get_xPSR(void)
ARM GAS  C:\Users\katre\AppData\Local\Temp\ccyg67t2.s 			page 27


 234:CMSIS/Core/Include/cmsis_gcc.h **** {
 235:CMSIS/Core/Include/cmsis_gcc.h ****   uint32_t result;
 236:CMSIS/Core/Include/cmsis_gcc.h **** 
 237:CMSIS/Core/Include/cmsis_gcc.h ****   __ASM volatile ("MRS %0, xpsr" : "=r" (result) );
 238:CMSIS/Core/Include/cmsis_gcc.h ****   return(result);
 239:CMSIS/Core/Include/cmsis_gcc.h **** }
 240:CMSIS/Core/Include/cmsis_gcc.h **** 
 241:CMSIS/Core/Include/cmsis_gcc.h **** 
 242:CMSIS/Core/Include/cmsis_gcc.h **** /**
 243:CMSIS/Core/Include/cmsis_gcc.h ****   \brief   Get Process Stack Pointer
 244:CMSIS/Core/Include/cmsis_gcc.h ****   \details Returns the current value of the Process Stack Pointer (PSP).
 245:CMSIS/Core/Include/cmsis_gcc.h ****   \return               PSP Register value
 246:CMSIS/Core/Include/cmsis_gcc.h ****  */
 247:CMSIS/Core/Include/cmsis_gcc.h **** __STATIC_FORCEINLINE uint32_t __get_PSP(void)
 248:CMSIS/Core/Include/cmsis_gcc.h **** {
 249:CMSIS/Core/Include/cmsis_gcc.h ****   uint32_t result;
 250:CMSIS/Core/Include/cmsis_gcc.h **** 
 251:CMSIS/Core/Include/cmsis_gcc.h ****   __ASM volatile ("MRS %0, psp"  : "=r" (result) );
 252:CMSIS/Core/Include/cmsis_gcc.h ****   return(result);
 253:CMSIS/Core/Include/cmsis_gcc.h **** }
 254:CMSIS/Core/Include/cmsis_gcc.h **** 
 255:CMSIS/Core/Include/cmsis_gcc.h **** 
 256:CMSIS/Core/Include/cmsis_gcc.h **** #if (defined (__ARM_FEATURE_CMSE ) && (__ARM_FEATURE_CMSE == 3))
 257:CMSIS/Core/Include/cmsis_gcc.h **** /**
 258:CMSIS/Core/Include/cmsis_gcc.h ****   \brief   Get Process Stack Pointer (non-secure)
 259:CMSIS/Core/Include/cmsis_gcc.h ****   \details Returns the current value of the non-secure Process Stack Pointer (PSP) when in secure s
 260:CMSIS/Core/Include/cmsis_gcc.h ****   \return               PSP Register value
 261:CMSIS/Core/Include/cmsis_gcc.h ****  */
 262:CMSIS/Core/Include/cmsis_gcc.h **** __STATIC_FORCEINLINE uint32_t __TZ_get_PSP_NS(void)
 263:CMSIS/Core/Include/cmsis_gcc.h **** {
 264:CMSIS/Core/Include/cmsis_gcc.h ****   uint32_t result;
 265:CMSIS/Core/Include/cmsis_gcc.h **** 
 266:CMSIS/Core/Include/cmsis_gcc.h ****   __ASM volatile ("MRS %0, psp_ns"  : "=r" (result) );
 267:CMSIS/Core/Include/cmsis_gcc.h ****   return(result);
 268:CMSIS/Core/Include/cmsis_gcc.h **** }
 269:CMSIS/Core/Include/cmsis_gcc.h **** #endif
 270:CMSIS/Core/Include/cmsis_gcc.h **** 
 271:CMSIS/Core/Include/cmsis_gcc.h **** 
 272:CMSIS/Core/Include/cmsis_gcc.h **** /**
 273:CMSIS/Core/Include/cmsis_gcc.h ****   \brief   Set Process Stack Pointer
 274:CMSIS/Core/Include/cmsis_gcc.h ****   \details Assigns the given value to the Process Stack Pointer (PSP).
 275:CMSIS/Core/Include/cmsis_gcc.h ****   \param [in]    topOfProcStack  Process Stack Pointer value to set
 276:CMSIS/Core/Include/cmsis_gcc.h ****  */
 277:CMSIS/Core/Include/cmsis_gcc.h **** __STATIC_FORCEINLINE void __set_PSP(uint32_t topOfProcStack)
 278:CMSIS/Core/Include/cmsis_gcc.h **** {
 279:CMSIS/Core/Include/cmsis_gcc.h ****   __ASM volatile ("MSR psp, %0" : : "r" (topOfProcStack) : );
 280:CMSIS/Core/Include/cmsis_gcc.h **** }
 281:CMSIS/Core/Include/cmsis_gcc.h **** 
 282:CMSIS/Core/Include/cmsis_gcc.h **** 
 283:CMSIS/Core/Include/cmsis_gcc.h **** #if (defined (__ARM_FEATURE_CMSE ) && (__ARM_FEATURE_CMSE == 3))
 284:CMSIS/Core/Include/cmsis_gcc.h **** /**
 285:CMSIS/Core/Include/cmsis_gcc.h ****   \brief   Set Process Stack Pointer (non-secure)
 286:CMSIS/Core/Include/cmsis_gcc.h ****   \details Assigns the given value to the non-secure Process Stack Pointer (PSP) when in secure sta
 287:CMSIS/Core/Include/cmsis_gcc.h ****   \param [in]    topOfProcStack  Process Stack Pointer value to set
 288:CMSIS/Core/Include/cmsis_gcc.h ****  */
 289:CMSIS/Core/Include/cmsis_gcc.h **** __STATIC_FORCEINLINE void __TZ_set_PSP_NS(uint32_t topOfProcStack)
 290:CMSIS/Core/Include/cmsis_gcc.h **** {
ARM GAS  C:\Users\katre\AppData\Local\Temp\ccyg67t2.s 			page 28


 291:CMSIS/Core/Include/cmsis_gcc.h ****   __ASM volatile ("MSR psp_ns, %0" : : "r" (topOfProcStack) : );
 292:CMSIS/Core/Include/cmsis_gcc.h **** }
 293:CMSIS/Core/Include/cmsis_gcc.h **** #endif
 294:CMSIS/Core/Include/cmsis_gcc.h **** 
 295:CMSIS/Core/Include/cmsis_gcc.h **** 
 296:CMSIS/Core/Include/cmsis_gcc.h **** /**
 297:CMSIS/Core/Include/cmsis_gcc.h ****   \brief   Get Main Stack Pointer
 298:CMSIS/Core/Include/cmsis_gcc.h ****   \details Returns the current value of the Main Stack Pointer (MSP).
 299:CMSIS/Core/Include/cmsis_gcc.h ****   \return               MSP Register value
 300:CMSIS/Core/Include/cmsis_gcc.h ****  */
 301:CMSIS/Core/Include/cmsis_gcc.h **** __STATIC_FORCEINLINE uint32_t __get_MSP(void)
 302:CMSIS/Core/Include/cmsis_gcc.h **** {
 303:CMSIS/Core/Include/cmsis_gcc.h ****   uint32_t result;
 304:CMSIS/Core/Include/cmsis_gcc.h **** 
 305:CMSIS/Core/Include/cmsis_gcc.h ****   __ASM volatile ("MRS %0, msp" : "=r" (result) );
 306:CMSIS/Core/Include/cmsis_gcc.h ****   return(result);
 307:CMSIS/Core/Include/cmsis_gcc.h **** }
 308:CMSIS/Core/Include/cmsis_gcc.h **** 
 309:CMSIS/Core/Include/cmsis_gcc.h **** 
 310:CMSIS/Core/Include/cmsis_gcc.h **** #if (defined (__ARM_FEATURE_CMSE ) && (__ARM_FEATURE_CMSE == 3))
 311:CMSIS/Core/Include/cmsis_gcc.h **** /**
 312:CMSIS/Core/Include/cmsis_gcc.h ****   \brief   Get Main Stack Pointer (non-secure)
 313:CMSIS/Core/Include/cmsis_gcc.h ****   \details Returns the current value of the non-secure Main Stack Pointer (MSP) when in secure stat
 314:CMSIS/Core/Include/cmsis_gcc.h ****   \return               MSP Register value
 315:CMSIS/Core/Include/cmsis_gcc.h ****  */
 316:CMSIS/Core/Include/cmsis_gcc.h **** __STATIC_FORCEINLINE uint32_t __TZ_get_MSP_NS(void)
 317:CMSIS/Core/Include/cmsis_gcc.h **** {
 318:CMSIS/Core/Include/cmsis_gcc.h ****   uint32_t result;
 319:CMSIS/Core/Include/cmsis_gcc.h **** 
 320:CMSIS/Core/Include/cmsis_gcc.h ****   __ASM volatile ("MRS %0, msp_ns" : "=r" (result) );
 321:CMSIS/Core/Include/cmsis_gcc.h ****   return(result);
 322:CMSIS/Core/Include/cmsis_gcc.h **** }
 323:CMSIS/Core/Include/cmsis_gcc.h **** #endif
 324:CMSIS/Core/Include/cmsis_gcc.h **** 
 325:CMSIS/Core/Include/cmsis_gcc.h **** 
 326:CMSIS/Core/Include/cmsis_gcc.h **** /**
 327:CMSIS/Core/Include/cmsis_gcc.h ****   \brief   Set Main Stack Pointer
 328:CMSIS/Core/Include/cmsis_gcc.h ****   \details Assigns the given value to the Main Stack Pointer (MSP).
 329:CMSIS/Core/Include/cmsis_gcc.h ****   \param [in]    topOfMainStack  Main Stack Pointer value to set
 330:CMSIS/Core/Include/cmsis_gcc.h ****  */
 331:CMSIS/Core/Include/cmsis_gcc.h **** __STATIC_FORCEINLINE void __set_MSP(uint32_t topOfMainStack)
 332:CMSIS/Core/Include/cmsis_gcc.h **** {
 333:CMSIS/Core/Include/cmsis_gcc.h ****   __ASM volatile ("MSR msp, %0" : : "r" (topOfMainStack) : );
 334:CMSIS/Core/Include/cmsis_gcc.h **** }
 335:CMSIS/Core/Include/cmsis_gcc.h **** 
 336:CMSIS/Core/Include/cmsis_gcc.h **** 
 337:CMSIS/Core/Include/cmsis_gcc.h **** #if (defined (__ARM_FEATURE_CMSE ) && (__ARM_FEATURE_CMSE == 3))
 338:CMSIS/Core/Include/cmsis_gcc.h **** /**
 339:CMSIS/Core/Include/cmsis_gcc.h ****   \brief   Set Main Stack Pointer (non-secure)
 340:CMSIS/Core/Include/cmsis_gcc.h ****   \details Assigns the given value to the non-secure Main Stack Pointer (MSP) when in secure state.
 341:CMSIS/Core/Include/cmsis_gcc.h ****   \param [in]    topOfMainStack  Main Stack Pointer value to set
 342:CMSIS/Core/Include/cmsis_gcc.h ****  */
 343:CMSIS/Core/Include/cmsis_gcc.h **** __STATIC_FORCEINLINE void __TZ_set_MSP_NS(uint32_t topOfMainStack)
 344:CMSIS/Core/Include/cmsis_gcc.h **** {
 345:CMSIS/Core/Include/cmsis_gcc.h ****   __ASM volatile ("MSR msp_ns, %0" : : "r" (topOfMainStack) : );
 346:CMSIS/Core/Include/cmsis_gcc.h **** }
 347:CMSIS/Core/Include/cmsis_gcc.h **** #endif
ARM GAS  C:\Users\katre\AppData\Local\Temp\ccyg67t2.s 			page 29


 348:CMSIS/Core/Include/cmsis_gcc.h **** 
 349:CMSIS/Core/Include/cmsis_gcc.h **** 
 350:CMSIS/Core/Include/cmsis_gcc.h **** #if (defined (__ARM_FEATURE_CMSE ) && (__ARM_FEATURE_CMSE == 3))
 351:CMSIS/Core/Include/cmsis_gcc.h **** /**
 352:CMSIS/Core/Include/cmsis_gcc.h ****   \brief   Get Stack Pointer (non-secure)
 353:CMSIS/Core/Include/cmsis_gcc.h ****   \details Returns the current value of the non-secure Stack Pointer (SP) when in secure state.
 354:CMSIS/Core/Include/cmsis_gcc.h ****   \return               SP Register value
 355:CMSIS/Core/Include/cmsis_gcc.h ****  */
 356:CMSIS/Core/Include/cmsis_gcc.h **** __STATIC_FORCEINLINE uint32_t __TZ_get_SP_NS(void)
 357:CMSIS/Core/Include/cmsis_gcc.h **** {
 358:CMSIS/Core/Include/cmsis_gcc.h ****   uint32_t result;
 359:CMSIS/Core/Include/cmsis_gcc.h **** 
 360:CMSIS/Core/Include/cmsis_gcc.h ****   __ASM volatile ("MRS %0, sp_ns" : "=r" (result) );
 361:CMSIS/Core/Include/cmsis_gcc.h ****   return(result);
 362:CMSIS/Core/Include/cmsis_gcc.h **** }
 363:CMSIS/Core/Include/cmsis_gcc.h **** 
 364:CMSIS/Core/Include/cmsis_gcc.h **** 
 365:CMSIS/Core/Include/cmsis_gcc.h **** /**
 366:CMSIS/Core/Include/cmsis_gcc.h ****   \brief   Set Stack Pointer (non-secure)
 367:CMSIS/Core/Include/cmsis_gcc.h ****   \details Assigns the given value to the non-secure Stack Pointer (SP) when in secure state.
 368:CMSIS/Core/Include/cmsis_gcc.h ****   \param [in]    topOfStack  Stack Pointer value to set
 369:CMSIS/Core/Include/cmsis_gcc.h ****  */
 370:CMSIS/Core/Include/cmsis_gcc.h **** __STATIC_FORCEINLINE void __TZ_set_SP_NS(uint32_t topOfStack)
 371:CMSIS/Core/Include/cmsis_gcc.h **** {
 372:CMSIS/Core/Include/cmsis_gcc.h ****   __ASM volatile ("MSR sp_ns, %0" : : "r" (topOfStack) : );
 373:CMSIS/Core/Include/cmsis_gcc.h **** }
 374:CMSIS/Core/Include/cmsis_gcc.h **** #endif
 375:CMSIS/Core/Include/cmsis_gcc.h **** 
 376:CMSIS/Core/Include/cmsis_gcc.h **** 
 377:CMSIS/Core/Include/cmsis_gcc.h **** /**
 378:CMSIS/Core/Include/cmsis_gcc.h ****   \brief   Get Priority Mask
 379:CMSIS/Core/Include/cmsis_gcc.h ****   \details Returns the current state of the priority mask bit from the Priority Mask Register.
 380:CMSIS/Core/Include/cmsis_gcc.h ****   \return               Priority Mask value
 381:CMSIS/Core/Include/cmsis_gcc.h ****  */
 382:CMSIS/Core/Include/cmsis_gcc.h **** __STATIC_FORCEINLINE uint32_t __get_PRIMASK(void)
 383:CMSIS/Core/Include/cmsis_gcc.h **** {
 384:CMSIS/Core/Include/cmsis_gcc.h ****   uint32_t result;
 385:CMSIS/Core/Include/cmsis_gcc.h **** 
 386:CMSIS/Core/Include/cmsis_gcc.h ****   __ASM volatile ("MRS %0, primask" : "=r" (result) :: "memory");
 387:CMSIS/Core/Include/cmsis_gcc.h ****   return(result);
 388:CMSIS/Core/Include/cmsis_gcc.h **** }
 389:CMSIS/Core/Include/cmsis_gcc.h **** 
 390:CMSIS/Core/Include/cmsis_gcc.h **** 
 391:CMSIS/Core/Include/cmsis_gcc.h **** #if (defined (__ARM_FEATURE_CMSE ) && (__ARM_FEATURE_CMSE == 3))
 392:CMSIS/Core/Include/cmsis_gcc.h **** /**
 393:CMSIS/Core/Include/cmsis_gcc.h ****   \brief   Get Priority Mask (non-secure)
 394:CMSIS/Core/Include/cmsis_gcc.h ****   \details Returns the current state of the non-secure priority mask bit from the Priority Mask Reg
 395:CMSIS/Core/Include/cmsis_gcc.h ****   \return               Priority Mask value
 396:CMSIS/Core/Include/cmsis_gcc.h ****  */
 397:CMSIS/Core/Include/cmsis_gcc.h **** __STATIC_FORCEINLINE uint32_t __TZ_get_PRIMASK_NS(void)
 398:CMSIS/Core/Include/cmsis_gcc.h **** {
 399:CMSIS/Core/Include/cmsis_gcc.h ****   uint32_t result;
 400:CMSIS/Core/Include/cmsis_gcc.h **** 
 401:CMSIS/Core/Include/cmsis_gcc.h ****   __ASM volatile ("MRS %0, primask_ns" : "=r" (result) :: "memory");
 402:CMSIS/Core/Include/cmsis_gcc.h ****   return(result);
 403:CMSIS/Core/Include/cmsis_gcc.h **** }
 404:CMSIS/Core/Include/cmsis_gcc.h **** #endif
ARM GAS  C:\Users\katre\AppData\Local\Temp\ccyg67t2.s 			page 30


 405:CMSIS/Core/Include/cmsis_gcc.h **** 
 406:CMSIS/Core/Include/cmsis_gcc.h **** 
 407:CMSIS/Core/Include/cmsis_gcc.h **** /**
 408:CMSIS/Core/Include/cmsis_gcc.h ****   \brief   Set Priority Mask
 409:CMSIS/Core/Include/cmsis_gcc.h ****   \details Assigns the given value to the Priority Mask Register.
 410:CMSIS/Core/Include/cmsis_gcc.h ****   \param [in]    priMask  Priority Mask
 411:CMSIS/Core/Include/cmsis_gcc.h ****  */
 412:CMSIS/Core/Include/cmsis_gcc.h **** __STATIC_FORCEINLINE void __set_PRIMASK(uint32_t priMask)
 413:CMSIS/Core/Include/cmsis_gcc.h **** {
 414:CMSIS/Core/Include/cmsis_gcc.h ****   __ASM volatile ("MSR primask, %0" : : "r" (priMask) : "memory");
 415:CMSIS/Core/Include/cmsis_gcc.h **** }
 416:CMSIS/Core/Include/cmsis_gcc.h **** 
 417:CMSIS/Core/Include/cmsis_gcc.h **** 
 418:CMSIS/Core/Include/cmsis_gcc.h **** #if (defined (__ARM_FEATURE_CMSE ) && (__ARM_FEATURE_CMSE == 3))
 419:CMSIS/Core/Include/cmsis_gcc.h **** /**
 420:CMSIS/Core/Include/cmsis_gcc.h ****   \brief   Set Priority Mask (non-secure)
 421:CMSIS/Core/Include/cmsis_gcc.h ****   \details Assigns the given value to the non-secure Priority Mask Register when in secure state.
 422:CMSIS/Core/Include/cmsis_gcc.h ****   \param [in]    priMask  Priority Mask
 423:CMSIS/Core/Include/cmsis_gcc.h ****  */
 424:CMSIS/Core/Include/cmsis_gcc.h **** __STATIC_FORCEINLINE void __TZ_set_PRIMASK_NS(uint32_t priMask)
 425:CMSIS/Core/Include/cmsis_gcc.h **** {
 426:CMSIS/Core/Include/cmsis_gcc.h ****   __ASM volatile ("MSR primask_ns, %0" : : "r" (priMask) : "memory");
 427:CMSIS/Core/Include/cmsis_gcc.h **** }
 428:CMSIS/Core/Include/cmsis_gcc.h **** #endif
 429:CMSIS/Core/Include/cmsis_gcc.h **** 
 430:CMSIS/Core/Include/cmsis_gcc.h **** 
 431:CMSIS/Core/Include/cmsis_gcc.h **** #if ((defined (__ARM_ARCH_7M__      ) && (__ARM_ARCH_7M__      == 1)) || \
 432:CMSIS/Core/Include/cmsis_gcc.h ****      (defined (__ARM_ARCH_7EM__     ) && (__ARM_ARCH_7EM__     == 1)) || \
 433:CMSIS/Core/Include/cmsis_gcc.h ****      (defined (__ARM_ARCH_8M_MAIN__ ) && (__ARM_ARCH_8M_MAIN__ == 1))    )
 434:CMSIS/Core/Include/cmsis_gcc.h **** /**
 435:CMSIS/Core/Include/cmsis_gcc.h ****   \brief   Enable FIQ
 436:CMSIS/Core/Include/cmsis_gcc.h ****   \details Enables FIQ interrupts by clearing the F-bit in the CPSR.
 437:CMSIS/Core/Include/cmsis_gcc.h ****            Can only be executed in Privileged modes.
 438:CMSIS/Core/Include/cmsis_gcc.h ****  */
 439:CMSIS/Core/Include/cmsis_gcc.h **** __STATIC_FORCEINLINE void __enable_fault_irq(void)
 440:CMSIS/Core/Include/cmsis_gcc.h **** {
 441:CMSIS/Core/Include/cmsis_gcc.h ****   __ASM volatile ("cpsie f" : : : "memory");
 442:CMSIS/Core/Include/cmsis_gcc.h **** }
 443:CMSIS/Core/Include/cmsis_gcc.h **** 
 444:CMSIS/Core/Include/cmsis_gcc.h **** 
 445:CMSIS/Core/Include/cmsis_gcc.h **** /**
 446:CMSIS/Core/Include/cmsis_gcc.h ****   \brief   Disable FIQ
 447:CMSIS/Core/Include/cmsis_gcc.h ****   \details Disables FIQ interrupts by setting the F-bit in the CPSR.
 448:CMSIS/Core/Include/cmsis_gcc.h ****            Can only be executed in Privileged modes.
 449:CMSIS/Core/Include/cmsis_gcc.h ****  */
 450:CMSIS/Core/Include/cmsis_gcc.h **** __STATIC_FORCEINLINE void __disable_fault_irq(void)
 451:CMSIS/Core/Include/cmsis_gcc.h **** {
 452:CMSIS/Core/Include/cmsis_gcc.h ****   __ASM volatile ("cpsid f" : : : "memory");
 453:CMSIS/Core/Include/cmsis_gcc.h **** }
 454:CMSIS/Core/Include/cmsis_gcc.h **** 
 455:CMSIS/Core/Include/cmsis_gcc.h **** 
 456:CMSIS/Core/Include/cmsis_gcc.h **** /**
 457:CMSIS/Core/Include/cmsis_gcc.h ****   \brief   Get Base Priority
 458:CMSIS/Core/Include/cmsis_gcc.h ****   \details Returns the current value of the Base Priority register.
 459:CMSIS/Core/Include/cmsis_gcc.h ****   \return               Base Priority register value
 460:CMSIS/Core/Include/cmsis_gcc.h ****  */
 461:CMSIS/Core/Include/cmsis_gcc.h **** __STATIC_FORCEINLINE uint32_t __get_BASEPRI(void)
ARM GAS  C:\Users\katre\AppData\Local\Temp\ccyg67t2.s 			page 31


 462:CMSIS/Core/Include/cmsis_gcc.h **** {
 463:CMSIS/Core/Include/cmsis_gcc.h ****   uint32_t result;
 464:CMSIS/Core/Include/cmsis_gcc.h **** 
 465:CMSIS/Core/Include/cmsis_gcc.h ****   __ASM volatile ("MRS %0, basepri" : "=r" (result) );
 466:CMSIS/Core/Include/cmsis_gcc.h ****   return(result);
 467:CMSIS/Core/Include/cmsis_gcc.h **** }
 468:CMSIS/Core/Include/cmsis_gcc.h **** 
 469:CMSIS/Core/Include/cmsis_gcc.h **** 
 470:CMSIS/Core/Include/cmsis_gcc.h **** #if (defined (__ARM_FEATURE_CMSE ) && (__ARM_FEATURE_CMSE == 3))
 471:CMSIS/Core/Include/cmsis_gcc.h **** /**
 472:CMSIS/Core/Include/cmsis_gcc.h ****   \brief   Get Base Priority (non-secure)
 473:CMSIS/Core/Include/cmsis_gcc.h ****   \details Returns the current value of the non-secure Base Priority register when in secure state.
 474:CMSIS/Core/Include/cmsis_gcc.h ****   \return               Base Priority register value
 475:CMSIS/Core/Include/cmsis_gcc.h ****  */
 476:CMSIS/Core/Include/cmsis_gcc.h **** __STATIC_FORCEINLINE uint32_t __TZ_get_BASEPRI_NS(void)
 477:CMSIS/Core/Include/cmsis_gcc.h **** {
 478:CMSIS/Core/Include/cmsis_gcc.h ****   uint32_t result;
 479:CMSIS/Core/Include/cmsis_gcc.h **** 
 480:CMSIS/Core/Include/cmsis_gcc.h ****   __ASM volatile ("MRS %0, basepri_ns" : "=r" (result) );
 481:CMSIS/Core/Include/cmsis_gcc.h ****   return(result);
 482:CMSIS/Core/Include/cmsis_gcc.h **** }
 483:CMSIS/Core/Include/cmsis_gcc.h **** #endif
 484:CMSIS/Core/Include/cmsis_gcc.h **** 
 485:CMSIS/Core/Include/cmsis_gcc.h **** 
 486:CMSIS/Core/Include/cmsis_gcc.h **** /**
 487:CMSIS/Core/Include/cmsis_gcc.h ****   \brief   Set Base Priority
 488:CMSIS/Core/Include/cmsis_gcc.h ****   \details Assigns the given value to the Base Priority register.
 489:CMSIS/Core/Include/cmsis_gcc.h ****   \param [in]    basePri  Base Priority value to set
 490:CMSIS/Core/Include/cmsis_gcc.h ****  */
 491:CMSIS/Core/Include/cmsis_gcc.h **** __STATIC_FORCEINLINE void __set_BASEPRI(uint32_t basePri)
 492:CMSIS/Core/Include/cmsis_gcc.h **** {
 493:CMSIS/Core/Include/cmsis_gcc.h ****   __ASM volatile ("MSR basepri, %0" : : "r" (basePri) : "memory");
 494:CMSIS/Core/Include/cmsis_gcc.h **** }
 495:CMSIS/Core/Include/cmsis_gcc.h **** 
 496:CMSIS/Core/Include/cmsis_gcc.h **** 
 497:CMSIS/Core/Include/cmsis_gcc.h **** #if (defined (__ARM_FEATURE_CMSE ) && (__ARM_FEATURE_CMSE == 3))
 498:CMSIS/Core/Include/cmsis_gcc.h **** /**
 499:CMSIS/Core/Include/cmsis_gcc.h ****   \brief   Set Base Priority (non-secure)
 500:CMSIS/Core/Include/cmsis_gcc.h ****   \details Assigns the given value to the non-secure Base Priority register when in secure state.
 501:CMSIS/Core/Include/cmsis_gcc.h ****   \param [in]    basePri  Base Priority value to set
 502:CMSIS/Core/Include/cmsis_gcc.h ****  */
 503:CMSIS/Core/Include/cmsis_gcc.h **** __STATIC_FORCEINLINE void __TZ_set_BASEPRI_NS(uint32_t basePri)
 504:CMSIS/Core/Include/cmsis_gcc.h **** {
 505:CMSIS/Core/Include/cmsis_gcc.h ****   __ASM volatile ("MSR basepri_ns, %0" : : "r" (basePri) : "memory");
 506:CMSIS/Core/Include/cmsis_gcc.h **** }
 507:CMSIS/Core/Include/cmsis_gcc.h **** #endif
 508:CMSIS/Core/Include/cmsis_gcc.h **** 
 509:CMSIS/Core/Include/cmsis_gcc.h **** 
 510:CMSIS/Core/Include/cmsis_gcc.h **** /**
 511:CMSIS/Core/Include/cmsis_gcc.h ****   \brief   Set Base Priority with condition
 512:CMSIS/Core/Include/cmsis_gcc.h ****   \details Assigns the given value to the Base Priority register only if BASEPRI masking is disable
 513:CMSIS/Core/Include/cmsis_gcc.h ****            or the new value increases the BASEPRI priority level.
 514:CMSIS/Core/Include/cmsis_gcc.h ****   \param [in]    basePri  Base Priority value to set
 515:CMSIS/Core/Include/cmsis_gcc.h ****  */
 516:CMSIS/Core/Include/cmsis_gcc.h **** __STATIC_FORCEINLINE void __set_BASEPRI_MAX(uint32_t basePri)
 517:CMSIS/Core/Include/cmsis_gcc.h **** {
 518:CMSIS/Core/Include/cmsis_gcc.h ****   __ASM volatile ("MSR basepri_max, %0" : : "r" (basePri) : "memory");
ARM GAS  C:\Users\katre\AppData\Local\Temp\ccyg67t2.s 			page 32


 519:CMSIS/Core/Include/cmsis_gcc.h **** }
 520:CMSIS/Core/Include/cmsis_gcc.h **** 
 521:CMSIS/Core/Include/cmsis_gcc.h **** 
 522:CMSIS/Core/Include/cmsis_gcc.h **** /**
 523:CMSIS/Core/Include/cmsis_gcc.h ****   \brief   Get Fault Mask
 524:CMSIS/Core/Include/cmsis_gcc.h ****   \details Returns the current value of the Fault Mask register.
 525:CMSIS/Core/Include/cmsis_gcc.h ****   \return               Fault Mask register value
 526:CMSIS/Core/Include/cmsis_gcc.h ****  */
 527:CMSIS/Core/Include/cmsis_gcc.h **** __STATIC_FORCEINLINE uint32_t __get_FAULTMASK(void)
 528:CMSIS/Core/Include/cmsis_gcc.h **** {
 529:CMSIS/Core/Include/cmsis_gcc.h ****   uint32_t result;
 530:CMSIS/Core/Include/cmsis_gcc.h **** 
 531:CMSIS/Core/Include/cmsis_gcc.h ****   __ASM volatile ("MRS %0, faultmask" : "=r" (result) );
 532:CMSIS/Core/Include/cmsis_gcc.h ****   return(result);
 533:CMSIS/Core/Include/cmsis_gcc.h **** }
 534:CMSIS/Core/Include/cmsis_gcc.h **** 
 535:CMSIS/Core/Include/cmsis_gcc.h **** 
 536:CMSIS/Core/Include/cmsis_gcc.h **** #if (defined (__ARM_FEATURE_CMSE ) && (__ARM_FEATURE_CMSE == 3))
 537:CMSIS/Core/Include/cmsis_gcc.h **** /**
 538:CMSIS/Core/Include/cmsis_gcc.h ****   \brief   Get Fault Mask (non-secure)
 539:CMSIS/Core/Include/cmsis_gcc.h ****   \details Returns the current value of the non-secure Fault Mask register when in secure state.
 540:CMSIS/Core/Include/cmsis_gcc.h ****   \return               Fault Mask register value
 541:CMSIS/Core/Include/cmsis_gcc.h ****  */
 542:CMSIS/Core/Include/cmsis_gcc.h **** __STATIC_FORCEINLINE uint32_t __TZ_get_FAULTMASK_NS(void)
 543:CMSIS/Core/Include/cmsis_gcc.h **** {
 544:CMSIS/Core/Include/cmsis_gcc.h ****   uint32_t result;
 545:CMSIS/Core/Include/cmsis_gcc.h **** 
 546:CMSIS/Core/Include/cmsis_gcc.h ****   __ASM volatile ("MRS %0, faultmask_ns" : "=r" (result) );
 547:CMSIS/Core/Include/cmsis_gcc.h ****   return(result);
 548:CMSIS/Core/Include/cmsis_gcc.h **** }
 549:CMSIS/Core/Include/cmsis_gcc.h **** #endif
 550:CMSIS/Core/Include/cmsis_gcc.h **** 
 551:CMSIS/Core/Include/cmsis_gcc.h **** 
 552:CMSIS/Core/Include/cmsis_gcc.h **** /**
 553:CMSIS/Core/Include/cmsis_gcc.h ****   \brief   Set Fault Mask
 554:CMSIS/Core/Include/cmsis_gcc.h ****   \details Assigns the given value to the Fault Mask register.
 555:CMSIS/Core/Include/cmsis_gcc.h ****   \param [in]    faultMask  Fault Mask value to set
 556:CMSIS/Core/Include/cmsis_gcc.h ****  */
 557:CMSIS/Core/Include/cmsis_gcc.h **** __STATIC_FORCEINLINE void __set_FAULTMASK(uint32_t faultMask)
 558:CMSIS/Core/Include/cmsis_gcc.h **** {
 559:CMSIS/Core/Include/cmsis_gcc.h ****   __ASM volatile ("MSR faultmask, %0" : : "r" (faultMask) : "memory");
 560:CMSIS/Core/Include/cmsis_gcc.h **** }
 561:CMSIS/Core/Include/cmsis_gcc.h **** 
 562:CMSIS/Core/Include/cmsis_gcc.h **** 
 563:CMSIS/Core/Include/cmsis_gcc.h **** #if (defined (__ARM_FEATURE_CMSE ) && (__ARM_FEATURE_CMSE == 3))
 564:CMSIS/Core/Include/cmsis_gcc.h **** /**
 565:CMSIS/Core/Include/cmsis_gcc.h ****   \brief   Set Fault Mask (non-secure)
 566:CMSIS/Core/Include/cmsis_gcc.h ****   \details Assigns the given value to the non-secure Fault Mask register when in secure state.
 567:CMSIS/Core/Include/cmsis_gcc.h ****   \param [in]    faultMask  Fault Mask value to set
 568:CMSIS/Core/Include/cmsis_gcc.h ****  */
 569:CMSIS/Core/Include/cmsis_gcc.h **** __STATIC_FORCEINLINE void __TZ_set_FAULTMASK_NS(uint32_t faultMask)
 570:CMSIS/Core/Include/cmsis_gcc.h **** {
 571:CMSIS/Core/Include/cmsis_gcc.h ****   __ASM volatile ("MSR faultmask_ns, %0" : : "r" (faultMask) : "memory");
 572:CMSIS/Core/Include/cmsis_gcc.h **** }
 573:CMSIS/Core/Include/cmsis_gcc.h **** #endif
 574:CMSIS/Core/Include/cmsis_gcc.h **** 
 575:CMSIS/Core/Include/cmsis_gcc.h **** #endif /* ((defined (__ARM_ARCH_7M__      ) && (__ARM_ARCH_7M__      == 1)) || \
ARM GAS  C:\Users\katre\AppData\Local\Temp\ccyg67t2.s 			page 33


 576:CMSIS/Core/Include/cmsis_gcc.h ****            (defined (__ARM_ARCH_7EM__     ) && (__ARM_ARCH_7EM__     == 1)) || \
 577:CMSIS/Core/Include/cmsis_gcc.h ****            (defined (__ARM_ARCH_8M_MAIN__ ) && (__ARM_ARCH_8M_MAIN__ == 1))    ) */
 578:CMSIS/Core/Include/cmsis_gcc.h **** 
 579:CMSIS/Core/Include/cmsis_gcc.h **** 
 580:CMSIS/Core/Include/cmsis_gcc.h **** #if ((defined (__ARM_ARCH_8M_MAIN__ ) && (__ARM_ARCH_8M_MAIN__ == 1)) || \
 581:CMSIS/Core/Include/cmsis_gcc.h ****      (defined (__ARM_ARCH_8M_BASE__ ) && (__ARM_ARCH_8M_BASE__ == 1))    )
 582:CMSIS/Core/Include/cmsis_gcc.h **** 
 583:CMSIS/Core/Include/cmsis_gcc.h **** /**
 584:CMSIS/Core/Include/cmsis_gcc.h ****   \brief   Get Process Stack Pointer Limit
 585:CMSIS/Core/Include/cmsis_gcc.h ****   Devices without ARMv8-M Main Extensions (i.e. Cortex-M23) lack the non-secure
 586:CMSIS/Core/Include/cmsis_gcc.h ****   Stack Pointer Limit register hence zero is returned always in non-secure
 587:CMSIS/Core/Include/cmsis_gcc.h ****   mode.
 588:CMSIS/Core/Include/cmsis_gcc.h ****   
 589:CMSIS/Core/Include/cmsis_gcc.h ****   \details Returns the current value of the Process Stack Pointer Limit (PSPLIM).
 590:CMSIS/Core/Include/cmsis_gcc.h ****   \return               PSPLIM Register value
 591:CMSIS/Core/Include/cmsis_gcc.h ****  */
 592:CMSIS/Core/Include/cmsis_gcc.h **** __STATIC_FORCEINLINE uint32_t __get_PSPLIM(void)
 593:CMSIS/Core/Include/cmsis_gcc.h **** {
 594:CMSIS/Core/Include/cmsis_gcc.h **** #if (!(defined (__ARM_ARCH_8M_MAIN__ ) && (__ARM_ARCH_8M_MAIN__ == 1)) && \
 595:CMSIS/Core/Include/cmsis_gcc.h ****     (!defined (__ARM_FEATURE_CMSE) || (__ARM_FEATURE_CMSE < 3)))
 596:CMSIS/Core/Include/cmsis_gcc.h ****     // without main extensions, the non-secure PSPLIM is RAZ/WI
 597:CMSIS/Core/Include/cmsis_gcc.h ****   return 0U;
 598:CMSIS/Core/Include/cmsis_gcc.h **** #else
 599:CMSIS/Core/Include/cmsis_gcc.h ****   uint32_t result;
 600:CMSIS/Core/Include/cmsis_gcc.h ****   __ASM volatile ("MRS %0, psplim"  : "=r" (result) );
 601:CMSIS/Core/Include/cmsis_gcc.h ****   return result;
 602:CMSIS/Core/Include/cmsis_gcc.h **** #endif
 603:CMSIS/Core/Include/cmsis_gcc.h **** }
 604:CMSIS/Core/Include/cmsis_gcc.h **** 
 605:CMSIS/Core/Include/cmsis_gcc.h **** #if (defined (__ARM_FEATURE_CMSE) && (__ARM_FEATURE_CMSE == 3))
 606:CMSIS/Core/Include/cmsis_gcc.h **** /**
 607:CMSIS/Core/Include/cmsis_gcc.h ****   \brief   Get Process Stack Pointer Limit (non-secure)
 608:CMSIS/Core/Include/cmsis_gcc.h ****   Devices without ARMv8-M Main Extensions (i.e. Cortex-M23) lack the non-secure
 609:CMSIS/Core/Include/cmsis_gcc.h ****   Stack Pointer Limit register hence zero is returned always.
 610:CMSIS/Core/Include/cmsis_gcc.h **** 
 611:CMSIS/Core/Include/cmsis_gcc.h ****   \details Returns the current value of the non-secure Process Stack Pointer Limit (PSPLIM) when in
 612:CMSIS/Core/Include/cmsis_gcc.h ****   \return               PSPLIM Register value
 613:CMSIS/Core/Include/cmsis_gcc.h ****  */
 614:CMSIS/Core/Include/cmsis_gcc.h **** __STATIC_FORCEINLINE uint32_t __TZ_get_PSPLIM_NS(void)
 615:CMSIS/Core/Include/cmsis_gcc.h **** {
 616:CMSIS/Core/Include/cmsis_gcc.h **** #if (!(defined (__ARM_ARCH_8M_MAIN__ ) && (__ARM_ARCH_8M_MAIN__ == 1)))
 617:CMSIS/Core/Include/cmsis_gcc.h ****   // without main extensions, the non-secure PSPLIM is RAZ/WI
 618:CMSIS/Core/Include/cmsis_gcc.h ****   return 0U;
 619:CMSIS/Core/Include/cmsis_gcc.h **** #else
 620:CMSIS/Core/Include/cmsis_gcc.h ****   uint32_t result;
 621:CMSIS/Core/Include/cmsis_gcc.h ****   __ASM volatile ("MRS %0, psplim_ns"  : "=r" (result) );
 622:CMSIS/Core/Include/cmsis_gcc.h ****   return result;
 623:CMSIS/Core/Include/cmsis_gcc.h **** #endif
 624:CMSIS/Core/Include/cmsis_gcc.h **** }
 625:CMSIS/Core/Include/cmsis_gcc.h **** #endif
 626:CMSIS/Core/Include/cmsis_gcc.h **** 
 627:CMSIS/Core/Include/cmsis_gcc.h **** 
 628:CMSIS/Core/Include/cmsis_gcc.h **** /**
 629:CMSIS/Core/Include/cmsis_gcc.h ****   \brief   Set Process Stack Pointer Limit
 630:CMSIS/Core/Include/cmsis_gcc.h ****   Devices without ARMv8-M Main Extensions (i.e. Cortex-M23) lack the non-secure
 631:CMSIS/Core/Include/cmsis_gcc.h ****   Stack Pointer Limit register hence the write is silently ignored in non-secure
 632:CMSIS/Core/Include/cmsis_gcc.h ****   mode.
ARM GAS  C:\Users\katre\AppData\Local\Temp\ccyg67t2.s 			page 34


 633:CMSIS/Core/Include/cmsis_gcc.h ****   
 634:CMSIS/Core/Include/cmsis_gcc.h ****   \details Assigns the given value to the Process Stack Pointer Limit (PSPLIM).
 635:CMSIS/Core/Include/cmsis_gcc.h ****   \param [in]    ProcStackPtrLimit  Process Stack Pointer Limit value to set
 636:CMSIS/Core/Include/cmsis_gcc.h ****  */
 637:CMSIS/Core/Include/cmsis_gcc.h **** __STATIC_FORCEINLINE void __set_PSPLIM(uint32_t ProcStackPtrLimit)
 638:CMSIS/Core/Include/cmsis_gcc.h **** {
 639:CMSIS/Core/Include/cmsis_gcc.h **** #if (!(defined (__ARM_ARCH_8M_MAIN__ ) && (__ARM_ARCH_8M_MAIN__ == 1)) && \
 640:CMSIS/Core/Include/cmsis_gcc.h ****     (!defined (__ARM_FEATURE_CMSE) || (__ARM_FEATURE_CMSE < 3)))
 641:CMSIS/Core/Include/cmsis_gcc.h ****   // without main extensions, the non-secure PSPLIM is RAZ/WI
 642:CMSIS/Core/Include/cmsis_gcc.h ****   (void)ProcStackPtrLimit;
 643:CMSIS/Core/Include/cmsis_gcc.h **** #else
 644:CMSIS/Core/Include/cmsis_gcc.h ****   __ASM volatile ("MSR psplim, %0" : : "r" (ProcStackPtrLimit));
 645:CMSIS/Core/Include/cmsis_gcc.h **** #endif
 646:CMSIS/Core/Include/cmsis_gcc.h **** }
 647:CMSIS/Core/Include/cmsis_gcc.h **** 
 648:CMSIS/Core/Include/cmsis_gcc.h **** 
 649:CMSIS/Core/Include/cmsis_gcc.h **** #if (defined (__ARM_FEATURE_CMSE  ) && (__ARM_FEATURE_CMSE   == 3))
 650:CMSIS/Core/Include/cmsis_gcc.h **** /**
 651:CMSIS/Core/Include/cmsis_gcc.h ****   \brief   Set Process Stack Pointer (non-secure)
 652:CMSIS/Core/Include/cmsis_gcc.h ****   Devices without ARMv8-M Main Extensions (i.e. Cortex-M23) lack the non-secure
 653:CMSIS/Core/Include/cmsis_gcc.h ****   Stack Pointer Limit register hence the write is silently ignored.
 654:CMSIS/Core/Include/cmsis_gcc.h **** 
 655:CMSIS/Core/Include/cmsis_gcc.h ****   \details Assigns the given value to the non-secure Process Stack Pointer Limit (PSPLIM) when in s
 656:CMSIS/Core/Include/cmsis_gcc.h ****   \param [in]    ProcStackPtrLimit  Process Stack Pointer Limit value to set
 657:CMSIS/Core/Include/cmsis_gcc.h ****  */
 658:CMSIS/Core/Include/cmsis_gcc.h **** __STATIC_FORCEINLINE void __TZ_set_PSPLIM_NS(uint32_t ProcStackPtrLimit)
 659:CMSIS/Core/Include/cmsis_gcc.h **** {
 660:CMSIS/Core/Include/cmsis_gcc.h **** #if (!(defined (__ARM_ARCH_8M_MAIN__ ) && (__ARM_ARCH_8M_MAIN__ == 1)))
 661:CMSIS/Core/Include/cmsis_gcc.h ****   // without main extensions, the non-secure PSPLIM is RAZ/WI
 662:CMSIS/Core/Include/cmsis_gcc.h ****   (void)ProcStackPtrLimit;
 663:CMSIS/Core/Include/cmsis_gcc.h **** #else
 664:CMSIS/Core/Include/cmsis_gcc.h ****   __ASM volatile ("MSR psplim_ns, %0\n" : : "r" (ProcStackPtrLimit));
 665:CMSIS/Core/Include/cmsis_gcc.h **** #endif
 666:CMSIS/Core/Include/cmsis_gcc.h **** }
 667:CMSIS/Core/Include/cmsis_gcc.h **** #endif
 668:CMSIS/Core/Include/cmsis_gcc.h **** 
 669:CMSIS/Core/Include/cmsis_gcc.h **** 
 670:CMSIS/Core/Include/cmsis_gcc.h **** /**
 671:CMSIS/Core/Include/cmsis_gcc.h ****   \brief   Get Main Stack Pointer Limit
 672:CMSIS/Core/Include/cmsis_gcc.h ****   Devices without ARMv8-M Main Extensions (i.e. Cortex-M23) lack the non-secure
 673:CMSIS/Core/Include/cmsis_gcc.h ****   Stack Pointer Limit register hence zero is returned always in non-secure
 674:CMSIS/Core/Include/cmsis_gcc.h ****   mode.
 675:CMSIS/Core/Include/cmsis_gcc.h **** 
 676:CMSIS/Core/Include/cmsis_gcc.h ****   \details Returns the current value of the Main Stack Pointer Limit (MSPLIM).
 677:CMSIS/Core/Include/cmsis_gcc.h ****   \return               MSPLIM Register value
 678:CMSIS/Core/Include/cmsis_gcc.h ****  */
 679:CMSIS/Core/Include/cmsis_gcc.h **** __STATIC_FORCEINLINE uint32_t __get_MSPLIM(void)
 680:CMSIS/Core/Include/cmsis_gcc.h **** {
 681:CMSIS/Core/Include/cmsis_gcc.h **** #if (!(defined (__ARM_ARCH_8M_MAIN__ ) && (__ARM_ARCH_8M_MAIN__ == 1)) && \
 682:CMSIS/Core/Include/cmsis_gcc.h ****     (!defined (__ARM_FEATURE_CMSE) || (__ARM_FEATURE_CMSE < 3)))
 683:CMSIS/Core/Include/cmsis_gcc.h ****   // without main extensions, the non-secure MSPLIM is RAZ/WI
 684:CMSIS/Core/Include/cmsis_gcc.h ****   return 0U;
 685:CMSIS/Core/Include/cmsis_gcc.h **** #else
 686:CMSIS/Core/Include/cmsis_gcc.h ****   uint32_t result;
 687:CMSIS/Core/Include/cmsis_gcc.h ****   __ASM volatile ("MRS %0, msplim" : "=r" (result) );
 688:CMSIS/Core/Include/cmsis_gcc.h ****   return result;
 689:CMSIS/Core/Include/cmsis_gcc.h **** #endif
ARM GAS  C:\Users\katre\AppData\Local\Temp\ccyg67t2.s 			page 35


 690:CMSIS/Core/Include/cmsis_gcc.h **** }
 691:CMSIS/Core/Include/cmsis_gcc.h **** 
 692:CMSIS/Core/Include/cmsis_gcc.h **** 
 693:CMSIS/Core/Include/cmsis_gcc.h **** #if (defined (__ARM_FEATURE_CMSE  ) && (__ARM_FEATURE_CMSE   == 3))
 694:CMSIS/Core/Include/cmsis_gcc.h **** /**
 695:CMSIS/Core/Include/cmsis_gcc.h ****   \brief   Get Main Stack Pointer Limit (non-secure)
 696:CMSIS/Core/Include/cmsis_gcc.h ****   Devices without ARMv8-M Main Extensions (i.e. Cortex-M23) lack the non-secure
 697:CMSIS/Core/Include/cmsis_gcc.h ****   Stack Pointer Limit register hence zero is returned always.
 698:CMSIS/Core/Include/cmsis_gcc.h **** 
 699:CMSIS/Core/Include/cmsis_gcc.h ****   \details Returns the current value of the non-secure Main Stack Pointer Limit(MSPLIM) when in sec
 700:CMSIS/Core/Include/cmsis_gcc.h ****   \return               MSPLIM Register value
 701:CMSIS/Core/Include/cmsis_gcc.h ****  */
 702:CMSIS/Core/Include/cmsis_gcc.h **** __STATIC_FORCEINLINE uint32_t __TZ_get_MSPLIM_NS(void)
 703:CMSIS/Core/Include/cmsis_gcc.h **** {
 704:CMSIS/Core/Include/cmsis_gcc.h **** #if (!(defined (__ARM_ARCH_8M_MAIN__ ) && (__ARM_ARCH_8M_MAIN__ == 1)))
 705:CMSIS/Core/Include/cmsis_gcc.h ****   // without main extensions, the non-secure MSPLIM is RAZ/WI
 706:CMSIS/Core/Include/cmsis_gcc.h ****   return 0U;
 707:CMSIS/Core/Include/cmsis_gcc.h **** #else
 708:CMSIS/Core/Include/cmsis_gcc.h ****   uint32_t result;
 709:CMSIS/Core/Include/cmsis_gcc.h ****   __ASM volatile ("MRS %0, msplim_ns" : "=r" (result) );
 710:CMSIS/Core/Include/cmsis_gcc.h ****   return result;
 711:CMSIS/Core/Include/cmsis_gcc.h **** #endif
 712:CMSIS/Core/Include/cmsis_gcc.h **** }
 713:CMSIS/Core/Include/cmsis_gcc.h **** #endif
 714:CMSIS/Core/Include/cmsis_gcc.h **** 
 715:CMSIS/Core/Include/cmsis_gcc.h **** 
 716:CMSIS/Core/Include/cmsis_gcc.h **** /**
 717:CMSIS/Core/Include/cmsis_gcc.h ****   \brief   Set Main Stack Pointer Limit
 718:CMSIS/Core/Include/cmsis_gcc.h ****   Devices without ARMv8-M Main Extensions (i.e. Cortex-M23) lack the non-secure
 719:CMSIS/Core/Include/cmsis_gcc.h ****   Stack Pointer Limit register hence the write is silently ignored in non-secure
 720:CMSIS/Core/Include/cmsis_gcc.h ****   mode.
 721:CMSIS/Core/Include/cmsis_gcc.h **** 
 722:CMSIS/Core/Include/cmsis_gcc.h ****   \details Assigns the given value to the Main Stack Pointer Limit (MSPLIM).
 723:CMSIS/Core/Include/cmsis_gcc.h ****   \param [in]    MainStackPtrLimit  Main Stack Pointer Limit value to set
 724:CMSIS/Core/Include/cmsis_gcc.h ****  */
 725:CMSIS/Core/Include/cmsis_gcc.h **** __STATIC_FORCEINLINE void __set_MSPLIM(uint32_t MainStackPtrLimit)
 726:CMSIS/Core/Include/cmsis_gcc.h **** {
 727:CMSIS/Core/Include/cmsis_gcc.h **** #if (!(defined (__ARM_ARCH_8M_MAIN__ ) && (__ARM_ARCH_8M_MAIN__ == 1)) && \
 728:CMSIS/Core/Include/cmsis_gcc.h ****     (!defined (__ARM_FEATURE_CMSE) || (__ARM_FEATURE_CMSE < 3)))
 729:CMSIS/Core/Include/cmsis_gcc.h ****   // without main extensions, the non-secure MSPLIM is RAZ/WI
 730:CMSIS/Core/Include/cmsis_gcc.h ****   (void)MainStackPtrLimit;
 731:CMSIS/Core/Include/cmsis_gcc.h **** #else
 732:CMSIS/Core/Include/cmsis_gcc.h ****   __ASM volatile ("MSR msplim, %0" : : "r" (MainStackPtrLimit));
 733:CMSIS/Core/Include/cmsis_gcc.h **** #endif
 734:CMSIS/Core/Include/cmsis_gcc.h **** }
 735:CMSIS/Core/Include/cmsis_gcc.h **** 
 736:CMSIS/Core/Include/cmsis_gcc.h **** 
 737:CMSIS/Core/Include/cmsis_gcc.h **** #if (defined (__ARM_FEATURE_CMSE  ) && (__ARM_FEATURE_CMSE   == 3))
 738:CMSIS/Core/Include/cmsis_gcc.h **** /**
 739:CMSIS/Core/Include/cmsis_gcc.h ****   \brief   Set Main Stack Pointer Limit (non-secure)
 740:CMSIS/Core/Include/cmsis_gcc.h ****   Devices without ARMv8-M Main Extensions (i.e. Cortex-M23) lack the non-secure
 741:CMSIS/Core/Include/cmsis_gcc.h ****   Stack Pointer Limit register hence the write is silently ignored.
 742:CMSIS/Core/Include/cmsis_gcc.h **** 
 743:CMSIS/Core/Include/cmsis_gcc.h ****   \details Assigns the given value to the non-secure Main Stack Pointer Limit (MSPLIM) when in secu
 744:CMSIS/Core/Include/cmsis_gcc.h ****   \param [in]    MainStackPtrLimit  Main Stack Pointer value to set
 745:CMSIS/Core/Include/cmsis_gcc.h ****  */
 746:CMSIS/Core/Include/cmsis_gcc.h **** __STATIC_FORCEINLINE void __TZ_set_MSPLIM_NS(uint32_t MainStackPtrLimit)
ARM GAS  C:\Users\katre\AppData\Local\Temp\ccyg67t2.s 			page 36


 747:CMSIS/Core/Include/cmsis_gcc.h **** {
 748:CMSIS/Core/Include/cmsis_gcc.h **** #if (!(defined (__ARM_ARCH_8M_MAIN__ ) && (__ARM_ARCH_8M_MAIN__ == 1)))
 749:CMSIS/Core/Include/cmsis_gcc.h ****   // without main extensions, the non-secure MSPLIM is RAZ/WI
 750:CMSIS/Core/Include/cmsis_gcc.h ****   (void)MainStackPtrLimit;
 751:CMSIS/Core/Include/cmsis_gcc.h **** #else
 752:CMSIS/Core/Include/cmsis_gcc.h ****   __ASM volatile ("MSR msplim_ns, %0" : : "r" (MainStackPtrLimit));
 753:CMSIS/Core/Include/cmsis_gcc.h **** #endif
 754:CMSIS/Core/Include/cmsis_gcc.h **** }
 755:CMSIS/Core/Include/cmsis_gcc.h **** #endif
 756:CMSIS/Core/Include/cmsis_gcc.h **** 
 757:CMSIS/Core/Include/cmsis_gcc.h **** #endif /* ((defined (__ARM_ARCH_8M_MAIN__ ) && (__ARM_ARCH_8M_MAIN__ == 1)) || \
 758:CMSIS/Core/Include/cmsis_gcc.h ****            (defined (__ARM_ARCH_8M_BASE__ ) && (__ARM_ARCH_8M_BASE__ == 1))    ) */
 759:CMSIS/Core/Include/cmsis_gcc.h **** 
 760:CMSIS/Core/Include/cmsis_gcc.h **** 
 761:CMSIS/Core/Include/cmsis_gcc.h **** /**
 762:CMSIS/Core/Include/cmsis_gcc.h ****   \brief   Get FPSCR
 763:CMSIS/Core/Include/cmsis_gcc.h ****   \details Returns the current value of the Floating Point Status/Control register.
 764:CMSIS/Core/Include/cmsis_gcc.h ****   \return               Floating Point Status/Control register value
 765:CMSIS/Core/Include/cmsis_gcc.h ****  */
 766:CMSIS/Core/Include/cmsis_gcc.h **** __STATIC_FORCEINLINE uint32_t __get_FPSCR(void)
 767:CMSIS/Core/Include/cmsis_gcc.h **** {
 768:CMSIS/Core/Include/cmsis_gcc.h **** #if ((defined (__FPU_PRESENT) && (__FPU_PRESENT == 1U)) && \
 769:CMSIS/Core/Include/cmsis_gcc.h ****      (defined (__FPU_USED   ) && (__FPU_USED    == 1U))     )
 770:CMSIS/Core/Include/cmsis_gcc.h **** #if __has_builtin(__builtin_arm_get_fpscr) 
 771:CMSIS/Core/Include/cmsis_gcc.h **** // Re-enable using built-in when GCC has been fixed
 772:CMSIS/Core/Include/cmsis_gcc.h **** // || (__GNUC__ > 7) || (__GNUC__ == 7 && __GNUC_MINOR__ >= 2)
 773:CMSIS/Core/Include/cmsis_gcc.h ****   /* see https://gcc.gnu.org/ml/gcc-patches/2017-04/msg00443.html */
 774:CMSIS/Core/Include/cmsis_gcc.h ****   return __builtin_arm_get_fpscr();
 775:CMSIS/Core/Include/cmsis_gcc.h **** #else
 776:CMSIS/Core/Include/cmsis_gcc.h ****   uint32_t result;
 777:CMSIS/Core/Include/cmsis_gcc.h **** 
 778:CMSIS/Core/Include/cmsis_gcc.h ****   __ASM volatile ("VMRS %0, fpscr" : "=r" (result) );
 779:CMSIS/Core/Include/cmsis_gcc.h ****   return(result);
 780:CMSIS/Core/Include/cmsis_gcc.h **** #endif
 781:CMSIS/Core/Include/cmsis_gcc.h **** #else
 782:CMSIS/Core/Include/cmsis_gcc.h ****   return(0U);
 783:CMSIS/Core/Include/cmsis_gcc.h **** #endif
 784:CMSIS/Core/Include/cmsis_gcc.h **** }
 785:CMSIS/Core/Include/cmsis_gcc.h **** 
 786:CMSIS/Core/Include/cmsis_gcc.h **** 
 787:CMSIS/Core/Include/cmsis_gcc.h **** /**
 788:CMSIS/Core/Include/cmsis_gcc.h ****   \brief   Set FPSCR
 789:CMSIS/Core/Include/cmsis_gcc.h ****   \details Assigns the given value to the Floating Point Status/Control register.
 790:CMSIS/Core/Include/cmsis_gcc.h ****   \param [in]    fpscr  Floating Point Status/Control value to set
 791:CMSIS/Core/Include/cmsis_gcc.h ****  */
 792:CMSIS/Core/Include/cmsis_gcc.h **** __STATIC_FORCEINLINE void __set_FPSCR(uint32_t fpscr)
 793:CMSIS/Core/Include/cmsis_gcc.h **** {
 794:CMSIS/Core/Include/cmsis_gcc.h **** #if ((defined (__FPU_PRESENT) && (__FPU_PRESENT == 1U)) && \
 795:CMSIS/Core/Include/cmsis_gcc.h ****      (defined (__FPU_USED   ) && (__FPU_USED    == 1U))     )
 796:CMSIS/Core/Include/cmsis_gcc.h **** #if __has_builtin(__builtin_arm_set_fpscr)
 797:CMSIS/Core/Include/cmsis_gcc.h **** // Re-enable using built-in when GCC has been fixed
 798:CMSIS/Core/Include/cmsis_gcc.h **** // || (__GNUC__ > 7) || (__GNUC__ == 7 && __GNUC_MINOR__ >= 2)
 799:CMSIS/Core/Include/cmsis_gcc.h ****   /* see https://gcc.gnu.org/ml/gcc-patches/2017-04/msg00443.html */
 800:CMSIS/Core/Include/cmsis_gcc.h ****   __builtin_arm_set_fpscr(fpscr);
 801:CMSIS/Core/Include/cmsis_gcc.h **** #else
 802:CMSIS/Core/Include/cmsis_gcc.h ****   __ASM volatile ("VMSR fpscr, %0" : : "r" (fpscr) : "vfpcc", "memory");
 803:CMSIS/Core/Include/cmsis_gcc.h **** #endif
ARM GAS  C:\Users\katre\AppData\Local\Temp\ccyg67t2.s 			page 37


 804:CMSIS/Core/Include/cmsis_gcc.h **** #else
 805:CMSIS/Core/Include/cmsis_gcc.h ****   (void)fpscr;
 806:CMSIS/Core/Include/cmsis_gcc.h **** #endif
 807:CMSIS/Core/Include/cmsis_gcc.h **** }
 808:CMSIS/Core/Include/cmsis_gcc.h **** 
 809:CMSIS/Core/Include/cmsis_gcc.h **** 
 810:CMSIS/Core/Include/cmsis_gcc.h **** /*@} end of CMSIS_Core_RegAccFunctions */
 811:CMSIS/Core/Include/cmsis_gcc.h **** 
 812:CMSIS/Core/Include/cmsis_gcc.h **** 
 813:CMSIS/Core/Include/cmsis_gcc.h **** /* ##########################  Core Instruction Access  ######################### */
 814:CMSIS/Core/Include/cmsis_gcc.h **** /** \defgroup CMSIS_Core_InstructionInterface CMSIS Core Instruction Interface
 815:CMSIS/Core/Include/cmsis_gcc.h ****   Access to dedicated instructions
 816:CMSIS/Core/Include/cmsis_gcc.h ****   @{
 817:CMSIS/Core/Include/cmsis_gcc.h **** */
 818:CMSIS/Core/Include/cmsis_gcc.h **** 
 819:CMSIS/Core/Include/cmsis_gcc.h **** /* Define macros for porting to both thumb1 and thumb2.
 820:CMSIS/Core/Include/cmsis_gcc.h ****  * For thumb1, use low register (r0-r7), specified by constraint "l"
 821:CMSIS/Core/Include/cmsis_gcc.h ****  * Otherwise, use general registers, specified by constraint "r" */
 822:CMSIS/Core/Include/cmsis_gcc.h **** #if defined (__thumb__) && !defined (__thumb2__)
 823:CMSIS/Core/Include/cmsis_gcc.h **** #define __CMSIS_GCC_OUT_REG(r) "=l" (r)
 824:CMSIS/Core/Include/cmsis_gcc.h **** #define __CMSIS_GCC_RW_REG(r) "+l" (r)
 825:CMSIS/Core/Include/cmsis_gcc.h **** #define __CMSIS_GCC_USE_REG(r) "l" (r)
 826:CMSIS/Core/Include/cmsis_gcc.h **** #else
 827:CMSIS/Core/Include/cmsis_gcc.h **** #define __CMSIS_GCC_OUT_REG(r) "=r" (r)
 828:CMSIS/Core/Include/cmsis_gcc.h **** #define __CMSIS_GCC_RW_REG(r) "+r" (r)
 829:CMSIS/Core/Include/cmsis_gcc.h **** #define __CMSIS_GCC_USE_REG(r) "r" (r)
 830:CMSIS/Core/Include/cmsis_gcc.h **** #endif
 831:CMSIS/Core/Include/cmsis_gcc.h **** 
 832:CMSIS/Core/Include/cmsis_gcc.h **** /**
 833:CMSIS/Core/Include/cmsis_gcc.h ****   \brief   No Operation
 834:CMSIS/Core/Include/cmsis_gcc.h ****   \details No Operation does nothing. This instruction can be used for code alignment purposes.
 835:CMSIS/Core/Include/cmsis_gcc.h ****  */
 836:CMSIS/Core/Include/cmsis_gcc.h **** #define __NOP()                             __ASM volatile ("nop")
 837:CMSIS/Core/Include/cmsis_gcc.h **** 
 838:CMSIS/Core/Include/cmsis_gcc.h **** /**
 839:CMSIS/Core/Include/cmsis_gcc.h ****   \brief   Wait For Interrupt
 840:CMSIS/Core/Include/cmsis_gcc.h ****   \details Wait For Interrupt is a hint instruction that suspends execution until one of a number o
 841:CMSIS/Core/Include/cmsis_gcc.h ****  */
 842:CMSIS/Core/Include/cmsis_gcc.h **** #define __WFI()                             __ASM volatile ("wfi")
 843:CMSIS/Core/Include/cmsis_gcc.h **** 
 844:CMSIS/Core/Include/cmsis_gcc.h **** 
 845:CMSIS/Core/Include/cmsis_gcc.h **** /**
 846:CMSIS/Core/Include/cmsis_gcc.h ****   \brief   Wait For Event
 847:CMSIS/Core/Include/cmsis_gcc.h ****   \details Wait For Event is a hint instruction that permits the processor to enter
 848:CMSIS/Core/Include/cmsis_gcc.h ****            a low-power state until one of a number of events occurs.
 849:CMSIS/Core/Include/cmsis_gcc.h ****  */
 850:CMSIS/Core/Include/cmsis_gcc.h **** #define __WFE()                             __ASM volatile ("wfe")
 851:CMSIS/Core/Include/cmsis_gcc.h **** 
 852:CMSIS/Core/Include/cmsis_gcc.h **** 
 853:CMSIS/Core/Include/cmsis_gcc.h **** /**
 854:CMSIS/Core/Include/cmsis_gcc.h ****   \brief   Send Event
 855:CMSIS/Core/Include/cmsis_gcc.h ****   \details Send Event is a hint instruction. It causes an event to be signaled to the CPU.
 856:CMSIS/Core/Include/cmsis_gcc.h ****  */
 857:CMSIS/Core/Include/cmsis_gcc.h **** #define __SEV()                             __ASM volatile ("sev")
 858:CMSIS/Core/Include/cmsis_gcc.h **** 
 859:CMSIS/Core/Include/cmsis_gcc.h **** 
 860:CMSIS/Core/Include/cmsis_gcc.h **** /**
ARM GAS  C:\Users\katre\AppData\Local\Temp\ccyg67t2.s 			page 38


 861:CMSIS/Core/Include/cmsis_gcc.h ****   \brief   Instruction Synchronization Barrier
 862:CMSIS/Core/Include/cmsis_gcc.h ****   \details Instruction Synchronization Barrier flushes the pipeline in the processor,
 863:CMSIS/Core/Include/cmsis_gcc.h ****            so that all instructions following the ISB are fetched from cache or memory,
 864:CMSIS/Core/Include/cmsis_gcc.h ****            after the instruction has been completed.
 865:CMSIS/Core/Include/cmsis_gcc.h ****  */
 866:CMSIS/Core/Include/cmsis_gcc.h **** __STATIC_FORCEINLINE void __ISB(void)
 434              		.loc 2 866 27 view .LVU95
 435              	.LBB5:
 867:CMSIS/Core/Include/cmsis_gcc.h **** {
 868:CMSIS/Core/Include/cmsis_gcc.h ****   __ASM volatile ("isb 0xF":::"memory");
 436              		.loc 2 868 3 view .LVU96
 437              		.syntax unified
 438              	@ 868 "CMSIS/Core/Include/cmsis_gcc.h" 1
 439 003c BFF36F8F 		isb 0xF
 440              	@ 0 "" 2
 441              		.thumb
 442              		.syntax unified
 443              	.LBE5:
 444              	.LBE4:
 630:Vendor_HAL/ST/STM32F4xx_HAL_Driver/Src/stm32f4xx_hal_flash.c **** }
 445              		.loc 1 630 3 view .LVU97
 630:Vendor_HAL/ST/STM32F4xx_HAL_Driver/Src/stm32f4xx_hal_flash.c **** }
 446              		.loc 1 630 32 is_stmt 0 view .LVU98
 447 0040 6560     		str	r5, [r4, #4]
 631:Vendor_HAL/ST/STM32F4xx_HAL_Driver/Src/stm32f4xx_hal_flash.c **** 
 448              		.loc 1 631 1 view .LVU99
 449 0042 70BD     		pop	{r4, r5, r6, pc}
 450              	.LVL20:
 451              	.L31:
 615:Vendor_HAL/ST/STM32F4xx_HAL_Driver/Src/stm32f4xx_hal_flash.c ****   
 452              		.loc 1 615 3 discriminator 2 view .LVU100
 453 0044 40F26721 		movw	r1, #615
 454 0048 0248     		ldr	r0, .L32+4
 455              	.LVL21:
 615:Vendor_HAL/ST/STM32F4xx_HAL_Driver/Src/stm32f4xx_hal_flash.c ****   
 456              		.loc 1 615 3 discriminator 2 view .LVU101
 457 004a FFF7FEFF 		bl	assert_failed
 458              	.LVL22:
 615:Vendor_HAL/ST/STM32F4xx_HAL_Driver/Src/stm32f4xx_hal_flash.c ****   
 459              		.loc 1 615 3 discriminator 2 view .LVU102
 460 004e E7E7     		b	.L29
 461              	.L33:
 462              		.align	2
 463              	.L32:
 464 0050 003C0240 		.word	1073888256
 465 0054 00000000 		.word	.LC0
 466              		.cfi_endproc
 467              	.LFE142:
 469              		.section	.text.HAL_FLASH_Program_IT,"ax",%progbits
 470              		.align	1
 471              		.global	HAL_FLASH_Program_IT
 472              		.syntax unified
 473              		.thumb
 474              		.thumb_func
 476              	HAL_FLASH_Program_IT:
 477              	.LVL23:
 478              	.LFB131:
ARM GAS  C:\Users\katre\AppData\Local\Temp\ccyg67t2.s 			page 39


 215:Vendor_HAL/ST/STM32F4xx_HAL_Driver/Src/stm32f4xx_hal_flash.c ****   HAL_StatusTypeDef status = HAL_OK;
 479              		.loc 1 215 1 is_stmt 1 view -0
 480              		.cfi_startproc
 481              		@ args = 0, pretend = 0, frame = 0
 482              		@ frame_needed = 0, uses_anonymous_args = 0
 215:Vendor_HAL/ST/STM32F4xx_HAL_Driver/Src/stm32f4xx_hal_flash.c ****   HAL_StatusTypeDef status = HAL_OK;
 483              		.loc 1 215 1 is_stmt 0 view .LVU104
 484 0000 F8B5     		push	{r3, r4, r5, r6, r7, lr}
 485              	.LCFI4:
 486              		.cfi_def_cfa_offset 24
 487              		.cfi_offset 3, -24
 488              		.cfi_offset 4, -20
 489              		.cfi_offset 5, -16
 490              		.cfi_offset 6, -12
 491              		.cfi_offset 7, -8
 492              		.cfi_offset 14, -4
 493 0002 1F46     		mov	r7, r3
 216:Vendor_HAL/ST/STM32F4xx_HAL_Driver/Src/stm32f4xx_hal_flash.c ****   
 494              		.loc 1 216 3 is_stmt 1 view .LVU105
 495              	.LVL24:
 219:Vendor_HAL/ST/STM32F4xx_HAL_Driver/Src/stm32f4xx_hal_flash.c **** 
 496              		.loc 1 219 3 view .LVU106
 219:Vendor_HAL/ST/STM32F4xx_HAL_Driver/Src/stm32f4xx_hal_flash.c **** 
 497              		.loc 1 219 3 view .LVU107
 498 0004 1E4B     		ldr	r3, .L46
 499 0006 1B7E     		ldrb	r3, [r3, #24]	@ zero_extendqisi2
 500 0008 012B     		cmp	r3, #1
 501 000a 37D0     		beq	.L40
 502 000c 0446     		mov	r4, r0
 503 000e 0D46     		mov	r5, r1
 504 0010 1646     		mov	r6, r2
 219:Vendor_HAL/ST/STM32F4xx_HAL_Driver/Src/stm32f4xx_hal_flash.c **** 
 505              		.loc 1 219 3 discriminator 2 view .LVU108
 506 0012 1B4B     		ldr	r3, .L46
 507 0014 0122     		movs	r2, #1
 508              	.LVL25:
 219:Vendor_HAL/ST/STM32F4xx_HAL_Driver/Src/stm32f4xx_hal_flash.c **** 
 509              		.loc 1 219 3 is_stmt 0 discriminator 2 view .LVU109
 510 0016 1A76     		strb	r2, [r3, #24]
 219:Vendor_HAL/ST/STM32F4xx_HAL_Driver/Src/stm32f4xx_hal_flash.c **** 
 511              		.loc 1 219 3 is_stmt 1 discriminator 2 view .LVU110
 222:Vendor_HAL/ST/STM32F4xx_HAL_Driver/Src/stm32f4xx_hal_flash.c **** 
 512              		.loc 1 222 3 discriminator 2 view .LVU111
 513 0018 0328     		cmp	r0, #3
 514 001a 18D8     		bhi	.L42
 515              	.LVL26:
 516              	.L36:
 225:Vendor_HAL/ST/STM32F4xx_HAL_Driver/Src/stm32f4xx_hal_flash.c ****   
 517              		.loc 1 225 3 view .LVU112
 518 001c 1948     		ldr	r0, .L46+4
 519 001e 0269     		ldr	r2, [r0, #16]
 520 0020 42F08072 		orr	r2, r2, #16777216
 521 0024 0261     		str	r2, [r0, #16]
 228:Vendor_HAL/ST/STM32F4xx_HAL_Driver/Src/stm32f4xx_hal_flash.c **** 
 522              		.loc 1 228 3 view .LVU113
 523 0026 0269     		ldr	r2, [r0, #16]
 524 0028 42F00072 		orr	r2, r2, #33554432
ARM GAS  C:\Users\katre\AppData\Local\Temp\ccyg67t2.s 			page 40


 525 002c 0261     		str	r2, [r0, #16]
 230:Vendor_HAL/ST/STM32F4xx_HAL_Driver/Src/stm32f4xx_hal_flash.c ****   pFlash.Address = Address;
 526              		.loc 1 230 3 view .LVU114
 230:Vendor_HAL/ST/STM32F4xx_HAL_Driver/Src/stm32f4xx_hal_flash.c ****   pFlash.Address = Address;
 527              		.loc 1 230 27 is_stmt 0 view .LVU115
 528 002e 144B     		ldr	r3, .L46
 529 0030 0322     		movs	r2, #3
 530 0032 1A70     		strb	r2, [r3]
 231:Vendor_HAL/ST/STM32F4xx_HAL_Driver/Src/stm32f4xx_hal_flash.c **** 
 531              		.loc 1 231 3 is_stmt 1 view .LVU116
 231:Vendor_HAL/ST/STM32F4xx_HAL_Driver/Src/stm32f4xx_hal_flash.c **** 
 532              		.loc 1 231 18 is_stmt 0 view .LVU117
 533 0034 5D61     		str	r5, [r3, #20]
 233:Vendor_HAL/ST/STM32F4xx_HAL_Driver/Src/stm32f4xx_hal_flash.c ****   {
 534              		.loc 1 233 3 is_stmt 1 view .LVU118
 233:Vendor_HAL/ST/STM32F4xx_HAL_Driver/Src/stm32f4xx_hal_flash.c ****   {
 535              		.loc 1 233 5 is_stmt 0 view .LVU119
 536 0036 7CB1     		cbz	r4, .L43
 238:Vendor_HAL/ST/STM32F4xx_HAL_Driver/Src/stm32f4xx_hal_flash.c ****   {
 537              		.loc 1 238 8 is_stmt 1 view .LVU120
 238:Vendor_HAL/ST/STM32F4xx_HAL_Driver/Src/stm32f4xx_hal_flash.c ****   {
 538              		.loc 1 238 10 is_stmt 0 view .LVU121
 539 0038 012C     		cmp	r4, #1
 540 003a 13D0     		beq	.L44
 243:Vendor_HAL/ST/STM32F4xx_HAL_Driver/Src/stm32f4xx_hal_flash.c ****   {
 541              		.loc 1 243 8 is_stmt 1 view .LVU122
 243:Vendor_HAL/ST/STM32F4xx_HAL_Driver/Src/stm32f4xx_hal_flash.c ****   {
 542              		.loc 1 243 10 is_stmt 0 view .LVU123
 543 003c 022C     		cmp	r4, #2
 544 003e 17D0     		beq	.L45
 251:Vendor_HAL/ST/STM32F4xx_HAL_Driver/Src/stm32f4xx_hal_flash.c ****   }
 545              		.loc 1 251 5 is_stmt 1 view .LVU124
 546 0040 3246     		mov	r2, r6
 547 0042 3B46     		mov	r3, r7
 548 0044 2846     		mov	r0, r5
 549 0046 FFF7FEFF 		bl	FLASH_Program_DoubleWord
 550              	.LVL27:
 254:Vendor_HAL/ST/STM32F4xx_HAL_Driver/Src/stm32f4xx_hal_flash.c **** }
 551              		.loc 1 254 10 is_stmt 0 view .LVU125
 552 004a 0020     		movs	r0, #0
 553              	.LVL28:
 554              	.L35:
 255:Vendor_HAL/ST/STM32F4xx_HAL_Driver/Src/stm32f4xx_hal_flash.c **** 
 555              		.loc 1 255 1 view .LVU126
 556 004c F8BD     		pop	{r3, r4, r5, r6, r7, pc}
 557              	.LVL29:
 558              	.L42:
 222:Vendor_HAL/ST/STM32F4xx_HAL_Driver/Src/stm32f4xx_hal_flash.c **** 
 559              		.loc 1 222 3 discriminator 1 view .LVU127
 560 004e DE21     		movs	r1, #222
 561              	.LVL30:
 222:Vendor_HAL/ST/STM32F4xx_HAL_Driver/Src/stm32f4xx_hal_flash.c **** 
 562              		.loc 1 222 3 discriminator 1 view .LVU128
 563 0050 0D48     		ldr	r0, .L46+8
 564              	.LVL31:
 222:Vendor_HAL/ST/STM32F4xx_HAL_Driver/Src/stm32f4xx_hal_flash.c **** 
 565              		.loc 1 222 3 discriminator 1 view .LVU129
ARM GAS  C:\Users\katre\AppData\Local\Temp\ccyg67t2.s 			page 41


 566 0052 FFF7FEFF 		bl	assert_failed
 567              	.LVL32:
 568 0056 E1E7     		b	.L36
 569              	.L43:
 236:Vendor_HAL/ST/STM32F4xx_HAL_Driver/Src/stm32f4xx_hal_flash.c ****   }
 570              		.loc 1 236 7 is_stmt 1 view .LVU130
 571 0058 F1B2     		uxtb	r1, r6
 572 005a 2846     		mov	r0, r5
 573 005c FFF7FEFF 		bl	FLASH_Program_Byte
 574              	.LVL33:
 254:Vendor_HAL/ST/STM32F4xx_HAL_Driver/Src/stm32f4xx_hal_flash.c **** }
 575              		.loc 1 254 10 is_stmt 0 view .LVU131
 576 0060 0020     		movs	r0, #0
 577 0062 F3E7     		b	.L35
 578              	.L44:
 241:Vendor_HAL/ST/STM32F4xx_HAL_Driver/Src/stm32f4xx_hal_flash.c ****   }
 579              		.loc 1 241 5 is_stmt 1 view .LVU132
 580 0064 B1B2     		uxth	r1, r6
 581 0066 2846     		mov	r0, r5
 582 0068 FFF7FEFF 		bl	FLASH_Program_HalfWord
 583              	.LVL34:
 254:Vendor_HAL/ST/STM32F4xx_HAL_Driver/Src/stm32f4xx_hal_flash.c **** }
 584              		.loc 1 254 10 is_stmt 0 view .LVU133
 585 006c 0020     		movs	r0, #0
 586 006e EDE7     		b	.L35
 587              	.L45:
 246:Vendor_HAL/ST/STM32F4xx_HAL_Driver/Src/stm32f4xx_hal_flash.c ****   }
 588              		.loc 1 246 5 is_stmt 1 view .LVU134
 589 0070 3146     		mov	r1, r6
 590 0072 2846     		mov	r0, r5
 591 0074 FFF7FEFF 		bl	FLASH_Program_Word
 592              	.LVL35:
 254:Vendor_HAL/ST/STM32F4xx_HAL_Driver/Src/stm32f4xx_hal_flash.c **** }
 593              		.loc 1 254 10 is_stmt 0 view .LVU135
 594 0078 0020     		movs	r0, #0
 595 007a E7E7     		b	.L35
 596              	.LVL36:
 597              	.L40:
 219:Vendor_HAL/ST/STM32F4xx_HAL_Driver/Src/stm32f4xx_hal_flash.c **** 
 598              		.loc 1 219 3 view .LVU136
 599 007c 0220     		movs	r0, #2
 600              	.LVL37:
 219:Vendor_HAL/ST/STM32F4xx_HAL_Driver/Src/stm32f4xx_hal_flash.c **** 
 601              		.loc 1 219 3 view .LVU137
 602 007e E5E7     		b	.L35
 603              	.L47:
 604              		.align	2
 605              	.L46:
 606 0080 00000000 		.word	.LANCHOR0
 607 0084 003C0240 		.word	1073888256
 608 0088 00000000 		.word	.LC0
 609              		.cfi_endproc
 610              	.LFE131:
 612              		.section	.text.HAL_FLASH_EndOfOperationCallback,"ax",%progbits
 613              		.align	1
 614              		.weak	HAL_FLASH_EndOfOperationCallback
 615              		.syntax unified
ARM GAS  C:\Users\katre\AppData\Local\Temp\ccyg67t2.s 			page 42


 616              		.thumb
 617              		.thumb_func
 619              	HAL_FLASH_EndOfOperationCallback:
 620              	.LVL38:
 621              	.LFB133:
 385:Vendor_HAL/ST/STM32F4xx_HAL_Driver/Src/stm32f4xx_hal_flash.c ****   /* Prevent unused argument(s) compilation warning */
 622              		.loc 1 385 1 is_stmt 1 view -0
 623              		.cfi_startproc
 624              		@ args = 0, pretend = 0, frame = 0
 625              		@ frame_needed = 0, uses_anonymous_args = 0
 626              		@ link register save eliminated.
 387:Vendor_HAL/ST/STM32F4xx_HAL_Driver/Src/stm32f4xx_hal_flash.c ****   /* NOTE : This function Should not be modified, when the callback is needed,
 627              		.loc 1 387 3 view .LVU139
 391:Vendor_HAL/ST/STM32F4xx_HAL_Driver/Src/stm32f4xx_hal_flash.c **** 
 628              		.loc 1 391 1 is_stmt 0 view .LVU140
 629 0000 7047     		bx	lr
 630              		.cfi_endproc
 631              	.LFE133:
 633              		.section	.text.HAL_FLASH_OperationErrorCallback,"ax",%progbits
 634              		.align	1
 635              		.weak	HAL_FLASH_OperationErrorCallback
 636              		.syntax unified
 637              		.thumb
 638              		.thumb_func
 640              	HAL_FLASH_OperationErrorCallback:
 641              	.LVL39:
 642              	.LFB134:
 402:Vendor_HAL/ST/STM32F4xx_HAL_Driver/Src/stm32f4xx_hal_flash.c ****   /* Prevent unused argument(s) compilation warning */
 643              		.loc 1 402 1 is_stmt 1 view -0
 644              		.cfi_startproc
 645              		@ args = 0, pretend = 0, frame = 0
 646              		@ frame_needed = 0, uses_anonymous_args = 0
 647              		@ link register save eliminated.
 404:Vendor_HAL/ST/STM32F4xx_HAL_Driver/Src/stm32f4xx_hal_flash.c ****   /* NOTE : This function Should not be modified, when the callback is needed,
 648              		.loc 1 404 3 view .LVU142
 408:Vendor_HAL/ST/STM32F4xx_HAL_Driver/Src/stm32f4xx_hal_flash.c **** 
 649              		.loc 1 408 1 is_stmt 0 view .LVU143
 650 0000 7047     		bx	lr
 651              		.cfi_endproc
 652              	.LFE134:
 654              		.section	.text.HAL_FLASH_IRQHandler,"ax",%progbits
 655              		.align	1
 656              		.global	HAL_FLASH_IRQHandler
 657              		.syntax unified
 658              		.thumb
 659              		.thumb_func
 661              	HAL_FLASH_IRQHandler:
 662              	.LFB132:
 262:Vendor_HAL/ST/STM32F4xx_HAL_Driver/Src/stm32f4xx_hal_flash.c ****   uint32_t addresstmp = 0U;
 663              		.loc 1 262 1 is_stmt 1 view -0
 664              		.cfi_startproc
 665              		@ args = 0, pretend = 0, frame = 0
 666              		@ frame_needed = 0, uses_anonymous_args = 0
 667 0000 10B5     		push	{r4, lr}
 668              	.LCFI5:
 669              		.cfi_def_cfa_offset 8
 670              		.cfi_offset 4, -8
ARM GAS  C:\Users\katre\AppData\Local\Temp\ccyg67t2.s 			page 43


 671              		.cfi_offset 14, -4
 263:Vendor_HAL/ST/STM32F4xx_HAL_Driver/Src/stm32f4xx_hal_flash.c ****   
 672              		.loc 1 263 3 view .LVU145
 673              	.LVL40:
 267:Vendor_HAL/ST/STM32F4xx_HAL_Driver/Src/stm32f4xx_hal_flash.c ****     FLASH_FLAG_PGPERR | FLASH_FLAG_PGSERR | FLASH_FLAG_RDERR)) != RESET)
 674              		.loc 1 267 3 view .LVU146
 267:Vendor_HAL/ST/STM32F4xx_HAL_Driver/Src/stm32f4xx_hal_flash.c ****     FLASH_FLAG_PGPERR | FLASH_FLAG_PGSERR | FLASH_FLAG_RDERR)) != RESET)
 675              		.loc 1 267 6 is_stmt 0 view .LVU147
 676 0002 3A4B     		ldr	r3, .L66
 677 0004 DB68     		ldr	r3, [r3, #12]
 267:Vendor_HAL/ST/STM32F4xx_HAL_Driver/Src/stm32f4xx_hal_flash.c ****     FLASH_FLAG_PGPERR | FLASH_FLAG_PGSERR | FLASH_FLAG_RDERR)) != RESET)
 678              		.loc 1 267 5 view .LVU148
 679 0006 13F4F97F 		tst	r3, #498
 680 000a 13D0     		beq	.L51
 274:Vendor_HAL/ST/STM32F4xx_HAL_Driver/Src/stm32f4xx_hal_flash.c ****     {
 681              		.loc 1 274 5 is_stmt 1 view .LVU149
 274:Vendor_HAL/ST/STM32F4xx_HAL_Driver/Src/stm32f4xx_hal_flash.c ****     {
 682              		.loc 1 274 14 is_stmt 0 view .LVU150
 683 000c 384B     		ldr	r3, .L66+4
 684 000e 1B78     		ldrb	r3, [r3]	@ zero_extendqisi2
 685 0010 DBB2     		uxtb	r3, r3
 274:Vendor_HAL/ST/STM32F4xx_HAL_Driver/Src/stm32f4xx_hal_flash.c ****     {
 686              		.loc 1 274 7 view .LVU151
 687 0012 012B     		cmp	r3, #1
 688 0014 3BD0     		beq	.L62
 280:Vendor_HAL/ST/STM32F4xx_HAL_Driver/Src/stm32f4xx_hal_flash.c ****     {
 689              		.loc 1 280 10 is_stmt 1 view .LVU152
 280:Vendor_HAL/ST/STM32F4xx_HAL_Driver/Src/stm32f4xx_hal_flash.c ****     {
 690              		.loc 1 280 19 is_stmt 0 view .LVU153
 691 0016 364B     		ldr	r3, .L66+4
 692 0018 1B78     		ldrb	r3, [r3]	@ zero_extendqisi2
 693 001a DBB2     		uxtb	r3, r3
 280:Vendor_HAL/ST/STM32F4xx_HAL_Driver/Src/stm32f4xx_hal_flash.c ****     {
 694              		.loc 1 280 12 view .LVU154
 695 001c 022B     		cmp	r3, #2
 696 001e 3CD0     		beq	.L63
 288:Vendor_HAL/ST/STM32F4xx_HAL_Driver/Src/stm32f4xx_hal_flash.c ****     }
 697              		.loc 1 288 7 is_stmt 1 view .LVU155
 288:Vendor_HAL/ST/STM32F4xx_HAL_Driver/Src/stm32f4xx_hal_flash.c ****     }
 698              		.loc 1 288 18 is_stmt 0 view .LVU156
 699 0020 334B     		ldr	r3, .L66+4
 700 0022 5C69     		ldr	r4, [r3, #20]
 701              	.LVL41:
 702              	.L53:
 292:Vendor_HAL/ST/STM32F4xx_HAL_Driver/Src/stm32f4xx_hal_flash.c ****     
 703              		.loc 1 292 5 is_stmt 1 view .LVU157
 704 0024 FFF7FEFF 		bl	FLASH_SetErrorCode
 705              	.LVL42:
 295:Vendor_HAL/ST/STM32F4xx_HAL_Driver/Src/stm32f4xx_hal_flash.c ****     
 706              		.loc 1 295 5 view .LVU158
 707 0028 2046     		mov	r0, r4
 708 002a FFF7FEFF 		bl	HAL_FLASH_OperationErrorCallback
 709              	.LVL43:
 298:Vendor_HAL/ST/STM32F4xx_HAL_Driver/Src/stm32f4xx_hal_flash.c ****   }
 710              		.loc 1 298 5 view .LVU159
 298:Vendor_HAL/ST/STM32F4xx_HAL_Driver/Src/stm32f4xx_hal_flash.c ****   }
 711              		.loc 1 298 29 is_stmt 0 view .LVU160
ARM GAS  C:\Users\katre\AppData\Local\Temp\ccyg67t2.s 			page 44


 712 002e 304B     		ldr	r3, .L66+4
 713 0030 0022     		movs	r2, #0
 714 0032 1A70     		strb	r2, [r3]
 715              	.LVL44:
 716              	.L51:
 302:Vendor_HAL/ST/STM32F4xx_HAL_Driver/Src/stm32f4xx_hal_flash.c ****   {
 717              		.loc 1 302 3 is_stmt 1 view .LVU161
 302:Vendor_HAL/ST/STM32F4xx_HAL_Driver/Src/stm32f4xx_hal_flash.c ****   {
 718              		.loc 1 302 6 is_stmt 0 view .LVU162
 719 0034 2D4B     		ldr	r3, .L66
 720 0036 DB68     		ldr	r3, [r3, #12]
 302:Vendor_HAL/ST/STM32F4xx_HAL_Driver/Src/stm32f4xx_hal_flash.c ****   {
 721              		.loc 1 302 5 view .LVU163
 722 0038 13F0010F 		tst	r3, #1
 723 003c 13D0     		beq	.L55
 305:Vendor_HAL/ST/STM32F4xx_HAL_Driver/Src/stm32f4xx_hal_flash.c ****     
 724              		.loc 1 305 5 is_stmt 1 view .LVU164
 725 003e 2B4B     		ldr	r3, .L66
 726 0040 0122     		movs	r2, #1
 727 0042 DA60     		str	r2, [r3, #12]
 307:Vendor_HAL/ST/STM32F4xx_HAL_Driver/Src/stm32f4xx_hal_flash.c ****     {
 728              		.loc 1 307 5 view .LVU165
 307:Vendor_HAL/ST/STM32F4xx_HAL_Driver/Src/stm32f4xx_hal_flash.c ****     {
 729              		.loc 1 307 14 is_stmt 0 view .LVU166
 730 0044 2A4B     		ldr	r3, .L66+4
 731 0046 1B78     		ldrb	r3, [r3]	@ zero_extendqisi2
 732 0048 DBB2     		uxtb	r3, r3
 307:Vendor_HAL/ST/STM32F4xx_HAL_Driver/Src/stm32f4xx_hal_flash.c ****     {
 733              		.loc 1 307 7 view .LVU167
 734 004a 9342     		cmp	r3, r2
 735 004c 28D0     		beq	.L64
 340:Vendor_HAL/ST/STM32F4xx_HAL_Driver/Src/stm32f4xx_hal_flash.c ****       {
 736              		.loc 1 340 7 is_stmt 1 view .LVU168
 340:Vendor_HAL/ST/STM32F4xx_HAL_Driver/Src/stm32f4xx_hal_flash.c ****       {
 737              		.loc 1 340 16 is_stmt 0 view .LVU169
 738 004e 284B     		ldr	r3, .L66+4
 739 0050 1B78     		ldrb	r3, [r3]	@ zero_extendqisi2
 740 0052 DBB2     		uxtb	r3, r3
 340:Vendor_HAL/ST/STM32F4xx_HAL_Driver/Src/stm32f4xx_hal_flash.c ****       {
 741              		.loc 1 340 9 view .LVU170
 742 0054 022B     		cmp	r3, #2
 743 0056 41D0     		beq	.L65
 353:Vendor_HAL/ST/STM32F4xx_HAL_Driver/Src/stm32f4xx_hal_flash.c ****       }
 744              		.loc 1 353 9 is_stmt 1 view .LVU171
 745 0058 254B     		ldr	r3, .L66+4
 746 005a 5869     		ldr	r0, [r3, #20]
 747 005c FFF7FEFF 		bl	HAL_FLASH_EndOfOperationCallback
 748              	.LVL45:
 749              	.L59:
 355:Vendor_HAL/ST/STM32F4xx_HAL_Driver/Src/stm32f4xx_hal_flash.c ****     }
 750              		.loc 1 355 7 view .LVU172
 355:Vendor_HAL/ST/STM32F4xx_HAL_Driver/Src/stm32f4xx_hal_flash.c ****     }
 751              		.loc 1 355 31 is_stmt 0 view .LVU173
 752 0060 234B     		ldr	r3, .L66+4
 753 0062 0022     		movs	r2, #0
 754 0064 1A70     		strb	r2, [r3]
 755              	.L55:
ARM GAS  C:\Users\katre\AppData\Local\Temp\ccyg67t2.s 			page 45


 359:Vendor_HAL/ST/STM32F4xx_HAL_Driver/Src/stm32f4xx_hal_flash.c ****   {
 756              		.loc 1 359 3 is_stmt 1 view .LVU174
 359:Vendor_HAL/ST/STM32F4xx_HAL_Driver/Src/stm32f4xx_hal_flash.c ****   {
 757              		.loc 1 359 12 is_stmt 0 view .LVU175
 758 0066 224B     		ldr	r3, .L66+4
 759 0068 1B78     		ldrb	r3, [r3]	@ zero_extendqisi2
 359:Vendor_HAL/ST/STM32F4xx_HAL_Driver/Src/stm32f4xx_hal_flash.c ****   {
 760              		.loc 1 359 5 view .LVU176
 761 006a 7BB9     		cbnz	r3, .L50
 362:Vendor_HAL/ST/STM32F4xx_HAL_Driver/Src/stm32f4xx_hal_flash.c **** 
 762              		.loc 1 362 5 is_stmt 1 view .LVU177
 763 006c 1F4B     		ldr	r3, .L66
 764 006e 1A69     		ldr	r2, [r3, #16]
 765 0070 22F0FF02 		bic	r2, r2, #255
 766 0074 1A61     		str	r2, [r3, #16]
 365:Vendor_HAL/ST/STM32F4xx_HAL_Driver/Src/stm32f4xx_hal_flash.c ****     
 767              		.loc 1 365 5 view .LVU178
 768 0076 1A69     		ldr	r2, [r3, #16]
 769 0078 22F08072 		bic	r2, r2, #16777216
 770 007c 1A61     		str	r2, [r3, #16]
 368:Vendor_HAL/ST/STM32F4xx_HAL_Driver/Src/stm32f4xx_hal_flash.c ****     
 771              		.loc 1 368 5 view .LVU179
 772 007e 1A69     		ldr	r2, [r3, #16]
 773 0080 22F00072 		bic	r2, r2, #33554432
 774 0084 1A61     		str	r2, [r3, #16]
 371:Vendor_HAL/ST/STM32F4xx_HAL_Driver/Src/stm32f4xx_hal_flash.c ****   }
 775              		.loc 1 371 5 view .LVU180
 371:Vendor_HAL/ST/STM32F4xx_HAL_Driver/Src/stm32f4xx_hal_flash.c ****   }
 776              		.loc 1 371 5 view .LVU181
 777 0086 1A4B     		ldr	r3, .L66+4
 778 0088 0022     		movs	r2, #0
 779 008a 1A76     		strb	r2, [r3, #24]
 371:Vendor_HAL/ST/STM32F4xx_HAL_Driver/Src/stm32f4xx_hal_flash.c ****   }
 780              		.loc 1 371 5 view .LVU182
 781              	.L50:
 373:Vendor_HAL/ST/STM32F4xx_HAL_Driver/Src/stm32f4xx_hal_flash.c **** 
 782              		.loc 1 373 1 is_stmt 0 view .LVU183
 783 008c 10BD     		pop	{r4, pc}
 784              	.LVL46:
 785              	.L62:
 277:Vendor_HAL/ST/STM32F4xx_HAL_Driver/Src/stm32f4xx_hal_flash.c ****       pFlash.Sector = 0xFFFFFFFFU;
 786              		.loc 1 277 7 is_stmt 1 view .LVU184
 277:Vendor_HAL/ST/STM32F4xx_HAL_Driver/Src/stm32f4xx_hal_flash.c ****       pFlash.Sector = 0xFFFFFFFFU;
 787              		.loc 1 277 18 is_stmt 0 view .LVU185
 788 008e 184B     		ldr	r3, .L66+4
 789 0090 DC68     		ldr	r4, [r3, #12]
 790              	.LVL47:
 278:Vendor_HAL/ST/STM32F4xx_HAL_Driver/Src/stm32f4xx_hal_flash.c ****     }
 791              		.loc 1 278 7 is_stmt 1 view .LVU186
 278:Vendor_HAL/ST/STM32F4xx_HAL_Driver/Src/stm32f4xx_hal_flash.c ****     }
 792              		.loc 1 278 21 is_stmt 0 view .LVU187
 793 0092 4FF0FF32 		mov	r2, #-1
 794 0096 DA60     		str	r2, [r3, #12]
 795 0098 C4E7     		b	.L53
 796              	.LVL48:
 797              	.L63:
 283:Vendor_HAL/ST/STM32F4xx_HAL_Driver/Src/stm32f4xx_hal_flash.c ****     }
ARM GAS  C:\Users\katre\AppData\Local\Temp\ccyg67t2.s 			page 46


 798              		.loc 1 283 7 is_stmt 1 view .LVU188
 283:Vendor_HAL/ST/STM32F4xx_HAL_Driver/Src/stm32f4xx_hal_flash.c ****     }
 799              		.loc 1 283 18 is_stmt 0 view .LVU189
 800 009a 154B     		ldr	r3, .L66+4
 801 009c 1C69     		ldr	r4, [r3, #16]
 802              	.LVL49:
 283:Vendor_HAL/ST/STM32F4xx_HAL_Driver/Src/stm32f4xx_hal_flash.c ****     }
 803              		.loc 1 283 18 view .LVU190
 804 009e C1E7     		b	.L53
 805              	.LVL50:
 806              	.L64:
 310:Vendor_HAL/ST/STM32F4xx_HAL_Driver/Src/stm32f4xx_hal_flash.c ****       
 807              		.loc 1 310 7 is_stmt 1 view .LVU191
 310:Vendor_HAL/ST/STM32F4xx_HAL_Driver/Src/stm32f4xx_hal_flash.c ****       
 808              		.loc 1 310 13 is_stmt 0 view .LVU192
 809 00a0 134B     		ldr	r3, .L66+4
 810 00a2 5A68     		ldr	r2, [r3, #4]
 310:Vendor_HAL/ST/STM32F4xx_HAL_Driver/Src/stm32f4xx_hal_flash.c ****       
 811              		.loc 1 310 30 view .LVU193
 812 00a4 013A     		subs	r2, r2, #1
 813 00a6 5A60     		str	r2, [r3, #4]
 313:Vendor_HAL/ST/STM32F4xx_HAL_Driver/Src/stm32f4xx_hal_flash.c ****       {
 814              		.loc 1 313 7 is_stmt 1 view .LVU194
 313:Vendor_HAL/ST/STM32F4xx_HAL_Driver/Src/stm32f4xx_hal_flash.c ****       {
 815              		.loc 1 313 16 is_stmt 0 view .LVU195
 816 00a8 5B68     		ldr	r3, [r3, #4]
 313:Vendor_HAL/ST/STM32F4xx_HAL_Driver/Src/stm32f4xx_hal_flash.c ****       {
 817              		.loc 1 313 9 view .LVU196
 818 00aa 5BB1     		cbz	r3, .L57
 315:Vendor_HAL/ST/STM32F4xx_HAL_Driver/Src/stm32f4xx_hal_flash.c ****         /*Indicate user which sector has been erased*/
 819              		.loc 1 315 9 is_stmt 1 view .LVU197
 315:Vendor_HAL/ST/STM32F4xx_HAL_Driver/Src/stm32f4xx_hal_flash.c ****         /*Indicate user which sector has been erased*/
 820              		.loc 1 315 20 is_stmt 0 view .LVU198
 821 00ac 104C     		ldr	r4, .L66+4
 822 00ae E068     		ldr	r0, [r4, #12]
 823              	.LVL51:
 317:Vendor_HAL/ST/STM32F4xx_HAL_Driver/Src/stm32f4xx_hal_flash.c ****         
 824              		.loc 1 317 9 is_stmt 1 view .LVU199
 825 00b0 FFF7FEFF 		bl	HAL_FLASH_EndOfOperationCallback
 826              	.LVL52:
 320:Vendor_HAL/ST/STM32F4xx_HAL_Driver/Src/stm32f4xx_hal_flash.c ****         addresstmp = pFlash.Sector;
 827              		.loc 1 320 9 view .LVU200
 320:Vendor_HAL/ST/STM32F4xx_HAL_Driver/Src/stm32f4xx_hal_flash.c ****         addresstmp = pFlash.Sector;
 828              		.loc 1 320 15 is_stmt 0 view .LVU201
 829 00b4 E368     		ldr	r3, [r4, #12]
 320:Vendor_HAL/ST/STM32F4xx_HAL_Driver/Src/stm32f4xx_hal_flash.c ****         addresstmp = pFlash.Sector;
 830              		.loc 1 320 22 view .LVU202
 831 00b6 0133     		adds	r3, r3, #1
 832 00b8 E360     		str	r3, [r4, #12]
 321:Vendor_HAL/ST/STM32F4xx_HAL_Driver/Src/stm32f4xx_hal_flash.c ****         FLASH_Erase_Sector(addresstmp, pFlash.VoltageForErase);
 833              		.loc 1 321 9 is_stmt 1 view .LVU203
 321:Vendor_HAL/ST/STM32F4xx_HAL_Driver/Src/stm32f4xx_hal_flash.c ****         FLASH_Erase_Sector(addresstmp, pFlash.VoltageForErase);
 834              		.loc 1 321 20 is_stmt 0 view .LVU204
 835 00ba E068     		ldr	r0, [r4, #12]
 836              	.LVL53:
 322:Vendor_HAL/ST/STM32F4xx_HAL_Driver/Src/stm32f4xx_hal_flash.c ****       }
 837              		.loc 1 322 9 is_stmt 1 view .LVU205
ARM GAS  C:\Users\katre\AppData\Local\Temp\ccyg67t2.s 			page 47


 838 00bc 217A     		ldrb	r1, [r4, #8]	@ zero_extendqisi2
 839 00be FFF7FEFF 		bl	FLASH_Erase_Sector
 840              	.LVL54:
 322:Vendor_HAL/ST/STM32F4xx_HAL_Driver/Src/stm32f4xx_hal_flash.c ****       }
 841              		.loc 1 322 9 is_stmt 0 view .LVU206
 842 00c2 D0E7     		b	.L55
 843              	.L57:
 328:Vendor_HAL/ST/STM32F4xx_HAL_Driver/Src/stm32f4xx_hal_flash.c ****         pFlash.ProcedureOnGoing = FLASH_PROC_NONE;
 844              		.loc 1 328 9 is_stmt 1 view .LVU207
 845              	.LVL55:
 328:Vendor_HAL/ST/STM32F4xx_HAL_Driver/Src/stm32f4xx_hal_flash.c ****         pFlash.ProcedureOnGoing = FLASH_PROC_NONE;
 846              		.loc 1 328 23 is_stmt 0 view .LVU208
 847 00c4 0A4B     		ldr	r3, .L66+4
 848 00c6 4FF0FF34 		mov	r4, #-1
 849 00ca DC60     		str	r4, [r3, #12]
 329:Vendor_HAL/ST/STM32F4xx_HAL_Driver/Src/stm32f4xx_hal_flash.c ****         
 850              		.loc 1 329 9 is_stmt 1 view .LVU209
 329:Vendor_HAL/ST/STM32F4xx_HAL_Driver/Src/stm32f4xx_hal_flash.c ****         
 851              		.loc 1 329 33 is_stmt 0 view .LVU210
 852 00cc 0022     		movs	r2, #0
 853 00ce 1A70     		strb	r2, [r3]
 332:Vendor_HAL/ST/STM32F4xx_HAL_Driver/Src/stm32f4xx_hal_flash.c ****                 
 854              		.loc 1 332 9 is_stmt 1 view .LVU211
 855 00d0 FFF7FEFF 		bl	FLASH_FlushCaches
 856              	.LVL56:
 335:Vendor_HAL/ST/STM32F4xx_HAL_Driver/Src/stm32f4xx_hal_flash.c ****       }
 857              		.loc 1 335 9 view .LVU212
 858 00d4 2046     		mov	r0, r4
 859 00d6 FFF7FEFF 		bl	HAL_FLASH_EndOfOperationCallback
 860              	.LVL57:
 861 00da C4E7     		b	.L55
 862              	.LVL58:
 863              	.L65:
 344:Vendor_HAL/ST/STM32F4xx_HAL_Driver/Src/stm32f4xx_hal_flash.c **** 
 864              		.loc 1 344 9 view .LVU213
 865 00dc FFF7FEFF 		bl	FLASH_FlushCaches
 866              	.LVL59:
 347:Vendor_HAL/ST/STM32F4xx_HAL_Driver/Src/stm32f4xx_hal_flash.c ****       }
 867              		.loc 1 347 9 view .LVU214
 868 00e0 034B     		ldr	r3, .L66+4
 869 00e2 1869     		ldr	r0, [r3, #16]
 870 00e4 FFF7FEFF 		bl	HAL_FLASH_EndOfOperationCallback
 871              	.LVL60:
 872 00e8 BAE7     		b	.L59
 873              	.L67:
 874 00ea 00BF     		.align	2
 875              	.L66:
 876 00ec 003C0240 		.word	1073888256
 877 00f0 00000000 		.word	.LANCHOR0
 878              		.cfi_endproc
 879              	.LFE132:
 881              		.section	.text.HAL_FLASH_Unlock,"ax",%progbits
 882              		.align	1
 883              		.global	HAL_FLASH_Unlock
 884              		.syntax unified
 885              		.thumb
 886              		.thumb_func
ARM GAS  C:\Users\katre\AppData\Local\Temp\ccyg67t2.s 			page 48


 888              	HAL_FLASH_Unlock:
 889              	.LFB135:
 434:Vendor_HAL/ST/STM32F4xx_HAL_Driver/Src/stm32f4xx_hal_flash.c ****   HAL_StatusTypeDef status = HAL_OK;
 890              		.loc 1 434 1 view -0
 891              		.cfi_startproc
 892              		@ args = 0, pretend = 0, frame = 0
 893              		@ frame_needed = 0, uses_anonymous_args = 0
 894              		@ link register save eliminated.
 435:Vendor_HAL/ST/STM32F4xx_HAL_Driver/Src/stm32f4xx_hal_flash.c **** 
 895              		.loc 1 435 3 view .LVU216
 896              	.LVL61:
 437:Vendor_HAL/ST/STM32F4xx_HAL_Driver/Src/stm32f4xx_hal_flash.c ****   {
 897              		.loc 1 437 3 view .LVU217
 437:Vendor_HAL/ST/STM32F4xx_HAL_Driver/Src/stm32f4xx_hal_flash.c ****   {
 898              		.loc 1 437 6 is_stmt 0 view .LVU218
 899 0000 094B     		ldr	r3, .L73
 900 0002 1B69     		ldr	r3, [r3, #16]
 437:Vendor_HAL/ST/STM32F4xx_HAL_Driver/Src/stm32f4xx_hal_flash.c ****   {
 901              		.loc 1 437 5 view .LVU219
 902 0004 002B     		cmp	r3, #0
 903 0006 01DB     		blt	.L72
 435:Vendor_HAL/ST/STM32F4xx_HAL_Driver/Src/stm32f4xx_hal_flash.c **** 
 904              		.loc 1 435 21 view .LVU220
 905 0008 0020     		movs	r0, #0
 906 000a 7047     		bx	lr
 907              	.L72:
 440:Vendor_HAL/ST/STM32F4xx_HAL_Driver/Src/stm32f4xx_hal_flash.c ****     WRITE_REG(FLASH->KEYR, FLASH_KEY2);
 908              		.loc 1 440 5 is_stmt 1 view .LVU221
 909 000c 064B     		ldr	r3, .L73
 910 000e 074A     		ldr	r2, .L73+4
 911 0010 5A60     		str	r2, [r3, #4]
 441:Vendor_HAL/ST/STM32F4xx_HAL_Driver/Src/stm32f4xx_hal_flash.c **** 
 912              		.loc 1 441 5 view .LVU222
 913 0012 02F18832 		add	r2, r2, #-2004318072
 914 0016 5A60     		str	r2, [r3, #4]
 444:Vendor_HAL/ST/STM32F4xx_HAL_Driver/Src/stm32f4xx_hal_flash.c ****     {
 915              		.loc 1 444 5 view .LVU223
 444:Vendor_HAL/ST/STM32F4xx_HAL_Driver/Src/stm32f4xx_hal_flash.c ****     {
 916              		.loc 1 444 8 is_stmt 0 view .LVU224
 917 0018 1B69     		ldr	r3, [r3, #16]
 444:Vendor_HAL/ST/STM32F4xx_HAL_Driver/Src/stm32f4xx_hal_flash.c ****     {
 918              		.loc 1 444 7 view .LVU225
 919 001a 002B     		cmp	r3, #0
 920 001c 01DB     		blt	.L71
 435:Vendor_HAL/ST/STM32F4xx_HAL_Driver/Src/stm32f4xx_hal_flash.c **** 
 921              		.loc 1 435 21 view .LVU226
 922 001e 0020     		movs	r0, #0
 923 0020 7047     		bx	lr
 924              	.L71:
 446:Vendor_HAL/ST/STM32F4xx_HAL_Driver/Src/stm32f4xx_hal_flash.c ****     }
 925              		.loc 1 446 14 view .LVU227
 926 0022 0120     		movs	r0, #1
 927              	.LVL62:
 450:Vendor_HAL/ST/STM32F4xx_HAL_Driver/Src/stm32f4xx_hal_flash.c **** }
 928              		.loc 1 450 3 is_stmt 1 view .LVU228
 451:Vendor_HAL/ST/STM32F4xx_HAL_Driver/Src/stm32f4xx_hal_flash.c **** 
 929              		.loc 1 451 1 is_stmt 0 view .LVU229
ARM GAS  C:\Users\katre\AppData\Local\Temp\ccyg67t2.s 			page 49


 930 0024 7047     		bx	lr
 931              	.L74:
 932 0026 00BF     		.align	2
 933              	.L73:
 934 0028 003C0240 		.word	1073888256
 935 002c 23016745 		.word	1164378403
 936              		.cfi_endproc
 937              	.LFE135:
 939              		.section	.text.HAL_FLASH_Lock,"ax",%progbits
 940              		.align	1
 941              		.global	HAL_FLASH_Lock
 942              		.syntax unified
 943              		.thumb
 944              		.thumb_func
 946              	HAL_FLASH_Lock:
 947              	.LFB136:
 458:Vendor_HAL/ST/STM32F4xx_HAL_Driver/Src/stm32f4xx_hal_flash.c ****   /* Set the LOCK Bit to lock the FLASH Registers access */
 948              		.loc 1 458 1 is_stmt 1 view -0
 949              		.cfi_startproc
 950              		@ args = 0, pretend = 0, frame = 0
 951              		@ frame_needed = 0, uses_anonymous_args = 0
 952              		@ link register save eliminated.
 460:Vendor_HAL/ST/STM32F4xx_HAL_Driver/Src/stm32f4xx_hal_flash.c ****   
 953              		.loc 1 460 3 view .LVU231
 460:Vendor_HAL/ST/STM32F4xx_HAL_Driver/Src/stm32f4xx_hal_flash.c ****   
 954              		.loc 1 460 13 is_stmt 0 view .LVU232
 955 0000 034A     		ldr	r2, .L76
 956 0002 1369     		ldr	r3, [r2, #16]
 957 0004 43F00043 		orr	r3, r3, #-2147483648
 958 0008 1361     		str	r3, [r2, #16]
 462:Vendor_HAL/ST/STM32F4xx_HAL_Driver/Src/stm32f4xx_hal_flash.c **** }
 959              		.loc 1 462 3 is_stmt 1 view .LVU233
 463:Vendor_HAL/ST/STM32F4xx_HAL_Driver/Src/stm32f4xx_hal_flash.c **** 
 960              		.loc 1 463 1 is_stmt 0 view .LVU234
 961 000a 0020     		movs	r0, #0
 962 000c 7047     		bx	lr
 963              	.L77:
 964 000e 00BF     		.align	2
 965              	.L76:
 966 0010 003C0240 		.word	1073888256
 967              		.cfi_endproc
 968              	.LFE136:
 970              		.section	.text.HAL_FLASH_OB_Unlock,"ax",%progbits
 971              		.align	1
 972              		.global	HAL_FLASH_OB_Unlock
 973              		.syntax unified
 974              		.thumb
 975              		.thumb_func
 977              	HAL_FLASH_OB_Unlock:
 978              	.LFB137:
 470:Vendor_HAL/ST/STM32F4xx_HAL_Driver/Src/stm32f4xx_hal_flash.c ****   if((FLASH->OPTCR & FLASH_OPTCR_OPTLOCK) != RESET)
 979              		.loc 1 470 1 is_stmt 1 view -0
 980              		.cfi_startproc
 981              		@ args = 0, pretend = 0, frame = 0
 982              		@ frame_needed = 0, uses_anonymous_args = 0
 983              		@ link register save eliminated.
 471:Vendor_HAL/ST/STM32F4xx_HAL_Driver/Src/stm32f4xx_hal_flash.c ****   {
ARM GAS  C:\Users\katre\AppData\Local\Temp\ccyg67t2.s 			page 50


 984              		.loc 1 471 3 view .LVU236
 471:Vendor_HAL/ST/STM32F4xx_HAL_Driver/Src/stm32f4xx_hal_flash.c ****   {
 985              		.loc 1 471 12 is_stmt 0 view .LVU237
 986 0000 074B     		ldr	r3, .L81
 987 0002 5B69     		ldr	r3, [r3, #20]
 471:Vendor_HAL/ST/STM32F4xx_HAL_Driver/Src/stm32f4xx_hal_flash.c ****   {
 988              		.loc 1 471 5 view .LVU238
 989 0004 13F0010F 		tst	r3, #1
 990 0008 07D0     		beq	.L80
 474:Vendor_HAL/ST/STM32F4xx_HAL_Driver/Src/stm32f4xx_hal_flash.c ****     FLASH->OPTKEYR = FLASH_OPT_KEY2;
 991              		.loc 1 474 5 is_stmt 1 view .LVU239
 474:Vendor_HAL/ST/STM32F4xx_HAL_Driver/Src/stm32f4xx_hal_flash.c ****     FLASH->OPTKEYR = FLASH_OPT_KEY2;
 992              		.loc 1 474 20 is_stmt 0 view .LVU240
 993 000a 054B     		ldr	r3, .L81
 994 000c 054A     		ldr	r2, .L81+4
 995 000e 9A60     		str	r2, [r3, #8]
 475:Vendor_HAL/ST/STM32F4xx_HAL_Driver/Src/stm32f4xx_hal_flash.c ****   }
 996              		.loc 1 475 5 is_stmt 1 view .LVU241
 475:Vendor_HAL/ST/STM32F4xx_HAL_Driver/Src/stm32f4xx_hal_flash.c ****   }
 997              		.loc 1 475 20 is_stmt 0 view .LVU242
 998 0010 02F14432 		add	r2, r2, #1145324612
 999 0014 9A60     		str	r2, [r3, #8]
 482:Vendor_HAL/ST/STM32F4xx_HAL_Driver/Src/stm32f4xx_hal_flash.c **** }
 1000              		.loc 1 482 3 is_stmt 1 view .LVU243
 482:Vendor_HAL/ST/STM32F4xx_HAL_Driver/Src/stm32f4xx_hal_flash.c **** }
 1001              		.loc 1 482 10 is_stmt 0 view .LVU244
 1002 0016 0020     		movs	r0, #0
 1003 0018 7047     		bx	lr
 1004              	.L80:
 479:Vendor_HAL/ST/STM32F4xx_HAL_Driver/Src/stm32f4xx_hal_flash.c ****   }  
 1005              		.loc 1 479 12 view .LVU245
 1006 001a 0120     		movs	r0, #1
 483:Vendor_HAL/ST/STM32F4xx_HAL_Driver/Src/stm32f4xx_hal_flash.c **** 
 1007              		.loc 1 483 1 view .LVU246
 1008 001c 7047     		bx	lr
 1009              	.L82:
 1010 001e 00BF     		.align	2
 1011              	.L81:
 1012 0020 003C0240 		.word	1073888256
 1013 0024 3B2A1908 		.word	135866939
 1014              		.cfi_endproc
 1015              	.LFE137:
 1017              		.section	.text.HAL_FLASH_OB_Lock,"ax",%progbits
 1018              		.align	1
 1019              		.global	HAL_FLASH_OB_Lock
 1020              		.syntax unified
 1021              		.thumb
 1022              		.thumb_func
 1024              	HAL_FLASH_OB_Lock:
 1025              	.LFB138:
 490:Vendor_HAL/ST/STM32F4xx_HAL_Driver/Src/stm32f4xx_hal_flash.c ****   /* Set the OPTLOCK Bit to lock the FLASH Option Byte Registers access */
 1026              		.loc 1 490 1 is_stmt 1 view -0
 1027              		.cfi_startproc
 1028              		@ args = 0, pretend = 0, frame = 0
 1029              		@ frame_needed = 0, uses_anonymous_args = 0
 1030              		@ link register save eliminated.
 492:Vendor_HAL/ST/STM32F4xx_HAL_Driver/Src/stm32f4xx_hal_flash.c ****   
ARM GAS  C:\Users\katre\AppData\Local\Temp\ccyg67t2.s 			page 51


 1031              		.loc 1 492 3 view .LVU248
 492:Vendor_HAL/ST/STM32F4xx_HAL_Driver/Src/stm32f4xx_hal_flash.c ****   
 1032              		.loc 1 492 16 is_stmt 0 view .LVU249
 1033 0000 034A     		ldr	r2, .L84
 1034 0002 5369     		ldr	r3, [r2, #20]
 1035 0004 43F00103 		orr	r3, r3, #1
 1036 0008 5361     		str	r3, [r2, #20]
 494:Vendor_HAL/ST/STM32F4xx_HAL_Driver/Src/stm32f4xx_hal_flash.c **** }
 1037              		.loc 1 494 3 is_stmt 1 view .LVU250
 495:Vendor_HAL/ST/STM32F4xx_HAL_Driver/Src/stm32f4xx_hal_flash.c **** 
 1038              		.loc 1 495 1 is_stmt 0 view .LVU251
 1039 000a 0020     		movs	r0, #0
 1040 000c 7047     		bx	lr
 1041              	.L85:
 1042 000e 00BF     		.align	2
 1043              	.L84:
 1044 0010 003C0240 		.word	1073888256
 1045              		.cfi_endproc
 1046              	.LFE138:
 1048              		.section	.text.HAL_FLASH_GetError,"ax",%progbits
 1049              		.align	1
 1050              		.global	HAL_FLASH_GetError
 1051              		.syntax unified
 1052              		.thumb
 1053              		.thumb_func
 1055              	HAL_FLASH_GetError:
 1056              	.LFB140:
 539:Vendor_HAL/ST/STM32F4xx_HAL_Driver/Src/stm32f4xx_hal_flash.c ****    return pFlash.ErrorCode;
 1057              		.loc 1 539 1 is_stmt 1 view -0
 1058              		.cfi_startproc
 1059              		@ args = 0, pretend = 0, frame = 0
 1060              		@ frame_needed = 0, uses_anonymous_args = 0
 1061              		@ link register save eliminated.
 540:Vendor_HAL/ST/STM32F4xx_HAL_Driver/Src/stm32f4xx_hal_flash.c **** }  
 1062              		.loc 1 540 4 view .LVU253
 540:Vendor_HAL/ST/STM32F4xx_HAL_Driver/Src/stm32f4xx_hal_flash.c **** }  
 1063              		.loc 1 540 17 is_stmt 0 view .LVU254
 1064 0000 014B     		ldr	r3, .L87
 1065 0002 D869     		ldr	r0, [r3, #28]
 541:Vendor_HAL/ST/STM32F4xx_HAL_Driver/Src/stm32f4xx_hal_flash.c ****   
 1066              		.loc 1 541 1 view .LVU255
 1067 0004 7047     		bx	lr
 1068              	.L88:
 1069 0006 00BF     		.align	2
 1070              	.L87:
 1071 0008 00000000 		.word	.LANCHOR0
 1072              		.cfi_endproc
 1073              	.LFE140:
 1075              		.section	.text.FLASH_WaitForLastOperation,"ax",%progbits
 1076              		.align	1
 1077              		.global	FLASH_WaitForLastOperation
 1078              		.syntax unified
 1079              		.thumb
 1080              		.thumb_func
 1082              	FLASH_WaitForLastOperation:
 1083              	.LVL63:
 1084              	.LFB141:
ARM GAS  C:\Users\katre\AppData\Local\Temp\ccyg67t2.s 			page 52


 553:Vendor_HAL/ST/STM32F4xx_HAL_Driver/Src/stm32f4xx_hal_flash.c ****   uint32_t tickstart = 0U;
 1085              		.loc 1 553 1 is_stmt 1 view -0
 1086              		.cfi_startproc
 1087              		@ args = 0, pretend = 0, frame = 0
 1088              		@ frame_needed = 0, uses_anonymous_args = 0
 553:Vendor_HAL/ST/STM32F4xx_HAL_Driver/Src/stm32f4xx_hal_flash.c ****   uint32_t tickstart = 0U;
 1089              		.loc 1 553 1 is_stmt 0 view .LVU257
 1090 0000 38B5     		push	{r3, r4, r5, lr}
 1091              	.LCFI6:
 1092              		.cfi_def_cfa_offset 16
 1093              		.cfi_offset 3, -16
 1094              		.cfi_offset 4, -12
 1095              		.cfi_offset 5, -8
 1096              		.cfi_offset 14, -4
 1097 0002 0446     		mov	r4, r0
 554:Vendor_HAL/ST/STM32F4xx_HAL_Driver/Src/stm32f4xx_hal_flash.c ****   
 1098              		.loc 1 554 3 is_stmt 1 view .LVU258
 1099              	.LVL64:
 557:Vendor_HAL/ST/STM32F4xx_HAL_Driver/Src/stm32f4xx_hal_flash.c ****   
 1100              		.loc 1 557 3 view .LVU259
 557:Vendor_HAL/ST/STM32F4xx_HAL_Driver/Src/stm32f4xx_hal_flash.c ****   
 1101              		.loc 1 557 20 is_stmt 0 view .LVU260
 1102 0004 144B     		ldr	r3, .L100
 1103 0006 0022     		movs	r2, #0
 1104 0008 DA61     		str	r2, [r3, #28]
 563:Vendor_HAL/ST/STM32F4xx_HAL_Driver/Src/stm32f4xx_hal_flash.c **** 
 1105              		.loc 1 563 3 is_stmt 1 view .LVU261
 563:Vendor_HAL/ST/STM32F4xx_HAL_Driver/Src/stm32f4xx_hal_flash.c **** 
 1106              		.loc 1 563 15 is_stmt 0 view .LVU262
 1107 000a FFF7FEFF 		bl	HAL_GetTick
 1108              	.LVL65:
 563:Vendor_HAL/ST/STM32F4xx_HAL_Driver/Src/stm32f4xx_hal_flash.c **** 
 1109              		.loc 1 563 15 view .LVU263
 1110 000e 0546     		mov	r5, r0
 1111              	.LVL66:
 565:Vendor_HAL/ST/STM32F4xx_HAL_Driver/Src/stm32f4xx_hal_flash.c ****   { 
 1112              		.loc 1 565 3 is_stmt 1 view .LVU264
 1113              	.L91:
 565:Vendor_HAL/ST/STM32F4xx_HAL_Driver/Src/stm32f4xx_hal_flash.c ****   { 
 1114              		.loc 1 565 8 view .LVU265
 565:Vendor_HAL/ST/STM32F4xx_HAL_Driver/Src/stm32f4xx_hal_flash.c ****   { 
 1115              		.loc 1 565 9 is_stmt 0 view .LVU266
 1116 0010 124B     		ldr	r3, .L100+4
 1117 0012 DB68     		ldr	r3, [r3, #12]
 565:Vendor_HAL/ST/STM32F4xx_HAL_Driver/Src/stm32f4xx_hal_flash.c ****   { 
 1118              		.loc 1 565 8 view .LVU267
 1119 0014 13F4803F 		tst	r3, #65536
 1120 0018 0AD0     		beq	.L98
 567:Vendor_HAL/ST/STM32F4xx_HAL_Driver/Src/stm32f4xx_hal_flash.c ****     {
 1121              		.loc 1 567 5 is_stmt 1 view .LVU268
 567:Vendor_HAL/ST/STM32F4xx_HAL_Driver/Src/stm32f4xx_hal_flash.c ****     {
 1122              		.loc 1 567 7 is_stmt 0 view .LVU269
 1123 001a B4F1FF3F 		cmp	r4, #-1
 1124 001e F7D0     		beq	.L91
 569:Vendor_HAL/ST/STM32F4xx_HAL_Driver/Src/stm32f4xx_hal_flash.c ****       {
 1125              		.loc 1 569 7 is_stmt 1 view .LVU270
 569:Vendor_HAL/ST/STM32F4xx_HAL_Driver/Src/stm32f4xx_hal_flash.c ****       {
ARM GAS  C:\Users\katre\AppData\Local\Temp\ccyg67t2.s 			page 53


 1126              		.loc 1 569 9 is_stmt 0 view .LVU271
 1127 0020 24B1     		cbz	r4, .L92
 569:Vendor_HAL/ST/STM32F4xx_HAL_Driver/Src/stm32f4xx_hal_flash.c ****       {
 1128              		.loc 1 569 29 discriminator 1 view .LVU272
 1129 0022 FFF7FEFF 		bl	HAL_GetTick
 1130              	.LVL67:
 569:Vendor_HAL/ST/STM32F4xx_HAL_Driver/Src/stm32f4xx_hal_flash.c ****       {
 1131              		.loc 1 569 43 discriminator 1 view .LVU273
 1132 0026 401B     		subs	r0, r0, r5
 569:Vendor_HAL/ST/STM32F4xx_HAL_Driver/Src/stm32f4xx_hal_flash.c ****       {
 1133              		.loc 1 569 25 discriminator 1 view .LVU274
 1134 0028 A042     		cmp	r0, r4
 1135 002a F1D9     		bls	.L91
 1136              	.L92:
 571:Vendor_HAL/ST/STM32F4xx_HAL_Driver/Src/stm32f4xx_hal_flash.c ****       }
 1137              		.loc 1 571 9 is_stmt 1 view .LVU275
 571:Vendor_HAL/ST/STM32F4xx_HAL_Driver/Src/stm32f4xx_hal_flash.c ****       }
 1138              		.loc 1 571 16 is_stmt 0 view .LVU276
 1139 002c 0320     		movs	r0, #3
 1140 002e 0DE0     		b	.L93
 1141              	.L98:
 577:Vendor_HAL/ST/STM32F4xx_HAL_Driver/Src/stm32f4xx_hal_flash.c ****   {
 1142              		.loc 1 577 3 is_stmt 1 view .LVU277
 577:Vendor_HAL/ST/STM32F4xx_HAL_Driver/Src/stm32f4xx_hal_flash.c ****   {
 1143              		.loc 1 577 7 is_stmt 0 view .LVU278
 1144 0030 0A4B     		ldr	r3, .L100+4
 1145 0032 DB68     		ldr	r3, [r3, #12]
 577:Vendor_HAL/ST/STM32F4xx_HAL_Driver/Src/stm32f4xx_hal_flash.c ****   {
 1146              		.loc 1 577 6 view .LVU279
 1147 0034 13F0010F 		tst	r3, #1
 1148 0038 02D0     		beq	.L95
 580:Vendor_HAL/ST/STM32F4xx_HAL_Driver/Src/stm32f4xx_hal_flash.c ****   }
 1149              		.loc 1 580 5 is_stmt 1 view .LVU280
 1150 003a 084B     		ldr	r3, .L100+4
 1151 003c 0122     		movs	r2, #1
 1152 003e DA60     		str	r2, [r3, #12]
 1153              	.L95:
 583:Vendor_HAL/ST/STM32F4xx_HAL_Driver/Src/stm32f4xx_hal_flash.c ****                            FLASH_FLAG_PGPERR | FLASH_FLAG_PGSERR | FLASH_FLAG_RDERR)) != RESET)
 1154              		.loc 1 583 3 view .LVU281
 583:Vendor_HAL/ST/STM32F4xx_HAL_Driver/Src/stm32f4xx_hal_flash.c ****                            FLASH_FLAG_PGPERR | FLASH_FLAG_PGSERR | FLASH_FLAG_RDERR)) != RESET)
 1155              		.loc 1 583 6 is_stmt 0 view .LVU282
 1156 0040 064B     		ldr	r3, .L100+4
 1157 0042 DB68     		ldr	r3, [r3, #12]
 583:Vendor_HAL/ST/STM32F4xx_HAL_Driver/Src/stm32f4xx_hal_flash.c ****                            FLASH_FLAG_PGPERR | FLASH_FLAG_PGSERR | FLASH_FLAG_RDERR)) != RESET)
 1158              		.loc 1 583 5 view .LVU283
 1159 0044 13F4F97F 		tst	r3, #498
 1160 0048 01D1     		bne	.L99
 596:Vendor_HAL/ST/STM32F4xx_HAL_Driver/Src/stm32f4xx_hal_flash.c ****   
 1161              		.loc 1 596 10 view .LVU284
 1162 004a 0020     		movs	r0, #0
 1163              	.L93:
 598:Vendor_HAL/ST/STM32F4xx_HAL_Driver/Src/stm32f4xx_hal_flash.c **** 
 1164              		.loc 1 598 1 view .LVU285
 1165 004c 38BD     		pop	{r3, r4, r5, pc}
 1166              	.LVL68:
 1167              	.L99:
 591:Vendor_HAL/ST/STM32F4xx_HAL_Driver/Src/stm32f4xx_hal_flash.c ****     return HAL_ERROR;
ARM GAS  C:\Users\katre\AppData\Local\Temp\ccyg67t2.s 			page 54


 1168              		.loc 1 591 5 is_stmt 1 view .LVU286
 1169 004e FFF7FEFF 		bl	FLASH_SetErrorCode
 1170              	.LVL69:
 592:Vendor_HAL/ST/STM32F4xx_HAL_Driver/Src/stm32f4xx_hal_flash.c ****   }
 1171              		.loc 1 592 5 view .LVU287
 592:Vendor_HAL/ST/STM32F4xx_HAL_Driver/Src/stm32f4xx_hal_flash.c ****   }
 1172              		.loc 1 592 12 is_stmt 0 view .LVU288
 1173 0052 0120     		movs	r0, #1
 1174 0054 FAE7     		b	.L93
 1175              	.L101:
 1176 0056 00BF     		.align	2
 1177              	.L100:
 1178 0058 00000000 		.word	.LANCHOR0
 1179 005c 003C0240 		.word	1073888256
 1180              		.cfi_endproc
 1181              	.LFE141:
 1183              		.section	.text.HAL_FLASH_Program,"ax",%progbits
 1184              		.align	1
 1185              		.global	HAL_FLASH_Program
 1186              		.syntax unified
 1187              		.thumb
 1188              		.thumb_func
 1190              	HAL_FLASH_Program:
 1191              	.LVL70:
 1192              	.LFB130:
 157:Vendor_HAL/ST/STM32F4xx_HAL_Driver/Src/stm32f4xx_hal_flash.c ****   HAL_StatusTypeDef status = HAL_ERROR;
 1193              		.loc 1 157 1 is_stmt 1 view -0
 1194              		.cfi_startproc
 1195              		@ args = 0, pretend = 0, frame = 0
 1196              		@ frame_needed = 0, uses_anonymous_args = 0
 157:Vendor_HAL/ST/STM32F4xx_HAL_Driver/Src/stm32f4xx_hal_flash.c ****   HAL_StatusTypeDef status = HAL_ERROR;
 1197              		.loc 1 157 1 is_stmt 0 view .LVU290
 1198 0000 F8B5     		push	{r3, r4, r5, r6, r7, lr}
 1199              	.LCFI7:
 1200              		.cfi_def_cfa_offset 24
 1201              		.cfi_offset 3, -24
 1202              		.cfi_offset 4, -20
 1203              		.cfi_offset 5, -16
 1204              		.cfi_offset 6, -12
 1205              		.cfi_offset 7, -8
 1206              		.cfi_offset 14, -4
 1207 0002 1646     		mov	r6, r2
 158:Vendor_HAL/ST/STM32F4xx_HAL_Driver/Src/stm32f4xx_hal_flash.c ****   
 1208              		.loc 1 158 3 is_stmt 1 view .LVU291
 1209              	.LVL71:
 161:Vendor_HAL/ST/STM32F4xx_HAL_Driver/Src/stm32f4xx_hal_flash.c ****   
 1210              		.loc 1 161 3 view .LVU292
 161:Vendor_HAL/ST/STM32F4xx_HAL_Driver/Src/stm32f4xx_hal_flash.c ****   
 1211              		.loc 1 161 3 view .LVU293
 1212 0004 1E4A     		ldr	r2, .L116
 1213              	.LVL72:
 161:Vendor_HAL/ST/STM32F4xx_HAL_Driver/Src/stm32f4xx_hal_flash.c ****   
 1214              		.loc 1 161 3 is_stmt 0 view .LVU294
 1215 0006 127E     		ldrb	r2, [r2, #24]	@ zero_extendqisi2
 1216 0008 012A     		cmp	r2, #1
 1217 000a 37D0     		beq	.L110
 1218 000c 0446     		mov	r4, r0
ARM GAS  C:\Users\katre\AppData\Local\Temp\ccyg67t2.s 			page 55


 1219 000e 0D46     		mov	r5, r1
 1220 0010 1F46     		mov	r7, r3
 161:Vendor_HAL/ST/STM32F4xx_HAL_Driver/Src/stm32f4xx_hal_flash.c ****   
 1221              		.loc 1 161 3 is_stmt 1 discriminator 2 view .LVU295
 1222 0012 1B4B     		ldr	r3, .L116
 1223 0014 0122     		movs	r2, #1
 1224 0016 1A76     		strb	r2, [r3, #24]
 161:Vendor_HAL/ST/STM32F4xx_HAL_Driver/Src/stm32f4xx_hal_flash.c ****   
 1225              		.loc 1 161 3 discriminator 2 view .LVU296
 164:Vendor_HAL/ST/STM32F4xx_HAL_Driver/Src/stm32f4xx_hal_flash.c ****   
 1226              		.loc 1 164 3 discriminator 2 view .LVU297
 1227 0018 0328     		cmp	r0, #3
 1228 001a 1BD8     		bhi	.L112
 1229              	.LVL73:
 1230              	.L104:
 167:Vendor_HAL/ST/STM32F4xx_HAL_Driver/Src/stm32f4xx_hal_flash.c ****   
 1231              		.loc 1 167 3 view .LVU298
 167:Vendor_HAL/ST/STM32F4xx_HAL_Driver/Src/stm32f4xx_hal_flash.c ****   
 1232              		.loc 1 167 12 is_stmt 0 view .LVU299
 1233 001c 4CF25030 		movw	r0, #50000
 1234 0020 FFF7FEFF 		bl	FLASH_WaitForLastOperation
 1235              	.LVL74:
 169:Vendor_HAL/ST/STM32F4xx_HAL_Driver/Src/stm32f4xx_hal_flash.c ****   {
 1236              		.loc 1 169 3 is_stmt 1 view .LVU300
 169:Vendor_HAL/ST/STM32F4xx_HAL_Driver/Src/stm32f4xx_hal_flash.c ****   {
 1237              		.loc 1 169 5 is_stmt 0 view .LVU301
 1238 0024 90B9     		cbnz	r0, .L105
 171:Vendor_HAL/ST/STM32F4xx_HAL_Driver/Src/stm32f4xx_hal_flash.c ****     {
 1239              		.loc 1 171 5 is_stmt 1 view .LVU302
 171:Vendor_HAL/ST/STM32F4xx_HAL_Driver/Src/stm32f4xx_hal_flash.c ****     {
 1240              		.loc 1 171 7 is_stmt 0 view .LVU303
 1241 0026 D4B1     		cbz	r4, .L113
 176:Vendor_HAL/ST/STM32F4xx_HAL_Driver/Src/stm32f4xx_hal_flash.c ****     {
 1242              		.loc 1 176 10 is_stmt 1 view .LVU304
 176:Vendor_HAL/ST/STM32F4xx_HAL_Driver/Src/stm32f4xx_hal_flash.c ****     {
 1243              		.loc 1 176 12 is_stmt 0 view .LVU305
 1244 0028 012C     		cmp	r4, #1
 1245 002a 1DD0     		beq	.L114
 181:Vendor_HAL/ST/STM32F4xx_HAL_Driver/Src/stm32f4xx_hal_flash.c ****     {
 1246              		.loc 1 181 10 is_stmt 1 view .LVU306
 181:Vendor_HAL/ST/STM32F4xx_HAL_Driver/Src/stm32f4xx_hal_flash.c ****     {
 1247              		.loc 1 181 12 is_stmt 0 view .LVU307
 1248 002c 022C     		cmp	r4, #2
 1249 002e 20D0     		beq	.L115
 189:Vendor_HAL/ST/STM32F4xx_HAL_Driver/Src/stm32f4xx_hal_flash.c ****     }
 1250              		.loc 1 189 7 is_stmt 1 view .LVU308
 1251 0030 3246     		mov	r2, r6
 1252 0032 3B46     		mov	r3, r7
 1253 0034 2846     		mov	r0, r5
 1254              	.LVL75:
 189:Vendor_HAL/ST/STM32F4xx_HAL_Driver/Src/stm32f4xx_hal_flash.c ****     }
 1255              		.loc 1 189 7 is_stmt 0 view .LVU309
 1256 0036 FFF7FEFF 		bl	FLASH_Program_DoubleWord
 1257              	.LVL76:
 1258              	.L107:
 193:Vendor_HAL/ST/STM32F4xx_HAL_Driver/Src/stm32f4xx_hal_flash.c ****     
 1259              		.loc 1 193 5 is_stmt 1 view .LVU310
ARM GAS  C:\Users\katre\AppData\Local\Temp\ccyg67t2.s 			page 56


 193:Vendor_HAL/ST/STM32F4xx_HAL_Driver/Src/stm32f4xx_hal_flash.c ****     
 1260              		.loc 1 193 14 is_stmt 0 view .LVU311
 1261 003a 4CF25030 		movw	r0, #50000
 1262 003e FFF7FEFF 		bl	FLASH_WaitForLastOperation
 1263              	.LVL77:
 196:Vendor_HAL/ST/STM32F4xx_HAL_Driver/Src/stm32f4xx_hal_flash.c ****   }
 1264              		.loc 1 196 5 is_stmt 1 view .LVU312
 196:Vendor_HAL/ST/STM32F4xx_HAL_Driver/Src/stm32f4xx_hal_flash.c ****   }
 1265              		.loc 1 196 15 is_stmt 0 view .LVU313
 1266 0042 104A     		ldr	r2, .L116+4
 1267 0044 1369     		ldr	r3, [r2, #16]
 1268 0046 23F00103 		bic	r3, r3, #1
 1269 004a 1361     		str	r3, [r2, #16]
 1270              	.L105:
 200:Vendor_HAL/ST/STM32F4xx_HAL_Driver/Src/stm32f4xx_hal_flash.c ****   
 1271              		.loc 1 200 3 is_stmt 1 view .LVU314
 200:Vendor_HAL/ST/STM32F4xx_HAL_Driver/Src/stm32f4xx_hal_flash.c ****   
 1272              		.loc 1 200 3 view .LVU315
 1273 004c 0C4B     		ldr	r3, .L116
 1274 004e 0022     		movs	r2, #0
 1275 0050 1A76     		strb	r2, [r3, #24]
 200:Vendor_HAL/ST/STM32F4xx_HAL_Driver/Src/stm32f4xx_hal_flash.c ****   
 1276              		.loc 1 200 3 view .LVU316
 202:Vendor_HAL/ST/STM32F4xx_HAL_Driver/Src/stm32f4xx_hal_flash.c **** }
 1277              		.loc 1 202 3 view .LVU317
 1278              	.LVL78:
 1279              	.L103:
 203:Vendor_HAL/ST/STM32F4xx_HAL_Driver/Src/stm32f4xx_hal_flash.c **** 
 1280              		.loc 1 203 1 is_stmt 0 view .LVU318
 1281 0052 F8BD     		pop	{r3, r4, r5, r6, r7, pc}
 1282              	.LVL79:
 1283              	.L112:
 164:Vendor_HAL/ST/STM32F4xx_HAL_Driver/Src/stm32f4xx_hal_flash.c ****   
 1284              		.loc 1 164 3 discriminator 1 view .LVU319
 1285 0054 A421     		movs	r1, #164
 1286              	.LVL80:
 164:Vendor_HAL/ST/STM32F4xx_HAL_Driver/Src/stm32f4xx_hal_flash.c ****   
 1287              		.loc 1 164 3 discriminator 1 view .LVU320
 1288 0056 0C48     		ldr	r0, .L116+8
 1289              	.LVL81:
 164:Vendor_HAL/ST/STM32F4xx_HAL_Driver/Src/stm32f4xx_hal_flash.c ****   
 1290              		.loc 1 164 3 discriminator 1 view .LVU321
 1291 0058 FFF7FEFF 		bl	assert_failed
 1292              	.LVL82:
 1293 005c DEE7     		b	.L104
 1294              	.LVL83:
 1295              	.L113:
 174:Vendor_HAL/ST/STM32F4xx_HAL_Driver/Src/stm32f4xx_hal_flash.c ****     }
 1296              		.loc 1 174 7 is_stmt 1 view .LVU322
 1297 005e F1B2     		uxtb	r1, r6
 1298 0060 2846     		mov	r0, r5
 1299              	.LVL84:
 174:Vendor_HAL/ST/STM32F4xx_HAL_Driver/Src/stm32f4xx_hal_flash.c ****     }
 1300              		.loc 1 174 7 is_stmt 0 view .LVU323
 1301 0062 FFF7FEFF 		bl	FLASH_Program_Byte
 1302              	.LVL85:
 1303 0066 E8E7     		b	.L107
ARM GAS  C:\Users\katre\AppData\Local\Temp\ccyg67t2.s 			page 57


 1304              	.LVL86:
 1305              	.L114:
 179:Vendor_HAL/ST/STM32F4xx_HAL_Driver/Src/stm32f4xx_hal_flash.c ****     }
 1306              		.loc 1 179 7 is_stmt 1 view .LVU324
 1307 0068 B1B2     		uxth	r1, r6
 1308 006a 2846     		mov	r0, r5
 1309              	.LVL87:
 179:Vendor_HAL/ST/STM32F4xx_HAL_Driver/Src/stm32f4xx_hal_flash.c ****     }
 1310              		.loc 1 179 7 is_stmt 0 view .LVU325
 1311 006c FFF7FEFF 		bl	FLASH_Program_HalfWord
 1312              	.LVL88:
 1313 0070 E3E7     		b	.L107
 1314              	.LVL89:
 1315              	.L115:
 184:Vendor_HAL/ST/STM32F4xx_HAL_Driver/Src/stm32f4xx_hal_flash.c ****     }
 1316              		.loc 1 184 7 is_stmt 1 view .LVU326
 1317 0072 3146     		mov	r1, r6
 1318 0074 2846     		mov	r0, r5
 1319              	.LVL90:
 184:Vendor_HAL/ST/STM32F4xx_HAL_Driver/Src/stm32f4xx_hal_flash.c ****     }
 1320              		.loc 1 184 7 is_stmt 0 view .LVU327
 1321 0076 FFF7FEFF 		bl	FLASH_Program_Word
 1322              	.LVL91:
 1323 007a DEE7     		b	.L107
 1324              	.LVL92:
 1325              	.L110:
 161:Vendor_HAL/ST/STM32F4xx_HAL_Driver/Src/stm32f4xx_hal_flash.c ****   
 1326              		.loc 1 161 3 view .LVU328
 1327 007c 0220     		movs	r0, #2
 1328              	.LVL93:
 161:Vendor_HAL/ST/STM32F4xx_HAL_Driver/Src/stm32f4xx_hal_flash.c ****   
 1329              		.loc 1 161 3 view .LVU329
 1330 007e E8E7     		b	.L103
 1331              	.L117:
 1332              		.align	2
 1333              	.L116:
 1334 0080 00000000 		.word	.LANCHOR0
 1335 0084 003C0240 		.word	1073888256
 1336 0088 00000000 		.word	.LC0
 1337              		.cfi_endproc
 1338              	.LFE130:
 1340              		.section	.text.HAL_FLASH_OB_Launch,"ax",%progbits
 1341              		.align	1
 1342              		.global	HAL_FLASH_OB_Launch
 1343              		.syntax unified
 1344              		.thumb
 1345              		.thumb_func
 1347              	HAL_FLASH_OB_Launch:
 1348              	.LFB139:
 502:Vendor_HAL/ST/STM32F4xx_HAL_Driver/Src/stm32f4xx_hal_flash.c ****   /* Set the OPTSTRT bit in OPTCR register */
 1349              		.loc 1 502 1 is_stmt 1 view -0
 1350              		.cfi_startproc
 1351              		@ args = 0, pretend = 0, frame = 0
 1352              		@ frame_needed = 0, uses_anonymous_args = 0
 1353 0000 08B5     		push	{r3, lr}
 1354              	.LCFI8:
 1355              		.cfi_def_cfa_offset 8
ARM GAS  C:\Users\katre\AppData\Local\Temp\ccyg67t2.s 			page 58


 1356              		.cfi_offset 3, -8
 1357              		.cfi_offset 14, -4
 504:Vendor_HAL/ST/STM32F4xx_HAL_Driver/Src/stm32f4xx_hal_flash.c **** 
 1358              		.loc 1 504 3 view .LVU331
 504:Vendor_HAL/ST/STM32F4xx_HAL_Driver/Src/stm32f4xx_hal_flash.c **** 
 1359              		.loc 1 504 40 is_stmt 0 view .LVU332
 1360 0002 054A     		ldr	r2, .L120
 1361 0004 137D     		ldrb	r3, [r2, #20]	@ zero_extendqisi2
 1362 0006 43F00203 		orr	r3, r3, #2
 1363 000a 1375     		strb	r3, [r2, #20]
 507:Vendor_HAL/ST/STM32F4xx_HAL_Driver/Src/stm32f4xx_hal_flash.c **** }
 1364              		.loc 1 507 3 is_stmt 1 view .LVU333
 507:Vendor_HAL/ST/STM32F4xx_HAL_Driver/Src/stm32f4xx_hal_flash.c **** }
 1365              		.loc 1 507 10 is_stmt 0 view .LVU334
 1366 000c 4CF25030 		movw	r0, #50000
 1367 0010 FFF7FEFF 		bl	FLASH_WaitForLastOperation
 1368              	.LVL94:
 508:Vendor_HAL/ST/STM32F4xx_HAL_Driver/Src/stm32f4xx_hal_flash.c **** 
 1369              		.loc 1 508 1 view .LVU335
 1370 0014 08BD     		pop	{r3, pc}
 1371              	.L121:
 1372 0016 00BF     		.align	2
 1373              	.L120:
 1374 0018 003C0240 		.word	1073888256
 1375              		.cfi_endproc
 1376              	.LFE139:
 1378              		.global	pFlash
 1379              		.section	.bss.pFlash,"aw",%nobits
 1380              		.align	2
 1381              		.set	.LANCHOR0,. + 0
 1384              	pFlash:
 1385 0000 00000000 		.space	32
 1385      00000000 
 1385      00000000 
 1385      00000000 
 1385      00000000 
 1386              		.text
 1387              	.Letext0:
 1388              		.file 3 "c:\\program files (x86)\\gnu arm embedded toolchain\\10 2021.10\\arm-none-eabi\\include\\
 1389              		.file 4 "c:\\program files (x86)\\gnu arm embedded toolchain\\10 2021.10\\arm-none-eabi\\include\\
 1390              		.file 5 "CMSIS/Vendor_Device/ST/STM32F4xx/Include/stm32f446xx.h"
 1391              		.file 6 "CMSIS/Vendor_Device/ST/STM32F4xx/Include/stm32f4xx.h"
 1392              		.file 7 "Vendor_HAL/ST/STM32F4xx_HAL_Driver/Inc/stm32f4xx_hal_def.h"
 1393              		.file 8 "Vendor_HAL/ST/STM32F4xx_HAL_Driver/Inc/stm32f4xx_hal_flash.h"
 1394              		.file 9 "Vendor_HAL/ST/STM32F4xx_HAL_Driver/stm32f4xx_hal_conf.h"
 1395              		.file 10 "Vendor_HAL/ST/STM32F4xx_HAL_Driver/Inc/stm32f4xx_hal.h"
 1396              		.file 11 "Vendor_HAL/ST/STM32F4xx_HAL_Driver/Inc/stm32f4xx_hal_flash_ex.h"
ARM GAS  C:\Users\katre\AppData\Local\Temp\ccyg67t2.s 			page 59

